   1               		.file	"Dataflash.c"
   2               		.arch atmega169
   3               	__SREG__ = 0x3f
   4               	__SP_H__ = 0x3e
   5               	__SP_L__ = 0x3d
   6               	__tmp_reg__ = 0
   7               	__zero_reg__ = 1
   8               		.global __do_copy_data
   9               		.global __do_clear_bss
  17               	.Ltext0:
  18               	.global	DFSPIRoutinePointer
  19               		.data
  22               	DFSPIRoutinePointer:
  23 0000 0000      		.word	pm(SPI_SPITransmit)
  24               	.global	DataFlashError
  25               		.section	.progmem.data,"a",@progbits
  28               	DataFlashError:
  29 0000 4441 5441 		.string	"DATAFLASH ERROR"
  29      464C 4153 
  29      4820 4552 
  29      524F 5200 
  30               	.global	DF_Pages
  33               	DF_Pages:
  34 0010 0001      		.word	256
  35 0012 0002      		.word	512
  36 0014 0004      		.word	1024
  37 0016 0008      		.word	2048
  38 0018 0010      		.word	4096
  39 001a 0010      		.word	4096
  40 001c 0020      		.word	8192
  41 001e 0020      		.word	8192
  42               	.global	DF_PageSize
  45               	DF_PageSize:
  46 0020 0801      		.word	264
  47 0022 0801      		.word	264
  48 0024 0801      		.word	264
  49 0026 0801      		.word	264
  50 0028 0801      		.word	264
  51 002a 1002      		.word	528
  52 002c 1002      		.word	528
  53 002e 2004      		.word	1056
  54               	.global	DF_PageBits
  57               	DF_PageBits:
  58 0030 09        		.byte	9
  59 0031 09        		.byte	9
  60 0032 09        		.byte	9
  61 0033 09        		.byte	9
  62 0034 09        		.byte	9
  63 0035 0A        		.byte	10
  64 0036 0A        		.byte	10
  65 0037 0B        		.byte	11
  66               		.text
  67               	.global	DF_EnableDataflash
  69               	DF_EnableDataflash:
  70               	.LFB22:
  71               	.LM1:
  72               	/* prologue: frame size=0 */
  73               	/* prologue end (size=0) */
  74 0000 9091 0000 		lds r25,UseExernalDF
  75               	.LM2:
  76 0004 8130      		cpi r24,lo8(1)
  77 0006 31F4      		brne .L2
  78               	.LM3:
  79 0008 9130      		cpi r25,lo8(1)
  80 000a 11F4      		brne .L3
  81               	.LM4:
  82 000c 82E0      		ldi r24,lo8(2)
  83 000e 05C0      		rjmp .L8
  84               	.L3:
  85               	.LM5:
  86 0010 2898      		cbi 37-0x20,0
  87 0012 0895      		ret
  88               	.L2:
  89               	.LM6:
  90 0014 9130      		cpi r25,lo8(1)
  91 0016 21F4      		brne .L6
  92               	.LM7:
  93 0018 892F      		mov r24,r25
  94               	.L8:
  95 001a 0E94 0000 		call MAIN_ResetCSLine
  96 001e 0895      		ret
  97               	.L6:
  98               	.LM8:
  99 0020 289A      		sbi 37-0x20,0
 100 0022 0895      		ret
 101               	/* epilogue: frame size=0 */
 102               	/* epilogue: noreturn */
 103               	/* epilogue end (size=0) */
 104               	/* function DF_EnableDataflash size 18 (18) */
 105               	.LFE22:
 107               	.global	DF_ReadBufferByte
 109               	DF_ReadBufferByte:
 110               	.LFB20:
 111               	.LM9:
 112               	/* prologue: frame size=0 */
 113 0024 0F93      		push r16
 114 0026 1F93      		push r17
 115               	/* prologue end (size=2) */
 116 0028 8C01      		movw r16,r24
 117               	.LM10:
 118 002a 80E0      		ldi r24,lo8(0)
 119 002c 0E94 0000 		call DF_EnableDataflash
 120 0030 81E0      		ldi r24,lo8(1)
 121 0032 0E94 0000 		call DF_EnableDataflash
 122               	.LM11:
 123 0036 E091 0000 		lds r30,DFSPIRoutinePointer
 124 003a F091 0000 		lds r31,(DFSPIRoutinePointer)+1
 125 003e 84E5      		ldi r24,lo8(84)
 126 0040 0995      		icall
 127               	.LM12:
 128 0042 812F      		mov r24,r17
 129 0044 9927      		clr r25
 130 0046 E091 0000 		lds r30,DFSPIRoutinePointer
 131 004a F091 0000 		lds r31,(DFSPIRoutinePointer)+1
 132 004e 0995      		icall
 133               	.LM13:
 134 0050 E091 0000 		lds r30,DFSPIRoutinePointer
 135 0054 F091 0000 		lds r31,(DFSPIRoutinePointer)+1
 136 0058 802F      		mov r24,r16
 137 005a 0995      		icall
 138               	.LM14:
 139 005c E091 0000 		lds r30,DFSPIRoutinePointer
 140 0060 F091 0000 		lds r31,(DFSPIRoutinePointer)+1
 141 0064 80E0      		ldi r24,lo8(0)
 142 0066 0995      		icall
 143               	.LM15:
 144 0068 E091 0000 		lds r30,DFSPIRoutinePointer
 145 006c F091 0000 		lds r31,(DFSPIRoutinePointer)+1
 146 0070 80E0      		ldi r24,lo8(0)
 147 0072 0995      		icall
 148               	.LM16:
 149 0074 9927      		clr r25
 150               	/* epilogue: frame size=0 */
 151 0076 1F91      		pop r17
 152 0078 0F91      		pop r16
 153 007a 0895      		ret
 154               	/* epilogue end (size=3) */
 155               	/* function DF_ReadBufferByte size 44 (39) */
 156               	.LFE20:
 158               	.global	DF_ContinuousReadEnable
 160               	DF_ContinuousReadEnable:
 161               	.LFB19:
 162               	.LM17:
 163               	/* prologue: frame size=0 */
 164 007c EF92      		push r14
 165 007e FF92      		push r15
 166 0080 0F93      		push r16
 167 0082 1F93      		push r17
 168               	/* prologue end (size=4) */
 169 0084 8C01      		movw r16,r24
 170 0086 7B01      		movw r14,r22
 171               	.LM18:
 172 0088 80E0      		ldi r24,lo8(0)
 173 008a 0E94 0000 		call DF_EnableDataflash
 174 008e 81E0      		ldi r24,lo8(1)
 175 0090 0E94 0000 		call DF_EnableDataflash
 176               	.LM19:
 177 0094 E091 0000 		lds r30,DFSPIRoutinePointer
 178 0098 F091 0000 		lds r31,(DFSPIRoutinePointer)+1
 179 009c 88E6      		ldi r24,lo8(104)
 180 009e 0995      		icall
 181               	.LM20:
 182 00a0 8AB5      		in r24,74-0x20
 183 00a2 9801      		movw r18,r16
 184 00a4 02C0      		rjmp 2f
 185 00a6 3695      	1:	lsr r19
 186 00a8 2795      		ror r18
 187 00aa 8A95      	2:	dec r24
 188 00ac E2F7      		brpl 1b
 189 00ae C901      		movw r24,r18
 190 00b0 E091 0000 		lds r30,DFSPIRoutinePointer
 191 00b4 F091 0000 		lds r31,(DFSPIRoutinePointer)+1
 192 00b8 0995      		icall
 193               	.LM21:
 194 00ba 8BB5      		in r24,75-0x20
 195 00bc 02C0      		rjmp 2f
 196 00be 000F      	1:	lsl r16
 197 00c0 111F      		rol r17
 198 00c2 8A95      	2:	dec r24
 199 00c4 E2F7      		brpl 1b
 200 00c6 8F2D      		mov r24,r15
 201 00c8 9927      		clr r25
 202 00ca E091 0000 		lds r30,DFSPIRoutinePointer
 203 00ce F091 0000 		lds r31,(DFSPIRoutinePointer)+1
 204 00d2 800F      		add r24,r16
 205 00d4 0995      		icall
 206               	.LM22:
 207 00d6 E091 0000 		lds r30,DFSPIRoutinePointer
 208 00da F091 0000 		lds r31,(DFSPIRoutinePointer)+1
 209 00de 8E2D      		mov r24,r14
 210 00e0 0995      		icall
 211 00e2 03E0      		ldi r16,lo8(3)
 212               	.L16:
 213               	.LBB2:
 214               	.LM23:
 215 00e4 E091 0000 		lds r30,DFSPIRoutinePointer
 216 00e8 F091 0000 		lds r31,(DFSPIRoutinePointer)+1
 217 00ec 80E0      		ldi r24,lo8(0)
 218 00ee 0995      		icall
 219               	.LM24:
 220 00f0 0150      		subi r16,lo8(-(-1))
 221 00f2 07FF      		sbrs r16,7
 222 00f4 F7CF      		rjmp .L16
 223               	.LBE2:
 224               	/* epilogue: frame size=0 */
 225 00f6 1F91      		pop r17
 226 00f8 0F91      		pop r16
 227 00fa FF90      		pop r15
 228 00fc EF90      		pop r14
 229 00fe 0895      		ret
 230               	/* epilogue end (size=5) */
 231               	/* function DF_ContinuousReadEnable size 68 (59) */
 232               	.LFE19:
 234               	.global	DF_BufferWriteEnable
 236               	DF_BufferWriteEnable:
 237               	.LFB18:
 238               	.LM25:
 239               	/* prologue: frame size=0 */
 240 0100 0F93      		push r16
 241 0102 1F93      		push r17
 242               	/* prologue end (size=2) */
 243 0104 8C01      		movw r16,r24
 244               	.LM26:
 245 0106 80E0      		ldi r24,lo8(0)
 246 0108 0E94 0000 		call DF_EnableDataflash
 247 010c 81E0      		ldi r24,lo8(1)
 248 010e 0E94 0000 		call DF_EnableDataflash
 249               	.LM27:
 250 0112 E091 0000 		lds r30,DFSPIRoutinePointer
 251 0116 F091 0000 		lds r31,(DFSPIRoutinePointer)+1
 252 011a 84E8      		ldi r24,lo8(-124)
 253 011c 0995      		icall
 254               	.LM28:
 255 011e E091 0000 		lds r30,DFSPIRoutinePointer
 256 0122 F091 0000 		lds r31,(DFSPIRoutinePointer)+1
 257 0126 80E0      		ldi r24,lo8(0)
 258 0128 0995      		icall
 259               	.LM29:
 260 012a 812F      		mov r24,r17
 261 012c 9927      		clr r25
 262 012e E091 0000 		lds r30,DFSPIRoutinePointer
 263 0132 F091 0000 		lds r31,(DFSPIRoutinePointer)+1
 264 0136 0995      		icall
 265               	.LM30:
 266 0138 E091 0000 		lds r30,DFSPIRoutinePointer
 267 013c F091 0000 		lds r31,(DFSPIRoutinePointer)+1
 268 0140 802F      		mov r24,r16
 269 0142 0995      		icall
 270               	/* epilogue: frame size=0 */
 271 0144 1F91      		pop r17
 272 0146 0F91      		pop r16
 273 0148 0895      		ret
 274               	/* epilogue end (size=3) */
 275               	/* function DF_BufferWriteEnable size 37 (32) */
 276               	.LFE18:
 278               	.global	DF_GetChipCharacteristics
 280               	DF_GetChipCharacteristics:
 281               	.LFB15:
 282               	.LM31:
 283               	/* prologue: frame size=0 */
 284               	/* prologue end (size=0) */
 285               	.LM32:
 286 014a 80E0      		ldi r24,lo8(0)
 287 014c 0E94 0000 		call DF_EnableDataflash
 288 0150 81E0      		ldi r24,lo8(1)
 289 0152 0E94 0000 		call DF_EnableDataflash
 290               	.LM33:
 291 0156 E091 0000 		lds r30,DFSPIRoutinePointer
 292 015a F091 0000 		lds r31,(DFSPIRoutinePointer)+1
 293 015e 87E5      		ldi r24,lo8(87)
 294 0160 0995      		icall
 295               	.LM34:
 296 0162 E091 0000 		lds r30,DFSPIRoutinePointer
 297 0166 F091 0000 		lds r31,(DFSPIRoutinePointer)+1
 298 016a 80E0      		ldi r24,lo8(0)
 299 016c 0995      		icall
 300               	.LM35:
 301 016e 682F      		mov r22,r24
 302 0170 7727      		clr r23
 303 0172 CB01      		movw r24,r22
 304 0174 8873      		andi r24,lo8(56)
 305 0176 9070      		andi r25,hi8(56)
 306 0178 33E0      		ldi r19,3
 307 017a 9595      	1:	asr r25
 308 017c 8795      		ror r24
 309 017e 3A95      		dec r19
 310 0180 E1F7      		brne 1b
 311               	.LBB3:
 312               	.LM36:
 313 0182 9927      		clr r25
 314 0184 FC01      		movw r30,r24
 315 0186 E050      		subi r30,lo8(-(DF_PageBits))
 316 0188 F040      		sbci r31,hi8(-(DF_PageBits))
 317               	/* #APP */
 318 018a 4491      		lpm r20, Z
 319               		
 320               	/* #NOAPP */
 321               	.LBE3:
 322 018c 4093 0000 		sts DataflashInfo,r20
 323               	.LBB4:
 324               	.LM37:
 325 0190 9C01      		movw r18,r24
 326 0192 280F      		add r18,r24
 327 0194 391F      		adc r19,r25
 328 0196 F901      		movw r30,r18
 329 0198 E050      		subi r30,lo8(-(DF_PageSize))
 330 019a F040      		sbci r31,hi8(-(DF_PageSize))
 331               	/* #APP */
 332 019c 8591      		lpm r24, Z+
 333 019e 9491      		lpm r25, Z
 334               		
 335               	/* #NOAPP */
 336               	.LBE4:
 337 01a0 9093 0000 		sts (DataflashInfo+1)+1,r25
 338 01a4 8093 0000 		sts DataflashInfo+1,r24
 339               	.LBB5:
 340               	.LM38:
 341 01a8 F901      		movw r30,r18
 342 01aa E050      		subi r30,lo8(-(DF_Pages))
 343 01ac F040      		sbci r31,hi8(-(DF_Pages))
 344               	/* #APP */
 345 01ae 8591      		lpm r24, Z+
 346 01b0 9491      		lpm r25, Z
 347               		
 348               	/* #NOAPP */
 349               	.LBE5:
 350 01b2 9093 0000 		sts (DataflashInfo+3)+1,r25
 351 01b6 8093 0000 		sts DataflashInfo+3,r24
 352               	.LM39:
 353 01ba 80E1      		ldi r24,lo8(16)
 354 01bc 841B      		sub r24,r20
 355 01be 8ABD      		out 74-0x20,r24
 356               	.LM40:
 357 01c0 4850      		subi r20,lo8(-(-8))
 358 01c2 4BBD      		out 75-0x20,r20
 359               	.LM41:
 360 01c4 CB01      		movw r24,r22
 361               	/* epilogue: frame size=0 */
 362 01c6 0895      		ret
 363               	/* epilogue end (size=1) */
 364               	/* function DF_GetChipCharacteristics size 74 (73) */
 365               	.LFE15:
 367               	.global	DF_EraseBlock
 369               	DF_EraseBlock:
 370               	.LFB21:
 371               	.LM42:
 372               	/* prologue: frame size=0 */
 373 01c8 0F93      		push r16
 374 01ca 1F93      		push r17
 375               	/* prologue end (size=2) */
 376 01cc 8C01      		movw r16,r24
 377               	.LM43:
 378 01ce 80E0      		ldi r24,lo8(0)
 379 01d0 0E94 0000 		call DF_EnableDataflash
 380 01d4 81E0      		ldi r24,lo8(1)
 381 01d6 0E94 0000 		call DF_EnableDataflash
 382               	.LM44:
 383 01da E091 0000 		lds r30,DFSPIRoutinePointer
 384 01de F091 0000 		lds r31,(DFSPIRoutinePointer)+1
 385 01e2 80E5      		ldi r24,lo8(80)
 386 01e4 0995      		icall
 387               	.LM45:
 388 01e6 812F      		mov r24,r17
 389 01e8 9927      		clr r25
 390 01ea E091 0000 		lds r30,DFSPIRoutinePointer
 391 01ee F091 0000 		lds r31,(DFSPIRoutinePointer)+1
 392 01f2 0995      		icall
 393               	.LM46:
 394 01f4 E091 0000 		lds r30,DFSPIRoutinePointer
 395 01f8 F091 0000 		lds r31,(DFSPIRoutinePointer)+1
 396 01fc 802F      		mov r24,r16
 397 01fe 0995      		icall
 398               	.LM47:
 399 0200 E091 0000 		lds r30,DFSPIRoutinePointer
 400 0204 F091 0000 		lds r31,(DFSPIRoutinePointer)+1
 401 0208 80E0      		ldi r24,lo8(0)
 402 020a 0995      		icall
 403               	.L25:
 404               	.LM48:
 405 020c 0E94 0000 		call DF_GetChipCharacteristics
 406 0210 8823      		tst r24
 407 0212 E4F7      		brge .L25
 408               	/* epilogue: frame size=0 */
 409 0214 1F91      		pop r17
 410 0216 0F91      		pop r16
 411 0218 0895      		ret
 412               	/* epilogue end (size=3) */
 413               	/* function DF_EraseBlock size 42 (37) */
 414               	.LFE21:
 416               	.global	DF_CopyFlashPageToBuffer
 418               	DF_CopyFlashPageToBuffer:
 419               	.LFB17:
 420               	.LM49:
 421               	/* prologue: frame size=0 */
 422 021a 0F93      		push r16
 423 021c 1F93      		push r17
 424               	/* prologue end (size=2) */
 425 021e 8C01      		movw r16,r24
 426               	.LM50:
 427 0220 80E0      		ldi r24,lo8(0)
 428 0222 0E94 0000 		call DF_EnableDataflash
 429 0226 81E0      		ldi r24,lo8(1)
 430 0228 0E94 0000 		call DF_EnableDataflash
 431               	.LM51:
 432 022c E091 0000 		lds r30,DFSPIRoutinePointer
 433 0230 F091 0000 		lds r31,(DFSPIRoutinePointer)+1
 434 0234 83E5      		ldi r24,lo8(83)
 435 0236 0995      		icall
 436               	.LM52:
 437 0238 8AB5      		in r24,74-0x20
 438 023a 9801      		movw r18,r16
 439 023c 02C0      		rjmp 2f
 440 023e 3695      	1:	lsr r19
 441 0240 2795      		ror r18
 442 0242 8A95      	2:	dec r24
 443 0244 E2F7      		brpl 1b
 444 0246 C901      		movw r24,r18
 445 0248 E091 0000 		lds r30,DFSPIRoutinePointer
 446 024c F091 0000 		lds r31,(DFSPIRoutinePointer)+1
 447 0250 0995      		icall
 448               	.LM53:
 449 0252 8BB5      		in r24,75-0x20
 450 0254 02C0      		rjmp 2f
 451 0256 000F      	1:	lsl r16
 452 0258 111F      		rol r17
 453 025a 8A95      	2:	dec r24
 454 025c E2F7      		brpl 1b
 455 025e E091 0000 		lds r30,DFSPIRoutinePointer
 456 0262 F091 0000 		lds r31,(DFSPIRoutinePointer)+1
 457 0266 802F      		mov r24,r16
 458 0268 0995      		icall
 459               	.LM54:
 460 026a E091 0000 		lds r30,DFSPIRoutinePointer
 461 026e F091 0000 		lds r31,(DFSPIRoutinePointer)+1
 462 0272 80E0      		ldi r24,lo8(0)
 463 0274 0995      		icall
 464               	.L30:
 465               	.LM55:
 466 0276 0E94 0000 		call DF_GetChipCharacteristics
 467 027a 8823      		tst r24
 468 027c E4F7      		brge .L30
 469               	/* epilogue: frame size=0 */
 470 027e 1F91      		pop r17
 471 0280 0F91      		pop r16
 472 0282 0895      		ret
 473               	/* epilogue end (size=3) */
 474               	/* function DF_CopyFlashPageToBuffer size 56 (51) */
 475               	.LFE17:
 477               	.global	DF_CopyBufferToFlashPage
 479               	DF_CopyBufferToFlashPage:
 480               	.LFB16:
 481               	.LM56:
 482               	/* prologue: frame size=0 */
 483 0284 0F93      		push r16
 484 0286 1F93      		push r17
 485               	/* prologue end (size=2) */
 486 0288 8C01      		movw r16,r24
 487               	.LM57:
 488 028a 80E0      		ldi r24,lo8(0)
 489 028c 0E94 0000 		call DF_EnableDataflash
 490 0290 81E0      		ldi r24,lo8(1)
 491 0292 0E94 0000 		call DF_EnableDataflash
 492               	.LM58:
 493 0296 E091 0000 		lds r30,DFSPIRoutinePointer
 494 029a F091 0000 		lds r31,(DFSPIRoutinePointer)+1
 495 029e 83E8      		ldi r24,lo8(-125)
 496 02a0 0995      		icall
 497               	.LM59:
 498 02a2 8AB5      		in r24,74-0x20
 499 02a4 9801      		movw r18,r16
 500 02a6 02C0      		rjmp 2f
 501 02a8 3695      	1:	lsr r19
 502 02aa 2795      		ror r18
 503 02ac 8A95      	2:	dec r24
 504 02ae E2F7      		brpl 1b
 505 02b0 C901      		movw r24,r18
 506 02b2 E091 0000 		lds r30,DFSPIRoutinePointer
 507 02b6 F091 0000 		lds r31,(DFSPIRoutinePointer)+1
 508 02ba 0995      		icall
 509               	.LM60:
 510 02bc 8BB5      		in r24,75-0x20
 511 02be 02C0      		rjmp 2f
 512 02c0 000F      	1:	lsl r16
 513 02c2 111F      		rol r17
 514 02c4 8A95      	2:	dec r24
 515 02c6 E2F7      		brpl 1b
 516 02c8 E091 0000 		lds r30,DFSPIRoutinePointer
 517 02cc F091 0000 		lds r31,(DFSPIRoutinePointer)+1
 518 02d0 802F      		mov r24,r16
 519 02d2 0995      		icall
 520               	.LM61:
 521 02d4 E091 0000 		lds r30,DFSPIRoutinePointer
 522 02d8 F091 0000 		lds r31,(DFSPIRoutinePointer)+1
 523 02dc 80E0      		ldi r24,lo8(0)
 524 02de 0995      		icall
 525               	.L35:
 526               	.LM62:
 527 02e0 0E94 0000 		call DF_GetChipCharacteristics
 528 02e4 8823      		tst r24
 529 02e6 E4F7      		brge .L35
 530               	/* epilogue: frame size=0 */
 531 02e8 1F91      		pop r17
 532 02ea 0F91      		pop r16
 533 02ec 0895      		ret
 534               	/* epilogue end (size=3) */
 535               	/* function DF_CopyBufferToFlashPage size 56 (51) */
 536               	.LFE16:
 538               	.global	DF_CheckCorrectOnboardChip
 540               	DF_CheckCorrectOnboardChip:
 541               	.LFB14:
 542               	.LM63:
 543               	/* prologue: frame size=0 */
 544               	/* prologue end (size=0) */
 545               	.LM64:
 546 02ee 0E94 0000 		call DF_GetChipCharacteristics
 547               	.LM65:
 548 02f2 8091 0000 		lds r24,DataflashInfo+3
 549 02f6 9091 0000 		lds r25,(DataflashInfo+3)+1
 550 02fa 8050      		subi r24,lo8(2048)
 551 02fc 9840      		sbci r25,hi8(2048)
 552 02fe 61F4      		brne .L39
 553               	.LM66:
 554 0300 8091 6400 		lds r24,100
 555 0304 8460      		ori r24,lo8(4)
 556 0306 8093 6400 		sts 100,r24
 557               	.LM67:
 558 030a 80E0      		ldi r24,lo8(DataFlashError)
 559 030c 90E0      		ldi r25,hi8(DataFlashError)
 560 030e 0E94 0000 		call MAIN_ShowError
 561               	.LM68:
 562 0312 80E0      		ldi r24,lo8(0)
 563 0314 90E0      		ldi r25,hi8(0)
 564 0316 0895      		ret
 565               	.L39:
 566               	.LM69:
 567 0318 81E0      		ldi r24,lo8(1)
 568 031a 90E0      		ldi r25,hi8(1)
 569               	.LM70:
 570 031c 0895      		ret
 571               	/* epilogue: frame size=0 */
 572               	/* epilogue: noreturn */
 573               	/* epilogue end (size=0) */
 574               	/* function DF_CheckCorrectOnboardChip size 25 (25) */
 575               	.LFE14:
 577               		.comm DataflashInfo,5,1
 578               		.comm CurrPageAddress,2,1
 579               		.comm CurrBuffByte,2,1
 580               		.comm UseExernalDF,1,1
 581               	.Letext0:
DEFINED SYMBOLS
                            *ABS*:00000000 Dataflash.c
C:\DOCUME~1\Dean\LOCALS~1\Temp/cc63aaaa.s:3      *ABS*:0000003f __SREG__
C:\DOCUME~1\Dean\LOCALS~1\Temp/cc63aaaa.s:4      *ABS*:0000003e __SP_H__
C:\DOCUME~1\Dean\LOCALS~1\Temp/cc63aaaa.s:5      *ABS*:0000003d __SP_L__
C:\DOCUME~1\Dean\LOCALS~1\Temp/cc63aaaa.s:6      *ABS*:00000000 __tmp_reg__
C:\DOCUME~1\Dean\LOCALS~1\Temp/cc63aaaa.s:7      *ABS*:00000001 __zero_reg__
C:\DOCUME~1\Dean\LOCALS~1\Temp/cc63aaaa.s:22     .data:00000000 DFSPIRoutinePointer
C:\DOCUME~1\Dean\LOCALS~1\Temp/cc63aaaa.s:28     .progmem.data:00000000 DataFlashError
C:\DOCUME~1\Dean\LOCALS~1\Temp/cc63aaaa.s:33     .progmem.data:00000010 DF_Pages
C:\DOCUME~1\Dean\LOCALS~1\Temp/cc63aaaa.s:45     .progmem.data:00000020 DF_PageSize
C:\DOCUME~1\Dean\LOCALS~1\Temp/cc63aaaa.s:57     .progmem.data:00000030 DF_PageBits
C:\DOCUME~1\Dean\LOCALS~1\Temp/cc63aaaa.s:69     .text:00000000 DF_EnableDataflash
                            *COM*:00000001 UseExernalDF
C:\DOCUME~1\Dean\LOCALS~1\Temp/cc63aaaa.s:109    .text:00000024 DF_ReadBufferByte
C:\DOCUME~1\Dean\LOCALS~1\Temp/cc63aaaa.s:160    .text:0000007c DF_ContinuousReadEnable
C:\DOCUME~1\Dean\LOCALS~1\Temp/cc63aaaa.s:236    .text:00000100 DF_BufferWriteEnable
C:\DOCUME~1\Dean\LOCALS~1\Temp/cc63aaaa.s:280    .text:0000014a DF_GetChipCharacteristics
                            *COM*:00000005 DataflashInfo
C:\DOCUME~1\Dean\LOCALS~1\Temp/cc63aaaa.s:369    .text:000001c8 DF_EraseBlock
C:\DOCUME~1\Dean\LOCALS~1\Temp/cc63aaaa.s:418    .text:0000021a DF_CopyFlashPageToBuffer
C:\DOCUME~1\Dean\LOCALS~1\Temp/cc63aaaa.s:479    .text:00000284 DF_CopyBufferToFlashPage
C:\DOCUME~1\Dean\LOCALS~1\Temp/cc63aaaa.s:540    .text:000002ee DF_CheckCorrectOnboardChip
                            *COM*:00000002 CurrPageAddress
                            *COM*:00000002 CurrBuffByte

UNDEFINED SYMBOLS
__do_copy_data
__do_clear_bss
SPI_SPITransmit
MAIN_ResetCSLine
MAIN_ShowError
