   1               		.file	"ISPChipComm.c"
   2               		.arch atmega169
   3               	__SREG__ = 0x3f
   4               	__SP_H__ = 0x3e
   5               	__SP_L__ = 0x3d
   6               	__tmp_reg__ = 0
   7               	__zero_reg__ = 1
   8               		.global __do_copy_data
   9               		.global __do_clear_bss
  17               	.Ltext0:
  18               	.global	ISPCC_PollForProgComplete
  20               	ISPCC_PollForProgComplete:
  21               	.LFB16:
  22               	.LM1:
  23               	/* prologue: frame size=0 */
  24 0000 1F93      		push r17
  25 0002 CF93      		push r28
  26 0004 DF93      		push r29
  27               	/* prologue end (size=3) */
  28               	.LVL0:
  29 0006 EB01      		movw r28,r22
  30               	.LM2:
  31 0008 9927      		clr r25
  32               	.LVL1:
  33 000a 80FF      		sbrs r24,0
  34 000c 00C0      		rjmp .L2
  35               	.LVL2:
  36               	.LM3:
  37 000e 8077      		andi r24,lo8(112)
  38 0010 9070      		andi r25,hi8(112)
  39 0012 34E0      		ldi r19,4
  40 0014 9595      	1:	asr r25
  41 0016 8795      		ror r24
  42 0018 3A95      		dec r19
  43 001a 01F4      		brne 1b
  44 001c 00C0      		rjmp .L4
  45               	.L2:
  46               	.LM4:
  47 001e 8E70      		andi r24,lo8(14)
  48 0020 9070      		andi r25,hi8(14)
  49 0022 9595      		asr r25
  50 0024 8795      		ror r24
  51               	.L4:
  52               	.LVL3:
  53               	.LM5:
  54 0026 9927      		clr r25
  55               	.LVL4:
  56 0028 8770      		andi r24,lo8(7)
  57 002a 9070      		andi r25,hi8(7)
  58 002c 8230      		cpi r24,2
  59 002e 9105      		cpc r25,__zero_reg__
  60 0030 01F0      		breq .L6
  61 0032 0497      		sbiw r24,4
  62 0034 01F4      		brne .L19
  63 0036 00C0      		rjmp .L15
  64               	.L6:
  65               	.LM6:
  66 0038 1091 0000 		lds r17,PacketBytes+7
  67               	.LVL5:
  68               	.LM7:
  69 003c 8091 0000 		lds r24,PacketBytes
  70 0040 8331      		cpi r24,lo8(19)
  71 0042 01F4      		brne .L16
  72               	.LM8:
  73 0044 C0FF      		sbrs r28,0
  74 0046 00C0      		rjmp .L10
  75 0048 88E0      		ldi r24,lo8(8)
  76 004a 00C0      		rjmp .L12
  77               	.L10:
  78 004c 80E0      		ldi r24,lo8(0)
  79               	.L12:
  80 004e 182B      		or r17,r24
  81               	.LM9:
  82 0050 D695      		lsr r29
  83 0052 C795      		ror r28
  84               	.L16:
  85               	.LM10:
  86 0054 812F      		mov r24,r17
  87 0056 0E94 0000 		call USI_SPITransmit
  88               	.LM11:
  89 005a CE01      		movw r24,r28
  90 005c 0E94 0000 		call USI_SPITransmitWord
  91               	.LM12:
  92 0060 80E0      		ldi r24,lo8(0)
  93 0062 0E94 0000 		call USI_SPITransmit
  94 0066 9091 0000 		lds r25,PacketBytes+8
  95 006a 8917      		cp r24,r25
  96 006c 01F4      		brne .L14
  97 006e 00C0      		rjmp .L16
  98               	.LVL6:
  99               	.L15:
 100               	.LM13:
 101 0070 80E0      		ldi r24,lo8(-4096)
 102 0072 90EF      		ldi r25,hi8(-4096)
 103 0074 0E94 0000 		call USI_SPITransmitWord
 104               	.LM14:
 105 0078 80E0      		ldi r24,lo8(0)
 106 007a 90E0      		ldi r25,hi8(0)
 107 007c 0E94 0000 		call USI_SPITransmitWord
 108 0080 80FF      		sbrs r24,0
 109 0082 00C0      		rjmp .L14
 110 0084 00C0      		rjmp .L15
 111               	.LVL7:
 112               	.L19:
 113               	.LM15:
 114 0086 8091 0000 		lds r24,PacketBytes+4
 115 008a 0E94 0000 		call MAIN_Delay1MS
 116               	.LVL8:
 117               	.L14:
 118               	/* epilogue: frame size=0 */
 119 008e DF91      		pop r29
 120 0090 CF91      		pop r28
 121 0092 1F91      		pop r17
 122 0094 0895      		ret
 123               	/* epilogue end (size=4) */
 124               	/* function ISPCC_PollForProgComplete size 76 (69) */
 125               	.LFE16:
 127               	.global	ISPCC_ProgramChip
 129               	ISPCC_ProgramChip:
 130               	.LFB15:
 131               	.LM16:
 132               	/* prologue: frame size=0 */
 133 0096 4F92      		push r4
 134 0098 5F92      		push r5
 135 009a 6F92      		push r6
 136 009c 7F92      		push r7
 137 009e 8F92      		push r8
 138 00a0 9F92      		push r9
 139 00a2 AF92      		push r10
 140 00a4 BF92      		push r11
 141 00a6 CF92      		push r12
 142 00a8 DF92      		push r13
 143 00aa EF92      		push r14
 144 00ac FF92      		push r15
 145 00ae 0F93      		push r16
 146 00b0 1F93      		push r17
 147 00b2 CF93      		push r28
 148 00b4 DF93      		push r29
 149               	/* prologue end (size=16) */
 150               	.LM17:
 151 00b6 D090 0000 		lds r13,PacketBytes+3
 152               	.LVL9:
 153               	.LM18:
 154 00ba C090 0000 		lds r12,PacketBytes+5
 155               	.LVL10:
 156               	.LM19:
 157 00be 4090 0000 		lds r4,CurrAddress
 158 00c2 5090 0000 		lds r5,(CurrAddress)+1
 159 00c6 6090 0000 		lds r6,(CurrAddress)+2
 160 00ca 7090 0000 		lds r7,(CurrAddress)+3
 161               	.LM20:
 162 00ce 8091 0000 		lds r24,PacketBytes+1
 163 00d2 9927      		clr r25
 164 00d4 B82E      		mov r11,r24
 165 00d6 AA24      		clr r10
 166               	.LVL11:
 167 00d8 8091 0000 		lds r24,PacketBytes+2
 168 00dc 9927      		clr r25
 169 00de A82A      		or r10,r24
 170 00e0 B92A      		or r11,r25
 171               	.LM21:
 172 00e2 D0FC      		sbrc r13,0
 173 00e4 00C0      		rjmp .L21
 174               	.LM22:
 175 00e6 C0E0      		ldi r28,lo8(0)
 176 00e8 D0E0      		ldi r29,hi8(0)
 177               	.LVL12:
 178 00ea EE24      		clr r14
 179 00ec FF24      		clr r15
 180               	.LVL13:
 181 00ee 70E0      		ldi r23,lo8(PacketBytes+10)
 182 00f0 872E      		mov r8,r23
 183 00f2 70E0      		ldi r23,hi8(PacketBytes+10)
 184 00f4 972E      		mov r9,r23
 185 00f6 00C0      		rjmp .L23
 186               	.LVL14:
 187               	.L21:
 188 00f8 C0E0      		ldi r28,lo8(0)
 189 00fa D0E0      		ldi r29,hi8(0)
 190               	.LVL15:
 191 00fc 00E0      		ldi r16,lo8(0)
 192 00fe 10E0      		ldi r17,hi8(0)
 193               	.LVL16:
 194 0100 60E0      		ldi r22,lo8(PacketBytes+10)
 195 0102 862E      		mov r8,r22
 196 0104 60E0      		ldi r22,hi8(PacketBytes+10)
 197 0106 962E      		mov r9,r22
 198 0108 00C0      		rjmp .L24
 199               	.LVL17:
 200               	.L25:
 201               	.LBB2:
 202               	.LM23:
 203 010a F401      		movw r30,r8
 204 010c F080      		ld r15,Z
 205               	.LM24:
 206 010e 8091 0000 		lds r24,PacketBytes
 207 0112 8331      		cpi r24,lo8(19)
 208 0114 01F4      		brne .L26
 209               	.LM25:
 210 0116 00FF      		sbrs r16,0
 211 0118 00C0      		rjmp .L28
 212 011a 88E0      		ldi r24,lo8(8)
 213 011c 00C0      		rjmp .L30
 214               	.L28:
 215 011e 80E0      		ldi r24,lo8(0)
 216               	.L30:
 217 0120 8C29      		or r24,r12
 218 0122 00C0      		rjmp .L66
 219               	.L26:
 220               	.LM26:
 221 0124 8C2D      		mov r24,r12
 222               	.L66:
 223 0126 0E94 0000 		call USI_SPITransmit
 224               	.LM27:
 225 012a 8091 0000 		lds r24,CurrAddress
 226 012e 9091 0000 		lds r25,(CurrAddress)+1
 227 0132 0E94 0000 		call USI_SPITransmitWord
 228               	.LM28:
 229 0136 8F2D      		mov r24,r15
 230 0138 0E94 0000 		call USI_SPITransmit
 231               	.LM29:
 232 013c 2097      		sbiw r28,0
 233 013e 01F4      		brne .L32
 234               	.LM30:
 235 0140 8091 0000 		lds r24,PacketBytes+8
 236 0144 8F15      		cp r24,r15
 237 0146 01F0      		breq .L32
 238 0148 8091 0000 		lds r24,PacketBytes
 239 014c 8331      		cpi r24,lo8(19)
 240 014e 01F0      		breq .L35
 241 0150 8531      		cpi r24,lo8(21)
 242 0152 01F4      		brne .L32
 243 0154 8091 0000 		lds r24,PacketBytes+9
 244 0158 8F15      		cp r24,r15
 245 015a 01F0      		breq .+2
 246 015c 00C0      		rjmp .L38
 247 015e 00C0      		rjmp .L32
 248               	.L35:
 249               	.LM31:
 250 0160 C091 0000 		lds r28,CurrAddress
 251 0164 D091 0000 		lds r29,(CurrAddress)+1
 252 0168 CC0F      		lsl r28
 253 016a DD1F      		rol r29
 254 016c C801      		movw r24,r16
 255 016e 8170      		andi r24,lo8(1)
 256 0170 9070      		andi r25,hi8(1)
 257 0172 C80F      		add r28,r24
 258 0174 D91F      		adc r29,r25
 259               	.L32:
 260               	.LM32:
 261 0176 00FD      		sbrc r16,0
 262 0178 00C0      		rjmp .L39
 263 017a 8091 0000 		lds r24,PacketBytes
 264 017e 8531      		cpi r24,lo8(21)
 265 0180 01F4      		brne .L41
 266               	.L39:
 267               	.LM33:
 268 0182 0E94 0000 		call V2P_IncrementCurrAddress
 269               	.L41:
 270               	.LM34:
 271 0186 0F5F      		subi r16,lo8(-(1))
 272 0188 1F4F      		sbci r17,hi8(-(1))
 273 018a 0894      		sec
 274 018c 811C      		adc r8,__zero_reg__
 275 018e 911C      		adc r9,__zero_reg__
 276               	.L24:
 277 0190 0A15      		cp r16,r10
 278 0192 1B05      		cpc r17,r11
 279 0194 01F0      		breq .+2
 280 0196 00C0      		rjmp .L25
 281               	.LBE2:
 282               	.LM35:
 283 0198 D7FE      		sbrs r13,7
 284 019a 00C0      		rjmp .L65
 285               	.LM36:
 286 019c 8091 0000 		lds r24,PacketBytes+6
 287 01a0 0E94 0000 		call USI_SPITransmit
 288               	.LM37:
 289 01a4 C201      		movw r24,r4
 290 01a6 0E94 0000 		call USI_SPITransmitWord
 291               	.LM38:
 292 01aa 80E0      		ldi r24,lo8(0)
 293 01ac 0E94 0000 		call USI_SPITransmit
 294               	.LM39:
 295 01b0 2097      		sbiw r28,0
 296 01b2 01F0      		breq .L45
 297 01b4 8D2D      		mov r24,r13
 298               	.LVL18:
 299 01b6 00C0      		rjmp .L47
 300               	.LVL19:
 301               	.L45:
 302               	.LM40:
 303 01b8 8D2D      		mov r24,r13
 304               	.LVL20:
 305 01ba 8F78      		andi r24,lo8(-113)
 306 01bc 8061      		ori r24,lo8(16)
 307               	.L47:
 308               	.LM41:
 309 01be BE01      		movw r22,r28
 310 01c0 0E94 0000 		call ISPCC_PollForProgComplete
 311               	.LVL21:
 312 01c4 00C0      		rjmp .L65
 313               	.LVL22:
 314               	.L48:
 315               	.LBB3:
 316               	.LM42:
 317 01c6 F401      		movw r30,r8
 318 01c8 1081      		ld r17,Z
 319               	.LVL23:
 320               	.LM43:
 321 01ca 8091 0000 		lds r24,PacketBytes
 322 01ce 8331      		cpi r24,lo8(19)
 323 01d0 01F4      		brne .L49
 324               	.LM44:
 325 01d2 E0FE      		sbrs r14,0
 326 01d4 00C0      		rjmp .L51
 327 01d6 88E0      		ldi r24,lo8(8)
 328 01d8 00C0      		rjmp .L53
 329               	.L51:
 330 01da 80E0      		ldi r24,lo8(0)
 331               	.L53:
 332 01dc 8C29      		or r24,r12
 333 01de 00C0      		rjmp .L67
 334               	.L49:
 335               	.LM45:
 336 01e0 8C2D      		mov r24,r12
 337               	.L67:
 338 01e2 0E94 0000 		call USI_SPITransmit
 339               	.LM46:
 340 01e6 8091 0000 		lds r24,CurrAddress
 341 01ea 9091 0000 		lds r25,(CurrAddress)+1
 342 01ee 0E94 0000 		call USI_SPITransmitWord
 343               	.LM47:
 344 01f2 812F      		mov r24,r17
 345 01f4 0E94 0000 		call USI_SPITransmit
 346               	.LM48:
 347 01f8 8091 0000 		lds r24,PacketBytes+8
 348 01fc 8117      		cp r24,r17
 349 01fe 01F0      		breq .L55
 350 0200 8091 0000 		lds r24,PacketBytes
 351 0204 8331      		cpi r24,lo8(19)
 352 0206 01F0      		breq .L57
 353 0208 8531      		cpi r24,lo8(21)
 354 020a 01F4      		brne .L55
 355 020c 8091 0000 		lds r24,PacketBytes+9
 356 0210 8117      		cp r24,r17
 357 0212 01F4      		brne .L60
 358 0214 00C0      		rjmp .L55
 359               	.L57:
 360               	.LM49:
 361 0216 C091 0000 		lds r28,CurrAddress
 362 021a D091 0000 		lds r29,(CurrAddress)+1
 363 021e CC0F      		lsl r28
 364 0220 DD1F      		rol r29
 365 0222 C701      		movw r24,r14
 366 0224 8170      		andi r24,lo8(1)
 367 0226 9070      		andi r25,hi8(1)
 368 0228 C80F      		add r28,r24
 369 022a D91F      		adc r29,r25
 370 022c 00C0      		rjmp .L68
 371               	.L55:
 372               	.LM50:
 373 022e 1D2D      		mov r17,r13
 374               	.LVL24:
 375 0230 117F      		andi r17,lo8(-15)
 376 0232 1260      		ori r17,lo8(2)
 377               	.L61:
 378               	.LM51:
 379 0234 E0FC      		sbrc r14,0
 380 0236 00C0      		rjmp .L62
 381 0238 8091 0000 		lds r24,PacketBytes
 382 023c 8531      		cpi r24,lo8(21)
 383 023e 01F4      		brne .L64
 384               	.L62:
 385               	.LM52:
 386 0240 0E94 0000 		call V2P_IncrementCurrAddress
 387               	.L64:
 388               	.LM53:
 389 0244 BE01      		movw r22,r28
 390 0246 812F      		mov r24,r17
 391 0248 0E94 0000 		call ISPCC_PollForProgComplete
 392               	.LM54:
 393 024c 0894      		sec
 394 024e E11C      		adc r14,__zero_reg__
 395 0250 F11C      		adc r15,__zero_reg__
 396 0252 0894      		sec
 397 0254 811C      		adc r8,__zero_reg__
 398 0256 911C      		adc r9,__zero_reg__
 399               	.L23:
 400 0258 EA14      		cp r14,r10
 401 025a FB04      		cpc r15,r11
 402 025c 01F0      		breq .+2
 403 025e 00C0      		rjmp .L48
 404 0260 00C0      		rjmp .L65
 405               	.LVL25:
 406               	.L38:
 407               	.LBE3:
 408               	.LBB4:
 409               	.LM55:
 410 0262 C091 0000 		lds r28,CurrAddress
 411 0266 D091 0000 		lds r29,(CurrAddress)+1
 412 026a 00C0      		rjmp .L32
 413               	.LVL26:
 414               	.L60:
 415               	.LBE4:
 416               	.LBB5:
 417               	.LM56:
 418 026c C091 0000 		lds r28,CurrAddress
 419 0270 D091 0000 		lds r29,(CurrAddress)+1
 420               	.L68:
 421 0274 1D2D      		mov r17,r13
 422               	.LVL27:
 423 0276 00C0      		rjmp .L61
 424               	.LVL28:
 425               	.L65:
 426               	.LBE5:
 427               	/* epilogue: frame size=0 */
 428 0278 DF91      		pop r29
 429 027a CF91      		pop r28
 430 027c 1F91      		pop r17
 431 027e 0F91      		pop r16
 432 0280 FF90      		pop r15
 433 0282 EF90      		pop r14
 434 0284 DF90      		pop r13
 435 0286 CF90      		pop r12
 436 0288 BF90      		pop r11
 437 028a AF90      		pop r10
 438 028c 9F90      		pop r9
 439 028e 8F90      		pop r8
 440 0290 7F90      		pop r7
 441 0292 6F90      		pop r6
 442 0294 5F90      		pop r5
 443 0296 4F90      		pop r4
 444 0298 0895      		ret
 445               	/* epilogue end (size=17) */
 446               	/* function ISPCC_ProgramChip size 258 (225) */
 447               	.LFE15:
 449               	.global	ISPCC_EnterChipProgrammingMode
 451               	ISPCC_EnterChipProgrammingMode:
 452               	.LFB14:
 453               	.LM57:
 454               	/* prologue: frame size=0 */
 455 029a FF92      		push r15
 456 029c 0F93      		push r16
 457 029e 1F93      		push r17
 458               	/* prologue end (size=3) */
 459               	.LM58:
 460 02a0 0091 0000 		lds r16,PacketBytes+5
 461               	.LVL29:
 462               	.LM59:
 463 02a4 1091 0000 		lds r17,PacketBytes+4
 464               	.LVL30:
 465               	.LM60:
 466 02a8 81B3      		in r24,49-0x20
 467 02aa 8F7C      		andi r24,lo8(-49)
 468 02ac 8063      		ori r24,lo8(48)
 469 02ae 81BB      		out 49-0x20,r24
 470               	.LM61:
 471 02b0 8091 0000 		lds r24,PacketBytes+2
 472 02b4 0E94 0000 		call MAIN_Delay1MS
 473               	.LM62:
 474 02b8 812F      		mov r24,r17
 475 02ba 8150      		subi r24,lo8(-(-1))
 476 02bc 8436      		cpi r24,lo8(100)
 477 02be 00F4      		brsh .+2
 478 02c0 00C0      		rjmp .L82
 479               	.LM63:
 480 02c2 18E1      		ldi r17,lo8(24)
 481 02c4 00C0      		rjmp .L82
 482               	.LVL31:
 483               	.L72:
 484               	.LM64:
 485 02c6 8091 0000 		lds r24,PacketBytes+8
 486 02ca 0E94 0000 		call USI_SPITransmit
 487               	.LM65:
 488 02ce 802F      		mov r24,r16
 489 02d0 0E94 0000 		call MAIN_Delay1MS
 490               	.LM66:
 491 02d4 8091 0000 		lds r24,PacketBytes+9
 492 02d8 0E94 0000 		call USI_SPITransmit
 493               	.LM67:
 494 02dc 802F      		mov r24,r16
 495 02de 0E94 0000 		call MAIN_Delay1MS
 496               	.LM68:
 497 02e2 8091 0000 		lds r24,PacketBytes+10
 498 02e6 0E94 0000 		call USI_SPITransmit
 499 02ea F82E      		mov r15,r24
 500               	.LM69:
 501 02ec 802F      		mov r24,r16
 502 02ee 0E94 0000 		call MAIN_Delay1MS
 503               	.LM70:
 504 02f2 8091 0000 		lds r24,PacketBytes+7
 505 02f6 8330      		cpi r24,lo8(3)
 506 02f8 01F4      		brne .L73
 507               	.LM71:
 508 02fa 8091 0000 		lds r24,PacketBytes+11
 509 02fe 0E94 0000 		call USI_SPITransmit
 510 0302 00C0      		rjmp .L75
 511               	.L73:
 512               	.LM72:
 513 0304 8091 0000 		lds r24,PacketBytes+11
 514 0308 0E94 0000 		call USI_SPITransmit
 515 030c F82E      		mov r15,r24
 516               	.L75:
 517               	.LM73:
 518 030e 8091 0000 		lds r24,PacketBytes+7
 519 0312 8823      		tst r24
 520 0314 01F0      		breq .L76
 521 0316 8091 0000 		lds r24,PacketBytes+6
 522 031a F816      		cp r15,r24
 523 031c 01F4      		brne .L78
 524               	.L76:
 525               	.LM74:
 526 031e 802F      		mov r24,r16
 527 0320 0E94 0000 		call MAIN_Delay1MS
 528               	.LM75:
 529 0324 81E0      		ldi r24,lo8(1)
 530 0326 8093 0000 		sts InProgrammingMode,r24
 531               	.LM76:
 532 032a 81B3      		in r24,49-0x20
 533 032c 8F7C      		andi r24,lo8(-49)
 534 032e 8062      		ori r24,lo8(32)
 535 0330 81BB      		out 49-0x20,r24
 536               	.LM77:
 537 0332 1092 0000 		sts PacketBytes+1,__zero_reg__
 538 0336 00C0      		rjmp .L81
 539               	.L78:
 540               	.LM78:
 541 0338 802F      		mov r24,r16
 542 033a 0E94 0000 		call MAIN_Delay1MS
 543               	.LM79:
 544 033e 0E94 0000 		call USI_SPIToggleClock
 545               	.L82:
 546               	.LM80:
 547 0342 1150      		subi r17,1
 548 0344 00F4      		brcc .L72
 549               	.LM81:
 550 0346 81B3      		in r24,49-0x20
 551 0348 8F7C      		andi r24,lo8(-49)
 552 034a 8061      		ori r24,lo8(16)
 553 034c 81BB      		out 49-0x20,r24
 554               	.LM82:
 555 034e 80EC      		ldi r24,lo8(-64)
 556 0350 8093 0000 		sts PacketBytes+1,r24
 557               	.L81:
 558               	/* epilogue: frame size=0 */
 559 0354 1F91      		pop r17
 560 0356 0F91      		pop r16
 561 0358 FF90      		pop r15
 562 035a 0895      		ret
 563               	/* epilogue end (size=4) */
 564               	/* function ISPCC_EnterChipProgrammingMode size 99 (92) */
 565               	.LFE14:
 567               	.global	SyncErrorMessage
 568               		.section	.progmem.data,"a",@progbits
 571               	SyncErrorMessage:
 572 0000 5359 4E43 		.string	"SYNC ERROR"
 572      2045 5252 
 572      4F52 00
 609               	.Letext0:
DEFINED SYMBOLS
                            *ABS*:00000000 ISPChipComm.c
C:\DOCUME~1\Dean\LOCALS~1\Temp/ccs3aaaa.s:3      *ABS*:0000003f __SREG__
C:\DOCUME~1\Dean\LOCALS~1\Temp/ccs3aaaa.s:4      *ABS*:0000003e __SP_H__
C:\DOCUME~1\Dean\LOCALS~1\Temp/ccs3aaaa.s:5      *ABS*:0000003d __SP_L__
C:\DOCUME~1\Dean\LOCALS~1\Temp/ccs3aaaa.s:6      *ABS*:00000000 __tmp_reg__
C:\DOCUME~1\Dean\LOCALS~1\Temp/ccs3aaaa.s:7      *ABS*:00000001 __zero_reg__
C:\DOCUME~1\Dean\LOCALS~1\Temp/ccs3aaaa.s:20     .text:00000000 ISPCC_PollForProgComplete
C:\DOCUME~1\Dean\LOCALS~1\Temp/ccs3aaaa.s:129    .text:00000096 ISPCC_ProgramChip
C:\DOCUME~1\Dean\LOCALS~1\Temp/ccs3aaaa.s:451    .text:0000029a ISPCC_EnterChipProgrammingMode
C:\DOCUME~1\Dean\LOCALS~1\Temp/ccs3aaaa.s:571    .progmem.data:00000000 SyncErrorMessage

UNDEFINED SYMBOLS
__do_copy_data
__do_clear_bss
PacketBytes
USI_SPITransmit
USI_SPITransmitWord
MAIN_Delay1MS
CurrAddress
V2P_IncrementCurrAddress
InProgrammingMode
USI_SPIToggleClock
