   1               		.file	"Main.c"
   2               		.arch atmega169
   3               	__SREG__ = 0x3f
   4               	__SP_H__ = 0x3e
   5               	__SP_L__ = 0x3d
   6               	__tmp_reg__ = 0
   7               	__zero_reg__ = 1
   8               		.global __do_copy_data
   9               		.global __do_clear_bss
  17               	.Ltext0:
  18               	.global	SIFOOptionPtrs
  19               		.section	.progmem.data,"a",@progbits
  22               	SIFOOptionPtrs:
  23 0000 0000      		.word	SIFO_Size
  24 0002 0000      		.word	SIFO_Tags
  25               	.global	SIFO_Tags
  28               	SIFO_Tags:
  29 0004 5649 4557 		.string	"VIEW DATA TAGS"
  29      2044 4154 
  29      4120 5441 
  29      4753 00
  30               	.global	SIFO_Size
  33               	SIFO_Size:
  34 0013 5354 4F52 		.string	"STORAGE SIZES"
  34      4147 4520 
  34      5349 5A45 
  34      5300 
  35               	.global	USIPSNamePtrs
  38               	USIPSNamePtrs:
  39 0021 0000      		.word	USI_Speed0
  40 0023 0000      		.word	USI_Speed1
  41 0025 0000      		.word	USI_Speed2
  42 0027 0000      		.word	USI_Speed3
  43               	.global	USI_Speed3
  46               	USI_Speed3:
  47 0029 3231 3036 		.string	"210651 HZ"
  47      3531 2048 
  47      5A00 
  48               	.global	USI_Speed2
  51               	USI_Speed2:
  52 0033 3131 3334 		.string	"113427 HZ"
  52      3237 2048 
  52      5A00 
  53               	.global	USI_Speed1
  56               	USI_Speed1:
  57 003d 2038 3637 		.string	" 86738 HZ"
  57      3338 2048 
  57      5A00 
  58               	.global	USI_Speed0
  61               	USI_Speed0:
  62 0047 2035 3731 		.string	" 57153 HZ"
  62      3533 2048 
  62      5A00 
  63               	.global	ProgOptions
  66               	ProgOptions:
  67 0051 0000      		.word	PRG_D
  68 0053 0000      		.word	PRG_E
  69 0055 0000      		.word	PRG_DE
  70 0057 0000      		.word	PRG_F
  71 0059 0000      		.word	PRG_L
  72 005b 0000      		.word	PRG_FL
  73 005d 0000      		.word	PRG_C
  74               	.global	PRG_C
  77               	PRG_C:
  78 005f 4552 4153 		.string	"ERASE ONLY"
  78      4520 4F4E 
  78      4C59 00
  79               	.global	PRG_FL
  82               	PRG_FL:
  83 006a 4655 5345 		.string	"FUSE AND LOCK BYTES"
  83      2041 4E44 
  83      204C 4F43 
  83      4B20 4259 
  83      5445 5300 
  84               	.global	PRG_L
  87               	PRG_L:
  88 007e 4C4F 434B 		.string	"LOCK BYTES ONLY"
  88      2042 5954 
  88      4553 204F 
  88      4E4C 5900 
  89               	.global	PRG_F
  92               	PRG_F:
  93 008e 4655 5345 		.string	"FUSE BYTES ONLY"
  93      2042 5954 
  93      4553 204F 
  93      4E4C 5900 
  94               	.global	PRG_DE
  97               	PRG_DE:
  98 009e 4441 5441 		.string	"DATA AND EEPROM"
  98      2041 4E44 
  98      2045 4550 
  98      524F 4D00 
  99               	.global	PRG_E
 102               	PRG_E:
 103 00ae 4545 5052 		.string	"EEPROM ONLY"
 103      4F4D 204F 
 103      4E4C 5900 
 104               	.global	PRG_D
 107               	PRG_D:
 108 00ba 4441 5441 		.string	"DATA ONLY"
 108      204F 4E4C 
 108      5900 
 109               	.global	SettingFunctionPtrs
 112               	SettingFunctionPtrs:
 113 00c4 0000      		.word	pm(FUNCSetContrast)
 114 00c6 0000      		.word	pm(FUNCSetISPSpeed)
 115 00c8 0000      		.word	pm(FUNCClearMem)
 116 00ca 0000      		.word	pm(FUNCGoBootloader)
 117               	.global	SettingFunctionNames
 120               	SettingFunctionNames:
 121 00cc 0000      		.word	SFunc_SETCONTRAST
 122 00ce 0000      		.word	SFunc_SETSPISPEED
 123 00d0 0000      		.word	SFunc_CLEARMEM
 124 00d2 0000      		.word	SFunc_GOBOOTLOADER
 125               	.global	SFunc_GOBOOTLOADER
 128               	SFunc_GOBOOTLOADER:
 129 00d4 4A55 4D50 		.string	"JUMP TO BOOTLOADER"
 129      2054 4F20 
 129      424F 4F54 
 129      4C4F 4144 
 129      4552 00
 130               	.global	SFunc_CLEARMEM
 133               	SFunc_CLEARMEM:
 134 00e7 434C 4541 		.string	"CLEAR MEMORY"
 134      5220 4D45 
 134      4D4F 5259 
 134      00
 135               	.global	SFunc_SETSPISPEED
 138               	SFunc_SETSPISPEED:
 139 00f4 5345 5420 		.string	"SET SPI SPEED"
 139      5350 4920 
 139      5350 4545 
 139      4400 
 140               	.global	SFunc_SETCONTRAST
 143               	SFunc_SETCONTRAST:
 144 0102 5345 5420 		.string	"SET CONTRAST"
 144      434F 4E54 
 144      5241 5354 
 144      00
 145               	.global	MainFunctionPtrs
 148               	MainFunctionPtrs:
 149 010f 0000      		.word	pm(FUNCAVRISPMode)
 150 0111 0000      		.word	pm(FUNCStoreProgram)
 151 0113 0000      		.word	pm(FUNCProgramAVR)
 152 0115 0000      		.word	pm(FUNCProgramDataflash)
 153 0117 0000      		.word	pm(FUNCStorageInfo)
 154 0119 0000      		.word	pm(FUNCChangeSettings)
 155 011b 0000      		.word	pm(FUNCSleepMode)
 156               	.global	MainFunctionNames
 159               	MainFunctionNames:
 160 011d 0000      		.word	Func_ISPPRGM
 161 011f 0000      		.word	Func_STOREPRGM
 162 0121 0000      		.word	Func_PRGMAVR
 163 0123 0000      		.word	Func_PRGMDATAFLASH
 164 0125 0000      		.word	Func_PRGMSTOREINFO
 165 0127 0000      		.word	Func_SETTINGS
 166 0129 0000      		.word	Func_SLEEP
 167               	.global	Func_SLEEP
 170               	Func_SLEEP:
 171 012b 534C 4545 		.string	"SLEEP MODE"
 171      5020 4D4F 
 171      4445 00
 172               	.global	Func_SETTINGS
 175               	Func_SETTINGS:
 176 0136 5345 5454 		.string	"SETTINGS"
 176      494E 4753 
 176      00
 177               	.global	Func_PRGMSTOREINFO
 180               	Func_PRGMSTOREINFO:
 181 013f 4441 5441 		.string	"DATASTORE INFO"
 181      5354 4F52 
 181      4520 494E 
 181      464F 00
 182               	.global	Func_PRGMDATAFLASH
 185               	Func_PRGMDATAFLASH:
 186 014e 4441 5441 		.string	"DATAFLASH PRGM MODE"
 186      464C 4153 
 186      4820 5052 
 186      474D 204D 
 186      4F44 4500 
 187               	.global	Func_PRGMAVR
 190               	Func_PRGMAVR:
 191 0162 5052 4F47 		.string	"PROGRAM AVR"
 191      5241 4D20 
 191      4156 5200 
 192               	.global	Func_STOREPRGM
 195               	Func_STOREPRGM:
 196 016e 5354 4F52 		.string	"STORE PRGM"
 196      4520 5052 
 196      474D 00
 197               	.global	Func_ISPPRGM
 200               	Func_ISPPRGM:
 201 0179 4156 5249 		.string	"AVRISP MODE"
 201      5350 204D 
 201      4F44 4500 
 202               	.global	AboutTextPtrs
 205               	AboutTextPtrs:
 206 0185 0000      		.word	ProgrammerName
 207 0187 0000      		.word	VersionInfo
 208 0189 0000      		.word	AuthorName
 209 018b 0000      		.word	CopyRight
 210               	.global	CopyRight
 213               	CopyRight:
 214 018d 3C43 3E20 		.string	"<C> 2006 - GPL"
 214      3230 3036 
 214      202D 2047 
 214      504C 00
 215               	.global	AuthorName
 218               	AuthorName:
 219 019c 4259 2044 		.string	"BY DEAN CAMERA"
 219      4541 4E20 
 219      4341 4D45 
 219      5241 00
 220               	.global	VersionInfo
 223               	VersionInfo:
 224 01ab 56        		.byte	86
 225 01ac 31        		.byte	49
 226 01ad 2D        		.byte	45
 227 01ae 33        		.byte	51
 228 01af 00        		.byte	0
 229               	.global	ProgrammerName
 232               	ProgrammerName:
 233 01b0 4255 5454 		.string	"BUTTLOAD"
 233      4C4F 4144 
 233      00
 234               	.global	WaitText
 237               	WaitText:
 238 01b9 2A57 4149 		.string	"*WAIT*"
 238      542A 00
 239               	.global	BUTTTAG_Author
 242               	BUTTTAG_Author:
 243 01c0 40        		.byte	64
 244 01c1 28        		.byte	40
 245 01c2 23        		.byte	35
 246 01c3 29        		.byte	41
 247 01c4 4259 2044 		.string	"BY DEAN CAMERA"
 247      4541 4E20 
 247      4341 4D45 
 247      5241 00
 248               	.global	BUTTTAG_Name
 251               	BUTTTAG_Name:
 252 01d3 40        		.byte	64
 253 01d4 28        		.byte	40
 254 01d5 23        		.byte	35
 255 01d6 29        		.byte	41
 256 01d7 4255 5454 		.string	"BUTTLOAD AVRISP"
 256      4C4F 4144 
 256      2041 5652 
 256      4953 5000 
 257               		.text
 258               	.global	MAIN_Delay10MS
 260               	MAIN_Delay10MS:
 261               	.LFB15:
 262               	.LM1:
 263               	/* prologue: frame size=0 */
 264 0000 CF93      		push r28
 265 0002 DF93      		push r29
 266               	/* prologue end (size=2) */
 267               	.LM2:
 268 0004 282F      		mov r18,r24
 269 0006 2150      		subi r18,lo8(-(-1))
 270 0008 2F3F      		cpi r18,lo8(-1)
 271 000a 49F0      		breq .L14
 272 000c A0E0      		ldi r26,lo8(18432)
 273 000e B8E4      		ldi r27,hi8(18432)
 274 0010 C0E0      		ldi r28,hlo8(18432)
 275 0012 D0E0      		ldi r29,hhi8(18432)
 276               	.L12:
 277               	.LBB2:
 278               	.LBB3:
 279               	.LBB4:
 280               	.LBB5:
 281               	.LM3:
 282 0014 CD01      		movw r24,r26
 283               	/* #APP */
 284 0016 0197      		1: sbiw r24,1
 285 0018 F1F7      		brne 1b
 286               	/* #NOAPP */
 287               	.LBE5:
 288               	.LBE4:
 289               	.LBE3:
 290               	.LBE2:
 291 001a 2150      		subi r18,1
 292 001c D8F7      		brcc .L12
 293               	.L14:
 294               	/* epilogue: frame size=0 */
 295 001e DF91      		pop r29
 296 0020 CF91      		pop r28
 297 0022 0895      		ret
 298               	/* epilogue end (size=3) */
 299               	/* function MAIN_Delay10MS size 21 (16) */
 300               	.LFE15:
 302               	.global	MAIN_WaitForJoyRelease
 304               	MAIN_WaitForJoyRelease:
 305               	.LFB18:
 306               	.LM4:
 307               	/* prologue: frame size=0 */
 308               	/* prologue end (size=0) */
 309               	.L25:
 310               	.LM5:
 311 0024 8EB3      		in r24,62-0x20
 312 0026 8823      		tst r24
 313 0028 E9F7      		brne .L25
 314               	.LM6:
 315 002a 81E0      		ldi r24,lo8(1)
 316 002c 0E94 0000 		call MAIN_Delay10MS
 317               	.LM7:
 318 0030 8EB3      		in r24,62-0x20
 319 0032 8823      		tst r24
 320 0034 B9F7      		brne .L25
 321               	/* epilogue: frame size=0 */
 322 0036 0895      		ret
 323               	/* epilogue end (size=1) */
 324               	/* function MAIN_WaitForJoyRelease size 10 (9) */
 325               	.LFE18:
 327               	.global	FUNCShowAbout
 329               	FUNCShowAbout:
 330               	.LFB25:
 331               	.LM8:
 332               	/* prologue: frame size=0 */
 333 0038 CF93      		push r28
 334               	/* prologue end (size=1) */
 335               	.LM9:
 336 003a C0E0      		ldi r28,lo8(0)
 337               	.LM10:
 338 003c 81E0      		ldi r24,lo8(1)
 339 003e 8EBB      		out 62-0x20,r24
 340               	.L42:
 341               	.LM11:
 342 0040 8EB3      		in r24,62-0x20
 343 0042 8823      		tst r24
 344 0044 E9F3      		breq .L42
 345               	.LM12:
 346 0046 F69B      		sbis 62-0x20,6
 347 0048 06C0      		rjmp .L30
 348               	.LM13:
 349 004a CC23      		tst r28
 350 004c 11F4      		brne .L31
 351 004e C3E0      		ldi r28,lo8(3)
 352 0050 0CC0      		rjmp .L33
 353               	.L31:
 354 0052 C150      		subi r28,lo8(-(-1))
 355 0054 0AC0      		rjmp .L33
 356               	.L30:
 357               	.LM14:
 358 0056 F79B      		sbis 62-0x20,7
 359 0058 06C0      		rjmp .L34
 360               	.LM15:
 361 005a C330      		cpi r28,lo8(3)
 362 005c 11F4      		brne .L35
 363 005e C0E0      		ldi r28,lo8(0)
 364 0060 04C0      		rjmp .L33
 365               	.L35:
 366 0062 CF5F      		subi r28,lo8(-(1))
 367 0064 02C0      		rjmp .L33
 368               	.L34:
 369               	.LM16:
 370 0066 F299      		sbic 62-0x20,2
 371 0068 0DC0      		rjmp .L26
 372               	.L33:
 373               	.LBB6:
 374               	.LM17:
 375 006a EC2F      		mov r30,r28
 376 006c FF27      		clr r31
 377 006e EE0F      		add r30,r30
 378 0070 FF1F      		adc r31,r31
 379 0072 E050      		subi r30,lo8(-(AboutTextPtrs))
 380 0074 F040      		sbci r31,hi8(-(AboutTextPtrs))
 381               	.LBE6:
 382               	/* #APP */
 383 0076 8591      		lpm r24, Z+
 384 0078 9491      		lpm r25, Z
 385               		
 386               	/* #NOAPP */
 387 007a 0E94 0000 		call LCD_puts_f
 388               	.LM18:
 389 007e 0E94 0000 		call MAIN_WaitForJoyRelease
 390 0082 DECF      		rjmp .L42
 391               	.L26:
 392               	/* epilogue: frame size=0 */
 393 0084 CF91      		pop r28
 394 0086 0895      		ret
 395               	/* epilogue end (size=2) */
 396               	/* function FUNCShowAbout size 44 (41) */
 397               	.LFE25:
 399               	.global	main
 401               	main:
 402               	.LFB14:
 403               	.LM19:
 404               	/* prologue: frame size=0 */
 405 0088 C0E0      		ldi r28,lo8(__stack - 0)
 406 008a D0E0      		ldi r29,hi8(__stack - 0)
 407 008c DEBF      		out __SP_H__,r29
 408 008e CDBF      		out __SP_L__,r28
 409               	/* prologue end (size=4) */
 410               	.LM20:
 411 0090 C0E0      		ldi r28,lo8(0)
 412               	.LM21:
 413 0092 80E8      		ldi r24,lo8(-128)
 414 0094 85BF      		out 85-0x20,r24
 415               	.LM22:
 416 0096 85BF      		out 85-0x20,r24
 417               	.LM23:
 418 0098 80BF      		out 80-0x20,r24
 419               	.LM24:
 420 009a 85E0      		ldi r24,lo8(5)
 421 009c 8093 6400 		sts 100,r24
 422               	.LM25:
 423 00a0 80E3      		ldi r24,lo8(48)
 424 00a2 80BB      		out 48-0x20,r24
 425               	.LM26:
 426 00a4 87E2      		ldi r24,lo8(39)
 427 00a6 84B9      		out 36-0x20,r24
 428               	.LM27:
 429 00a8 8FED      		ldi r24,lo8(-33)
 430 00aa 85B9      		out 37-0x20,r24
 431               	.LM28:
 432 00ac 8CE0      		ldi r24,lo8(12)
 433 00ae 8EB9      		out 46-0x20,r24
 434               	.LM29:
 435 00b0 8093 6B00 		sts 107,r24
 436               	.LM30:
 437 00b4 80ED      		ldi r24,lo8(-48)
 438 00b6 8093 6C00 		sts 108,r24
 439               	.LM31:
 440 00ba 80EC      		ldi r24,lo8(-64)
 441 00bc 8DBB      		out 61-0x20,r24
 442               	.LM32:
 443 00be 8CBB      		out 60-0x20,r24
 444               	.LM33:
 445 00c0 81B3      		in r24,49-0x20
 446 00c2 8F7C      		andi r24,lo8(-49)
 447 00c4 8062      		ori r24,lo8(32)
 448 00c6 81BB      		out 49-0x20,r24
 449               	.LBB7:
 450               	.LM34:
 451 00c8 20E0      		ldi r18,lo8(EEPROMVars+134)
 452 00ca 30E0      		ldi r19,hi8(EEPROMVars+134)
 453               	.LBB8:
 454               	.LM35:
 455 00cc D901      		movw r26,r18
 456               	/* #APP */
 457 00ce 0E94 0000 		call __eeprom_read_byte_1F2021
 458 00d2 802D      		mov r24,__tmp_reg__
 459               	/* #NOAPP */
 460               	.LBE8:
 461               	.LBE7:
 462               	.LM36:
 463 00d4 8A37      		cpi r24,lo8(122)
 464 00d6 89F0      		breq .L45
 465               	.LBB9:
 466               	.LM37:
 467 00d8 80E0      		ldi r24,lo8(0)
 468 00da 90E0      		ldi r25,hi8(0)
 469 00dc 4FEF      		ldi r20,lo8(-1)
 470               	.L51:
 471               	.LBB10:
 472               	.LBB11:
 473               	.LM38:
 474 00de DC01      		movw r26,r24
 475               	/* #APP */
 476 00e0 042E      		mov __tmp_reg__,r20
 477 00e2 0E94 0000 		call __eeprom_write_byte_1F2021
 478               	/* #NOAPP */
 479               	.LBE11:
 480               	.LBE10:
 481               	.LM39:
 482 00e6 0196      		adiw r24,1
 483 00e8 52E0      		ldi r21,hi8(512)
 484 00ea 8030      		cpi r24,lo8(512)
 485 00ec 9507      		cpc r25,r21
 486 00ee B8F3      		brlo .L51
 487               	.LBE9:
 488               	.LBB12:
 489               	.LM40:
 490 00f0 8AE7      		ldi r24,lo8(122)
 491               	.LBB13:
 492               	.LM41:
 493 00f2 D901      		movw r26,r18
 494               	/* #APP */
 495 00f4 082E      		mov __tmp_reg__,r24
 496 00f6 0E94 0000 		call __eeprom_write_byte_1F2021
 497               	/* #NOAPP */
 498               	.L45:
 499               	.LBE13:
 500               	.LBE12:
 501               	.LM42:
 502 00fa 0E94 0000 		call LCD_Init
 503               	.LBB14:
 504               	.LM43:
 505 00fe A0E0      		ldi r26,lo8(EEPROMVars+133)
 506 0100 B0E0      		ldi r27,hi8(EEPROMVars+133)
 507               	.LBB15:
 508               	.LM44:
 509               	/* #APP */
 510 0102 0E94 0000 		call __eeprom_read_byte_1F2021
 511 0106 802D      		mov r24,__tmp_reg__
 512               	/* #NOAPP */
 513               	.LBE15:
 514               	.LBE14:
 515               	.LM45:
 516 0108 8F70      		andi r24,lo8(15)
 517 010a 8093 E700 		sts 231,r24
 518               	.LM46:
 519               	/* #APP */
 520 010e 7894      		sei
 521               	.LM47:
 522               	/* #NOAPP */
 523 0110 80E0      		ldi r24,lo8(WaitText)
 524 0112 90E0      		ldi r25,hi8(WaitText)
 525 0114 0E94 0000 		call LCD_puts_f
 526               	.LM48:
 527 0118 80E0      		ldi r24,lo8(0)
 528 011a 0E94 0000 		call DF_EnableDataflash
 529               	.LM49:
 530 011e 81B3      		in r24,49-0x20
 531 0120 8063      		ori r24,lo8(48)
 532 0122 81BB      		out 49-0x20,r24
 533               	.LM50:
 534 0124 0E94 0000 		call USART_Init
 535               	.LM51:
 536 0128 0E94 0000 		call OSCCAL_Calibrate
 537               	.LM52:
 538 012c 81B3      		in r24,49-0x20
 539 012e 8F7C      		andi r24,lo8(-49)
 540 0130 8061      		ori r24,lo8(16)
 541 0132 81BB      		out 49-0x20,r24
 542               	.LM53:
 543 0134 81E0      		ldi r24,lo8(1)
 544 0136 8EBB      		out 62-0x20,r24
 545               	.LM54:
 546 0138 80E8      		ldi r24,lo8(-128)
 547 013a 8093 6100 		sts 97,r24
 548 013e 83E0      		ldi r24,lo8(3)
 549 0140 8093 6100 		sts 97,r24
 550               	.L77:
 551               	.LM55:
 552 0144 8EB3      		in r24,62-0x20
 553 0146 8823      		tst r24
 554 0148 E9F3      		breq .L77
 555               	.LM56:
 556 014a F69B      		sbis 62-0x20,6
 557 014c 06C0      		rjmp .L61
 558               	.LM57:
 559 014e CC23      		tst r28
 560 0150 11F4      		brne .L62
 561 0152 C6E0      		ldi r28,lo8(6)
 562 0154 1BC0      		rjmp .L64
 563               	.L62:
 564 0156 C150      		subi r28,lo8(-(-1))
 565 0158 19C0      		rjmp .L64
 566               	.L61:
 567               	.LM58:
 568 015a F79B      		sbis 62-0x20,7
 569 015c 06C0      		rjmp .L65
 570               	.LM59:
 571 015e C630      		cpi r28,lo8(6)
 572 0160 11F4      		brne .L66
 573 0162 C0E0      		ldi r28,lo8(0)
 574 0164 13C0      		rjmp .L64
 575               	.L66:
 576 0166 CF5F      		subi r28,lo8(-(1))
 577 0168 11C0      		rjmp .L64
 578               	.L65:
 579               	.LM60:
 580 016a F49B      		sbis 62-0x20,4
 581 016c 0BC0      		rjmp .L69
 582               	.LBB16:
 583               	.LM61:
 584 016e EC2F      		mov r30,r28
 585 0170 FF27      		clr r31
 586 0172 EE0F      		add r30,r30
 587 0174 FF1F      		adc r31,r31
 588 0176 E050      		subi r30,lo8(-(MainFunctionPtrs))
 589 0178 F040      		sbci r31,hi8(-(MainFunctionPtrs))
 590               	/* #APP */
 591 017a 8591      		lpm r24, Z+
 592 017c 9491      		lpm r25, Z
 593               		
 594               	/* #NOAPP */
 595               	.LBE16:
 596 017e FC01      		movw r30,r24
 597 0180 0995      		icall
 598 0182 04C0      		rjmp .L64
 599               	.L69:
 600               	.LM62:
 601 0184 F39B      		sbis 62-0x20,3
 602 0186 02C0      		rjmp .L64
 603               	.LM63:
 604 0188 0E94 0000 		call FUNCShowAbout
 605               	.L64:
 606               	.LBB17:
 607               	.LM64:
 608 018c EC2F      		mov r30,r28
 609 018e FF27      		clr r31
 610 0190 EE0F      		add r30,r30
 611 0192 FF1F      		adc r31,r31
 612 0194 E050      		subi r30,lo8(-(MainFunctionNames))
 613 0196 F040      		sbci r31,hi8(-(MainFunctionNames))
 614               	.LBE17:
 615               	/* #APP */
 616 0198 8591      		lpm r24, Z+
 617 019a 9491      		lpm r25, Z
 618               		
 619               	/* #NOAPP */
 620 019c 0E94 0000 		call LCD_puts_f
 621               	.LM65:
 622 01a0 0E94 0000 		call MAIN_WaitForJoyRelease
 623 01a4 CFCF      		rjmp .L77
 624               	/* epilogue: frame size=0 */
 625               	/* epilogue: noreturn */
 626               	/* epilogue end (size=0) */
 627               	/* function main size 156 (152) */
 628               	.LFE14:
 630               	.global	MAIN_Delay1MS
 632               	MAIN_Delay1MS:
 633               	.LFB16:
 634               	.LM66:
 635               	/* prologue: frame size=0 */
 636 01a6 CF93      		push r28
 637 01a8 DF93      		push r29
 638               	/* prologue end (size=2) */
 639               	.LM67:
 640 01aa 282F      		mov r18,r24
 641 01ac 2150      		subi r18,lo8(-(-1))
 642 01ae 2F3F      		cpi r18,lo8(-1)
 643 01b0 49F0      		breq .L91
 644 01b2 A3E3      		ldi r26,lo8(1843)
 645 01b4 B7E0      		ldi r27,hi8(1843)
 646 01b6 C0E0      		ldi r28,hlo8(1843)
 647 01b8 D0E0      		ldi r29,hhi8(1843)
 648               	.L89:
 649               	.LBB18:
 650               	.LBB19:
 651               	.LBB20:
 652               	.LBB21:
 653               	.LM68:
 654 01ba CD01      		movw r24,r26
 655               	/* #APP */
 656 01bc 0197      		1: sbiw r24,1
 657 01be F1F7      		brne 1b
 658               	/* #NOAPP */
 659               	.LBE21:
 660               	.LBE20:
 661               	.LBE19:
 662               	.LBE18:
 663 01c0 2150      		subi r18,1
 664 01c2 D8F7      		brcc .L89
 665               	.L91:
 666               	/* epilogue: frame size=0 */
 667 01c4 DF91      		pop r29
 668 01c6 CF91      		pop r28
 669 01c8 0895      		ret
 670               	/* epilogue end (size=3) */
 671               	/* function MAIN_Delay1MS size 21 (16) */
 672               	.LFE16:
 674               	.global	MAIN_ResetCSLine
 676               	MAIN_ResetCSLine:
 677               	.LFB17:
 678               	.LM69:
 679               	/* prologue: frame size=0 */
 680               	/* prologue end (size=0) */
 681               	.LM70:
 682 01ca 9927      		clr r25
 683 01cc 8130      		cpi r24,1
 684 01ce 9105      		cpc r25,__zero_reg__
 685 01d0 B1F0      		breq .L99
 686               	.LM71:
 687 01d2 8230      		cpi r24,2
 688 01d4 9105      		cpc r25,__zero_reg__
 689 01d6 1CF4      		brge .L100
 690 01d8 892B      		or r24,r25
 691 01da 21F0      		breq .L94
 692 01dc 0895      		ret
 693               	.L100:
 694 01de 0297      		sbiw r24,2
 695 01e0 59F0      		breq .L98
 696 01e2 0895      		ret
 697               	.L94:
 698               	.LM72:
 699 01e4 869A      		sbi 48-0x20,6
 700               	.LBB22:
 701               	.LM73:
 702 01e6 A0E0      		ldi r26,lo8(EEPROMVars)
 703 01e8 B0E0      		ldi r27,hi8(EEPROMVars)
 704               	.LBB23:
 705               	.LM74:
 706               	/* #APP */
 707 01ea 0E94 0000 		call __eeprom_read_byte_1F2021
 708 01ee 802D      		mov r24,__tmp_reg__
 709               	/* #NOAPP */
 710               	.LBE23:
 711               	.LBE22:
 712               	.LM75:
 713 01f0 8823      		tst r24
 714 01f2 19F4      		brne .L101
 715               	.LM76:
 716 01f4 8E9A      		sbi 49-0x20,6
 717 01f6 0895      		ret
 718               	.L98:
 719               	.LM77:
 720 01f8 869A      		sbi 48-0x20,6
 721               	.L101:
 722               	.LM78:
 723 01fa 8E98      		cbi 49-0x20,6
 724               	.LM79:
 725 01fc 0895      		ret
 726               	.L99:
 727               	.LM80:
 728 01fe 8698      		cbi 48-0x20,6
 729 0200 FCCF      		rjmp .L101
 730               	/* epilogue: frame size=0 */
 731               	/* epilogue: noreturn */
 732               	/* epilogue end (size=0) */
 733               	/* function MAIN_ResetCSLine size 30 (30) */
 734               	.LFE17:
 736               	.global	MAIN_IntToStr
 738               	MAIN_IntToStr:
 739               	.LFB19:
 740               	.LM81:
 741               	/* prologue: frame size=0 */
 742               	/* prologue end (size=0) */
 743 0202 FB01      		movw r30,r22
 744               	.LM82:
 745 0204 20E0      		ldi r18,lo8(0)
 746               	.L113:
 747               	.LM83:
 748 0206 8436      		cpi r24,100
 749 0208 9105      		cpc r25,__zero_reg__
 750 020a 20F0      		brlo .L110
 751               	.LM84:
 752 020c 2F5F      		subi r18,lo8(-(1))
 753               	.LM85:
 754 020e 8456      		subi r24,lo8(-(-100))
 755 0210 9040      		sbci r25,hi8(-(-100))
 756 0212 F9CF      		rjmp .L113
 757               	.L110:
 758               	.LM86:
 759 0214 205D      		subi r18,lo8(-(48))
 760 0216 2193      		st Z+,r18
 761               	.LM87:
 762 0218 20E0      		ldi r18,lo8(0)
 763               	.L114:
 764               	.LM88:
 765 021a 8A30      		cpi r24,10
 766 021c 9105      		cpc r25,__zero_reg__
 767 021e 18F0      		brlo .L112
 768               	.LM89:
 769 0220 2F5F      		subi r18,lo8(-(1))
 770               	.LM90:
 771 0222 0A97      		sbiw r24,10
 772 0224 FACF      		rjmp .L114
 773               	.L112:
 774               	.LM91:
 775 0226 205D      		subi r18,lo8(-(48))
 776 0228 2193      		st Z+,r18
 777               	.LM92:
 778 022a 805D      		subi r24,lo8(-(48))
 779 022c 8193      		st Z+,r24
 780               	.LM93:
 781 022e 1082      		st Z,__zero_reg__
 782               	/* epilogue: frame size=0 */
 783 0230 0895      		ret
 784               	/* epilogue end (size=1) */
 785               	/* function MAIN_IntToStr size 24 (23) */
 786               	.LFE19:
 788               		.section	.progmem.data
 791               	__c.14:
 792 01e7 5052 473E 		.string	"PRG> "
 792      2000 
 793               		.text
 794               	.global	MAIN_ShowProgType
 796               	MAIN_ShowProgType:
 797               	.LFB20:
 798               	.LM94:
 799               	/* prologue: frame size=7 */
 800 0232 1F93      		push r17
 801 0234 CF93      		push r28
 802 0236 DF93      		push r29
 803 0238 CDB7      		in r28,__SP_L__
 804 023a DEB7      		in r29,__SP_H__
 805 023c 2797      		sbiw r28,7
 806 023e 0FB6      		in __tmp_reg__,__SREG__
 807 0240 F894      		cli
 808 0242 DEBF      		out __SP_H__,r29
 809 0244 0FBE      		out __SREG__,__tmp_reg__
 810 0246 CDBF      		out __SP_L__,r28
 811               	/* prologue end (size=11) */
 812 0248 182F      		mov r17,r24
 813               	.LM95:
 814 024a 60E0      		ldi r22,lo8(__c.14)
 815 024c 70E0      		ldi r23,hi8(__c.14)
 816 024e CE01      		movw r24,r28
 817 0250 0196      		adiw r24,1
 818 0252 0E94 0000 		call strcpy_P
 819               	.LM96:
 820 0256 1E83      		std Y+6,r17
 821               	.LM97:
 822 0258 1F82      		std Y+7,__zero_reg__
 823               	.LM98:
 824 025a CE01      		movw r24,r28
 825 025c 0196      		adiw r24,1
 826 025e 0E94 0000 		call LCD_puts
 827               	/* epilogue: frame size=7 */
 828 0262 2796      		adiw r28,7
 829 0264 0FB6      		in __tmp_reg__,__SREG__
 830 0266 F894      		cli
 831 0268 DEBF      		out __SP_H__,r29
 832 026a 0FBE      		out __SREG__,__tmp_reg__
 833 026c CDBF      		out __SP_L__,r28
 834 026e DF91      		pop r29
 835 0270 CF91      		pop r28
 836 0272 1F91      		pop r17
 837 0274 0895      		ret
 838               	/* epilogue end (size=10) */
 839               	/* function MAIN_ShowProgType size 34 (13) */
 840               	.LFE20:
 842               	.global	MAIN_ShowError
 844               	MAIN_ShowError:
 845               	.LFB21:
 846               	.LM99:
 847               	/* prologue: frame size=20 */
 848 0276 CF93      		push r28
 849 0278 DF93      		push r29
 850 027a CDB7      		in r28,__SP_L__
 851 027c DEB7      		in r29,__SP_H__
 852 027e 6497      		sbiw r28,20
 853 0280 0FB6      		in __tmp_reg__,__SREG__
 854 0282 F894      		cli
 855 0284 DEBF      		out __SP_H__,r29
 856 0286 0FBE      		out __SREG__,__tmp_reg__
 857 0288 CDBF      		out __SP_L__,r28
 858               	/* prologue end (size=10) */
 859               	.LM100:
 860 028a 25E4      		ldi r18,lo8(69)
 861 028c 2983      		std Y+1,r18
 862               	.LM101:
 863 028e 2EE3      		ldi r18,lo8(62)
 864 0290 2A83      		std Y+2,r18
 865               	.LM102:
 866 0292 BC01      		movw r22,r24
 867 0294 CE01      		movw r24,r28
 868 0296 0396      		adiw r24,3
 869 0298 0E94 0000 		call strcpy_P
 870               	.LM103:
 871 029c CE01      		movw r24,r28
 872 029e 0196      		adiw r24,1
 873 02a0 0E94 0000 		call LCD_puts
 874               	.LM104:
 875 02a4 0E94 0000 		call MAIN_WaitForJoyRelease
 876               	.L117:
 877               	.LM105:
 878 02a8 F49B      		sbis 62-0x20,4
 879 02aa FECF      		rjmp .L117
 880               	.LM106:
 881 02ac 0E94 0000 		call MAIN_WaitForJoyRelease
 882               	/* epilogue: frame size=20 */
 883 02b0 6496      		adiw r28,20
 884 02b2 0FB6      		in __tmp_reg__,__SREG__
 885 02b4 F894      		cli
 886 02b6 DEBF      		out __SP_H__,r29
 887 02b8 0FBE      		out __SREG__,__tmp_reg__
 888 02ba CDBF      		out __SP_L__,r28
 889 02bc DF91      		pop r29
 890 02be CF91      		pop r28
 891 02c0 0895      		ret
 892               	/* epilogue end (size=9) */
 893               	/* function MAIN_ShowError size 38 (19) */
 894               	.LFE21:
 896               	.global	__vector_3
 898               	__vector_3:
 899               	.LFB22:
 900               	.LM107:
 901               	/* prologue: frame size=0 */
 902 02c2 7894      		sei
 903 02c4 1F92      		push __zero_reg__
 904 02c6 0F92      		push __tmp_reg__
 905 02c8 0FB6      		in __tmp_reg__,__SREG__
 906 02ca 0F92      		push __tmp_reg__
 907 02cc 1124      		clr __zero_reg__
 908 02ce 8F93      		push r24
 909 02d0 9F93      		push r25
 910               	/* prologue end (size=8) */
 911               	.LM108:
 912 02d2 93B1      		in r25,35-0x20
 913 02d4 9095      		com r25
 914 02d6 907D      		andi r25,lo8(-48)
 915 02d8 8CB1      		in r24,44-0x20
 916 02da 8095      		com r24
 917 02dc 8C70      		andi r24,lo8(12)
 918 02de 982B      		or r25,r24
 919 02e0 9EBB      		out 62-0x20,r25
 920               	/* epilogue: frame size=0 */
 921 02e2 9F91      		pop r25
 922 02e4 8F91      		pop r24
 923 02e6 0F90      		pop __tmp_reg__
 924 02e8 0FBE      		out __SREG__,__tmp_reg__
 925 02ea 0F90      		pop __tmp_reg__
 926 02ec 1F90      		pop __zero_reg__
 927 02ee 1895      		reti
 928               	/* epilogue end (size=7) */
 929               	/* function __vector_3 size 23 (8) */
 930               	.LFE22:
 932               		.section	.progmem.data
 935               	__c.13:
 936 01ed 4241 4449 		.string	"BADISR"
 936      5352 00
 937               		.text
 938               	.global	__vector_default
 940               	__vector_default:
 941               	.LFB23:
 942               	.LM109:
 943               	/* prologue: frame size=0 */
 944               	/* prologue: naked */
 945               	/* prologue end (size=0) */
 946               	.LM110:
 947 02f0 80E0      		ldi r24,lo8(__c.13)
 948 02f2 90E0      		ldi r25,hi8(__c.13)
 949 02f4 0E94 0000 		call MAIN_ShowError
 950               	.L122:
 951               	.LM111:
 952 02f8 FFCF      		rjmp .L122
 953               	/* epilogue: frame size=0 */
 954               	/* epilogue: naked */
 955               	/* epilogue end (size=0) */
 956               	/* function __vector_default size 5 (5) */
 957               	.LFE23:
 959               	.global	FUNCChangeSettings
 961               	FUNCChangeSettings:
 962               	.LFB24:
 963               	.LM112:
 964               	/* prologue: frame size=0 */
 965 02fa CF93      		push r28
 966               	/* prologue end (size=1) */
 967               	.LM113:
 968 02fc C0E0      		ldi r28,lo8(0)
 969               	.LM114:
 970 02fe 81E0      		ldi r24,lo8(1)
 971 0300 8EBB      		out 62-0x20,r24
 972               	.L142:
 973               	.LM115:
 974 0302 8EB3      		in r24,62-0x20
 975 0304 8823      		tst r24
 976 0306 E9F3      		breq .L142
 977               	.LM116:
 978 0308 F69B      		sbis 62-0x20,6
 979 030a 06C0      		rjmp .L128
 980               	.LM117:
 981 030c CC23      		tst r28
 982 030e 11F4      		brne .L129
 983 0310 C3E0      		ldi r28,lo8(3)
 984 0312 19C0      		rjmp .L131
 985               	.L129:
 986 0314 C150      		subi r28,lo8(-(-1))
 987 0316 17C0      		rjmp .L131
 988               	.L128:
 989               	.LM118:
 990 0318 F79B      		sbis 62-0x20,7
 991 031a 06C0      		rjmp .L132
 992               	.LM119:
 993 031c C330      		cpi r28,lo8(3)
 994 031e 11F4      		brne .L133
 995 0320 C0E0      		ldi r28,lo8(0)
 996 0322 11C0      		rjmp .L131
 997               	.L133:
 998 0324 CF5F      		subi r28,lo8(-(1))
 999 0326 0FC0      		rjmp .L131
 1000               	.L132:
 1001               	.LM120:
 1002 0328 F49B      		sbis 62-0x20,4
 1003 032a 0BC0      		rjmp .L136
 1004               	.LBB24:
 1005               	.LM121:
 1006 032c EC2F      		mov r30,r28
 1007 032e FF27      		clr r31
 1008 0330 EE0F      		add r30,r30
 1009 0332 FF1F      		adc r31,r31
 1010 0334 E050      		subi r30,lo8(-(SettingFunctionPtrs))
 1011 0336 F040      		sbci r31,hi8(-(SettingFunctionPtrs))
 1012               	/* #APP */
 1013 0338 8591      		lpm r24, Z+
 1014 033a 9491      		lpm r25, Z
 1015               		
 1016               	/* #NOAPP */
 1017               	.LBE24:
 1018 033c FC01      		movw r30,r24
 1019 033e 0995      		icall
 1020 0340 02C0      		rjmp .L131
 1021               	.L136:
 1022               	.LM122:
 1023 0342 F299      		sbic 62-0x20,2
 1024 0344 0DC0      		rjmp .L124
 1025               	.L131:
 1026               	.LBB25:
 1027               	.LM123:
 1028 0346 EC2F      		mov r30,r28
 1029 0348 FF27      		clr r31
 1030 034a EE0F      		add r30,r30
 1031 034c FF1F      		adc r31,r31
 1032 034e E050      		subi r30,lo8(-(SettingFunctionNames))
 1033 0350 F040      		sbci r31,hi8(-(SettingFunctionNames))
 1034               	.LBE25:
 1035               	/* #APP */
 1036 0352 8591      		lpm r24, Z+
 1037 0354 9491      		lpm r25, Z
 1038               		
 1039               	/* #NOAPP */
 1040 0356 0E94 0000 		call LCD_puts_f
 1041               	.LM124:
 1042 035a 0E94 0000 		call MAIN_WaitForJoyRelease
 1043 035e D1CF      		rjmp .L142
 1044               	.L124:
 1045               	/* epilogue: frame size=0 */
 1046 0360 CF91      		pop r28
 1047 0362 0895      		ret
 1048               	/* epilogue end (size=2) */
 1049               	/* function FUNCChangeSettings size 61 (58) */
 1050               	.LFE24:
 1052               	.global	FUNCAVRISPMode
 1054               	FUNCAVRISPMode:
 1055               	.LFB26:
 1056               	.LM125:
 1057               	/* prologue: frame size=0 */
 1058               	/* prologue end (size=0) */
 1059               	.LM126:
 1060 0364 80E0      		ldi r24,lo8(AVRISPModeMessage)
 1061 0366 90E0      		ldi r25,hi8(AVRISPModeMessage)
 1062 0368 0E94 0000 		call LCD_puts_f
 1063               	.LM127:
 1064 036c 80E0      		ldi r24,lo8(pm(AICI_InterpretPacket))
 1065 036e 90E0      		ldi r25,hi8(pm(AICI_InterpretPacket))
 1066 0370 9093 0000 		sts (InterpretPacketRoutine)+1,r25
 1067 0374 8093 0000 		sts InterpretPacketRoutine,r24
 1068               	.LM128:
 1069 0378 0E94 0000 		call V2P_RunStateMachine
 1070               	/* epilogue: frame size=0 */
 1071 037c 0895      		ret
 1072               	/* epilogue end (size=1) */
 1073               	/* function FUNCAVRISPMode size 13 (12) */
 1074               	.LFE26:
 1076               	.global	FUNCProgramDataflash
 1078               	FUNCProgramDataflash:
 1079               	.LFB27:
 1080               	.LM129:
 1081               	/* prologue: frame size=0 */
 1082               	/* prologue end (size=0) */
 1083               	.LBB26:
 1084               	.LM130:
 1085 037e A0E0      		ldi r26,lo8(EEPROMVars+1)
 1086 0380 B0E0      		ldi r27,hi8(EEPROMVars+1)
 1087               	.LBB27:
 1088               	.LM131:
 1089               	/* #APP */
 1090 0382 0E94 0000 		call __eeprom_read_byte_1F2021
 1091 0386 802D      		mov r24,__tmp_reg__
 1092               	/* #NOAPP */
 1093               	.LBE27:
 1094               	.LBE26:
 1095               	.LM132:
 1096 0388 0E94 0000 		call USI_SPIInitMaster
 1097               	.LM133:
 1098 038c 81E0      		ldi r24,lo8(1)
 1099 038e 8093 0000 		sts UseExernalDF,r24
 1100               	.LM134:
 1101 0392 80E0      		ldi r24,lo8(pm(USI_SPITransmit))
 1102 0394 90E0      		ldi r25,hi8(pm(USI_SPITransmit))
 1103 0396 9093 0000 		sts (DFSPIRoutinePointer)+1,r25
 1104 039a 8093 0000 		sts DFSPIRoutinePointer,r24
 1105               	.LM135:
 1106 039e 80E0      		ldi r24,lo8(DataFlashProgMode)
 1107 03a0 90E0      		ldi r25,hi8(DataFlashProgMode)
 1108 03a2 0E94 0000 		call LCD_puts_f
 1109               	.LM136:
 1110 03a6 80E0      		ldi r24,lo8(pm(PD_InterpretAVRISPPacket))
 1111 03a8 90E0      		ldi r25,hi8(pm(PD_InterpretAVRISPPacket))
 1112 03aa 9093 0000 		sts (InterpretPacketRoutine)+1,r25
 1113 03ae 8093 0000 		sts InterpretPacketRoutine,r24
 1114               	.LM137:
 1115 03b2 0E94 0000 		call V2P_RunStateMachine
 1116               	.LM138:
 1117 03b6 80E0      		ldi r24,lo8(0)
 1118 03b8 0E94 0000 		call DF_EnableDataflash
 1119               	.LM139:
 1120 03bc 8091 6400 		lds r24,100
 1121 03c0 8460      		ori r24,lo8(4)
 1122 03c2 8093 6400 		sts 100,r24
 1123               	/* epilogue: frame size=0 */
 1124 03c6 0895      		ret
 1125               	/* epilogue end (size=1) */
 1126               	/* function FUNCProgramDataflash size 38 (37) */
 1127               	.LFE27:
 1129               		.section	.progmem.data
 1132               	__c.6:
 1133 01f4 4E4F 2045 		.string	"NO ERASE CMD"
 1133      5241 5345 
 1133      2043 4D44 
 1133      00
 1136               	__c.7:
 1137 0201 4E4F 2044 		.string	"NO DATA"
 1137      4154 4100 
 1140               	__c.8:
 1141 0209 4E4F 2045 		.string	"NO EEPROM"
 1141      4550 524F 
 1141      4D00 
 1144               	__c.9:
 1145 0213 4E4F 2046 		.string	"NO FUSE BYTES"
 1145      5553 4520 
 1145      4259 5445 
 1145      5300 
 1148               	__c.10:
 1149 0221 4E4F 204C 		.string	"NO LOCK BYTES"
 1149      4F43 4B20 
 1149      4259 5445 
 1149      5300 
 1152               	__c.11:
 1153 022f 5052 4F47 		.string	"PROGRAMMING DONE"
 1153      5241 4D4D 
 1153      494E 4720 
 1153      444F 4E45 
 1153      00
 1156               	__c.12:
 1157 0240 4641 494C 		.string	"FAILED"
 1157      4544 00
 1158               		.text
 1159               	.global	FUNCProgramAVR
 1161               	FUNCProgramAVR:
 1162               	.LFB28:
 1163               	.LM140:
 1164               	/* prologue: frame size=19 */
 1165 03c8 0F93      		push r16
 1166 03ca 1F93      		push r17
 1167 03cc CF93      		push r28
 1168 03ce DF93      		push r29
 1169 03d0 CDB7      		in r28,__SP_L__
 1170 03d2 DEB7      		in r29,__SP_H__
 1171 03d4 6397      		sbiw r28,19
 1172 03d6 0FB6      		in __tmp_reg__,__SREG__
 1173 03d8 F894      		cli
 1174 03da DEBF      		out __SP_H__,r29
 1175 03dc 0FBE      		out __SREG__,__tmp_reg__
 1176 03de CDBF      		out __SP_L__,r28
 1177               	/* prologue end (size=12) */
 1178               	.LM141:
 1179 03e0 00E0      		ldi r16,lo8(0)
 1180               	.LM142:
 1181 03e2 102F      		mov r17,r16
 1182               	.LM143:
 1183 03e4 0E94 0000 		call SPI_SPIInit
 1184               	.LM144:
 1185 03e8 0093 0000 		sts UseExernalDF,r16
 1186               	.LM145:
 1187 03ec 80E0      		ldi r24,lo8(pm(SPI_SPITransmit))
 1188 03ee 90E0      		ldi r25,hi8(pm(SPI_SPITransmit))
 1189 03f0 9093 0000 		sts (DFSPIRoutinePointer)+1,r25
 1190 03f4 8093 0000 		sts DFSPIRoutinePointer,r24
 1191               	.LM146:
 1192 03f8 0E94 0000 		call DF_CheckCorrectOnboardChip
 1193 03fc 8823      		tst r24
 1194 03fe 09F4      		brne .+2
 1195 0400 0DC1      		rjmp .L147
 1196               	.LM147:
 1197 0402 0E94 0000 		call MAIN_WaitForJoyRelease
 1198               	.LM148:
 1199 0406 81E0      		ldi r24,lo8(1)
 1200 0408 8EBB      		out 62-0x20,r24
 1201               	.L202:
 1202               	.LM149:
 1203 040a 8EB3      		in r24,62-0x20
 1204 040c 8823      		tst r24
 1205 040e E9F3      		breq .L202
 1206               	.LM150:
 1207 0410 F299      		sbic 62-0x20,2
 1208 0412 04C1      		rjmp .L147
 1209               	.LM151:
 1210 0414 F499      		sbic 62-0x20,4
 1211 0416 1CC0      		rjmp .L150
 1212               	.LM152:
 1213 0418 F69B      		sbis 62-0x20,6
 1214 041a 06C0      		rjmp .L156
 1215               	.LM153:
 1216 041c 1123      		tst r17
 1217 041e 11F4      		brne .L157
 1218 0420 16E0      		ldi r17,lo8(6)
 1219 0422 09C0      		rjmp .L153
 1220               	.L157:
 1221 0424 1150      		subi r17,lo8(-(-1))
 1222 0426 07C0      		rjmp .L153
 1223               	.L156:
 1224               	.LM154:
 1225 0428 F79B      		sbis 62-0x20,7
 1226 042a 05C0      		rjmp .L153
 1227               	.LM155:
 1228 042c 1630      		cpi r17,lo8(6)
 1229 042e 11F4      		brne .L161
 1230 0430 10E0      		ldi r17,lo8(0)
 1231 0432 01C0      		rjmp .L153
 1232               	.L161:
 1233 0434 1F5F      		subi r17,lo8(-(1))
 1234               	.L153:
 1235               	.LBB28:
 1236               	.LM156:
 1237 0436 E12F      		mov r30,r17
 1238 0438 FF27      		clr r31
 1239 043a EE0F      		add r30,r30
 1240 043c FF1F      		adc r31,r31
 1241 043e E050      		subi r30,lo8(-(ProgOptions))
 1242 0440 F040      		sbci r31,hi8(-(ProgOptions))
 1243               	.LBE28:
 1244               	/* #APP */
 1245 0442 8591      		lpm r24, Z+
 1246 0444 9491      		lpm r25, Z
 1247               		
 1248               	/* #NOAPP */
 1249 0446 0E94 0000 		call LCD_puts_f
 1250               	.LM157:
 1251 044a 0E94 0000 		call MAIN_WaitForJoyRelease
 1252 044e DDCF      		rjmp .L202
 1253               	.L150:
 1254               	.LM158:
 1255 0450 81B3      		in r24,49-0x20
 1256 0452 8063      		ori r24,lo8(48)
 1257 0454 81BB      		out 49-0x20,r24
 1258               	.LM159:
 1259 0456 80E0      		ldi r24,lo8(WaitText)
 1260 0458 90E0      		ldi r25,hi8(WaitText)
 1261 045a 0E94 0000 		call LCD_puts_f
 1262               	.LBB29:
 1263               	.LM160:
 1264 045e A0E0      		ldi r26,lo8(EEPROMVars+1)
 1265 0460 B0E0      		ldi r27,hi8(EEPROMVars+1)
 1266               	.LBB30:
 1267               	.LM161:
 1268               	/* #APP */
 1269 0462 0E94 0000 		call __eeprom_read_byte_1F2021
 1270 0466 802D      		mov r24,__tmp_reg__
 1271               	/* #NOAPP */
 1272               	.LBE30:
 1273               	.LBE29:
 1274               	.LM162:
 1275 0468 0E94 0000 		call USI_SPIInitMaster
 1276               	.LM163:
 1277 046c 80E0      		ldi r24,lo8(0)
 1278 046e 0E94 0000 		call MAIN_ResetCSLine
 1279 0472 E0E0      		ldi r30,lo8(PacketBytes)
 1280 0474 F0E0      		ldi r31,hi8(PacketBytes)
 1281 0476 20E0      		ldi r18,lo8(0)
 1282 0478 30E0      		ldi r19,hi8(0)
 1283 047a 9BE0      		ldi r25,lo8(11)
 1284               	.L169:
 1285               	.LBB31:
 1286               	.LBB32:
 1287               	.LM164:
 1288 047c D901      		movw r26,r18
 1289 047e A050      		subi r26,lo8(-(EEPROMVars+35))
 1290 0480 B040      		sbci r27,hi8(-(EEPROMVars+35))
 1291               	.LBB33:
 1292               	.LM165:
 1293               	/* #APP */
 1294 0482 0E94 0000 		call __eeprom_read_byte_1F2021
 1295 0486 802D      		mov r24,__tmp_reg__
 1296               	/* #NOAPP */
 1297               	.LBE33:
 1298               	.LBE32:
 1299               	.LM166:
 1300 0488 8193      		st Z+,r24
 1301               	.LM167:
 1302 048a 9150      		subi r25,lo8(-(-1))
 1303 048c 2F5F      		subi r18,lo8(-(1))
 1304 048e 3F4F      		sbci r19,hi8(-(1))
 1305 0490 97FF      		sbrs r25,7
 1306 0492 F4CF      		rjmp .L169
 1307               	.LBE31:
 1308               	.LM168:
 1309 0494 0E94 0000 		call ISPCC_EnterChipProgrammingMode
 1310               	.LM169:
 1311 0498 1092 0000 		sts CurrAddress,__zero_reg__
 1312 049c 1092 0000 		sts (CurrAddress)+1,__zero_reg__
 1313 04a0 1092 0000 		sts (CurrAddress)+2,__zero_reg__
 1314 04a4 1092 0000 		sts (CurrAddress)+3,__zero_reg__
 1315               	.LM170:
 1316 04a8 8091 0000 		lds r24,PacketBytes+1
 1317 04ac 8823      		tst r24
 1318 04ae 09F0      		breq .+2
 1319 04b0 A0C0      		rjmp .L170
 1320               	.LM171:
 1321 04b2 1630      		cpi r17,lo8(6)
 1322 04b4 21F0      		breq .L172
 1323 04b6 1123      		tst r17
 1324 04b8 11F0      		breq .L172
 1325 04ba 1230      		cpi r17,lo8(2)
 1326 04bc 91F4      		brne .L171
 1327               	.L172:
 1328               	.LM172:
 1329 04be 83E4      		ldi r24,lo8(67)
 1330 04c0 0E94 0000 		call MAIN_ShowProgType
 1331               	.LBB34:
 1332               	.LM173:
 1333 04c4 A0E0      		ldi r26,lo8(EEPROMVars+20)
 1334 04c6 B0E0      		ldi r27,hi8(EEPROMVars+20)
 1335               	.LBB35:
 1336               	.LM174:
 1337               	/* #APP */
 1338 04c8 0E94 0000 		call __eeprom_read_byte_1F2021
 1339 04cc 802D      		mov r24,__tmp_reg__
 1340               	/* #NOAPP */
 1341               	.LBE35:
 1342               	.LBE34:
 1343               	.LM175:
 1344 04ce 8130      		cpi r24,lo8(1)
 1345 04d0 31F0      		breq .L173
 1346               	.LM176:
 1347 04d2 02E0      		ldi r16,lo8(2)
 1348               	.LM177:
 1349 04d4 80E0      		ldi r24,lo8(__c.6)
 1350 04d6 90E0      		ldi r25,hi8(__c.6)
 1351 04d8 0E94 0000 		call MAIN_ShowError
 1352 04dc 02C0      		rjmp .L171
 1353               	.L173:
 1354               	.LM178:
 1355 04de 0E94 0000 		call PM_SendEraseCommand
 1356               	.L171:
 1357               	.LM179:
 1358 04e2 1123      		tst r17
 1359 04e4 11F0      		breq .L177
 1360 04e6 1230      		cpi r17,lo8(2)
 1361 04e8 B9F4      		brne .L176
 1362               	.L177:
 1363 04ea 0023      		tst r16
 1364 04ec A9F4      		brne .L176
 1365               	.LM180:
 1366 04ee 84E4      		ldi r24,lo8(68)
 1367 04f0 0E94 0000 		call MAIN_ShowProgType
 1368               	.LM181:
 1369 04f4 81E0      		ldi r24,lo8(1)
 1370 04f6 0E94 0000 		call PM_GetStoredDataSize
 1371 04fa DC01      		movw r26,r24
 1372 04fc CB01      		movw r24,r22
 1373 04fe 0097      		sbiw r24,0
 1374 0500 A105      		cpc r26,__zero_reg__
 1375 0502 B105      		cpc r27,__zero_reg__
 1376 0504 31F4      		brne .L178
 1377               	.LM182:
 1378 0506 03E0      		ldi r16,lo8(3)
 1379               	.LM183:
 1380 0508 80E0      		ldi r24,lo8(__c.7)
 1381 050a 90E0      		ldi r25,hi8(__c.7)
 1382 050c 0E94 0000 		call MAIN_ShowError
 1383 0510 03C0      		rjmp .L176
 1384               	.L178:
 1385               	.LM184:
 1386 0512 81E0      		ldi r24,lo8(1)
 1387 0514 0E94 0000 		call PM_CreateProgrammingPackets
 1388               	.L176:
 1389               	.LM185:
 1390 0518 812F      		mov r24,r17
 1391 051a 8150      		subi r24,lo8(-(-1))
 1392 051c 8230      		cpi r24,lo8(2)
 1393 051e A8F4      		brsh .L180
 1394               	.LM186:
 1395 0520 85E4      		ldi r24,lo8(69)
 1396 0522 0E94 0000 		call MAIN_ShowProgType
 1397               	.LM187:
 1398 0526 80E0      		ldi r24,lo8(0)
 1399 0528 0E94 0000 		call PM_GetStoredDataSize
 1400 052c DC01      		movw r26,r24
 1401 052e CB01      		movw r24,r22
 1402 0530 0097      		sbiw r24,0
 1403 0532 A105      		cpc r26,__zero_reg__
 1404 0534 B105      		cpc r27,__zero_reg__
 1405 0536 31F4      		brne .L181
 1406               	.LM188:
 1407 0538 03E0      		ldi r16,lo8(3)
 1408               	.LM189:
 1409 053a 80E0      		ldi r24,lo8(__c.8)
 1410 053c 90E0      		ldi r25,hi8(__c.8)
 1411 053e 0E94 0000 		call MAIN_ShowError
 1412 0542 03C0      		rjmp .L180
 1413               	.L181:
 1414               	.LM190:
 1415 0544 80E0      		ldi r24,lo8(0)
 1416 0546 0E94 0000 		call PM_CreateProgrammingPackets
 1417               	.L180:
 1418               	.LM191:
 1419 054a 1330      		cpi r17,lo8(3)
 1420 054c 11F0      		breq .L184
 1421 054e 1530      		cpi r17,lo8(5)
 1422 0550 99F4      		brne .L183
 1423               	.L184:
 1424               	.LM192:
 1425 0552 86E4      		ldi r24,lo8(70)
 1426 0554 0E94 0000 		call MAIN_ShowProgType
 1427               	.LBB36:
 1428               	.LM193:
 1429 0558 A0E0      		ldi r26,lo8(EEPROMVars+47)
 1430 055a B0E0      		ldi r27,hi8(EEPROMVars+47)
 1431               	.LBB37:
 1432               	.LM194:
 1433               	/* #APP */
 1434 055c 0E94 0000 		call __eeprom_read_byte_1F2021
 1435 0560 802D      		mov r24,__tmp_reg__
 1436               	/* #NOAPP */
 1437               	.LBE37:
 1438               	.LBE36:
 1439               	.LM195:
 1440 0562 8823      		tst r24
 1441 0564 31F4      		brne .L185
 1442               	.LM196:
 1443 0566 03E0      		ldi r16,lo8(3)
 1444               	.LM197:
 1445 0568 80E0      		ldi r24,lo8(__c.9)
 1446 056a 90E0      		ldi r25,hi8(__c.9)
 1447 056c 0E94 0000 		call MAIN_ShowError
 1448 0570 03C0      		rjmp .L183
 1449               	.L185:
 1450               	.LM198:
 1451 0572 82E0      		ldi r24,lo8(2)
 1452 0574 0E94 0000 		call PM_SendFuseLockBytes
 1453               	.L183:
 1454               	.LM199:
 1455 0578 812F      		mov r24,r17
 1456 057a 8450      		subi r24,lo8(-(-4))
 1457 057c 8230      		cpi r24,lo8(2)
 1458 057e 00F5      		brsh .L188
 1459               	.LM200:
 1460 0580 1530      		cpi r17,lo8(5)
 1461 0582 59F4      		brne .L189
 1462               	.LM201:
 1463 0584 81E0      		ldi r24,lo8(1)
 1464 0586 0E94 0000 		call MAIN_ResetCSLine
 1465               	.LM202:
 1466 058a 81E0      		ldi r24,lo8(1)
 1467 058c 0E94 0000 		call MAIN_Delay10MS
 1468               	.LM203:
 1469 0590 80E0      		ldi r24,lo8(0)
 1470 0592 0E94 0000 		call MAIN_ResetCSLine
 1471               	.LM204:
 1472 0596 0E94 0000 		call ISPCC_EnterChipProgrammingMode
 1473               	.L189:
 1474               	.LM205:
 1475 059a 8CE4      		ldi r24,lo8(76)
 1476 059c 0E94 0000 		call MAIN_ShowProgType
 1477               	.LBB38:
 1478               	.LM206:
 1479 05a0 A0E0      		ldi r26,lo8(EEPROMVars+48)
 1480 05a2 B0E0      		ldi r27,hi8(EEPROMVars+48)
 1481               	.LBB39:
 1482               	.LM207:
 1483               	/* #APP */
 1484 05a4 0E94 0000 		call __eeprom_read_byte_1F2021
 1485 05a8 802D      		mov r24,__tmp_reg__
 1486               	/* #NOAPP */
 1487               	.LBE39:
 1488               	.LBE38:
 1489               	.LM208:
 1490 05aa 8823      		tst r24
 1491 05ac 31F4      		brne .L190
 1492               	.LM209:
 1493 05ae 03E0      		ldi r16,lo8(3)
 1494               	.LM210:
 1495 05b0 80E0      		ldi r24,lo8(__c.10)
 1496 05b2 90E0      		ldi r25,hi8(__c.10)
 1497 05b4 0E94 0000 		call MAIN_ShowError
 1498 05b8 03C0      		rjmp .L188
 1499               	.L190:
 1500               	.LM211:
 1501 05ba 83E0      		ldi r24,lo8(3)
 1502 05bc 0E94 0000 		call PM_SendFuseLockBytes
 1503               	.L188:
 1504               	.LM212:
 1505 05c0 60E0      		ldi r22,lo8(__c.11)
 1506 05c2 70E0      		ldi r23,hi8(__c.11)
 1507 05c4 CE01      		movw r24,r28
 1508 05c6 0196      		adiw r24,1
 1509 05c8 0E94 0000 		call strcpy_P
 1510               	.LM213:
 1511 05cc 0023      		tst r16
 1512 05ce 31F0      		breq .L193
 1513               	.LM214:
 1514 05d0 60E0      		ldi r22,lo8(__c.12)
 1515 05d2 70E0      		ldi r23,hi8(__c.12)
 1516 05d4 CE01      		movw r24,r28
 1517 05d6 0D96      		adiw r24,13
 1518 05d8 0E94 0000 		call strcpy_P
 1519               	.L193:
 1520               	.LM215:
 1521 05dc CE01      		movw r24,r28
 1522 05de 0196      		adiw r24,1
 1523 05e0 0E94 0000 		call LCD_puts
 1524               	.LM216:
 1525 05e4 8FEF      		ldi r24,lo8(-1)
 1526 05e6 0E94 0000 		call MAIN_Delay10MS
 1527               	.LM217:
 1528 05ea 84E6      		ldi r24,lo8(100)
 1529 05ec 0E94 0000 		call MAIN_Delay10MS
 1530 05f0 04C0      		rjmp .L194
 1531               	.L170:
 1532               	.LM218:
 1533 05f2 80E0      		ldi r24,lo8(SyncErrorMessage)
 1534 05f4 90E0      		ldi r25,hi8(SyncErrorMessage)
 1535 05f6 0E94 0000 		call MAIN_ShowError
 1536               	.L194:
 1537               	.LM219:
 1538 05fa 81E0      		ldi r24,lo8(1)
 1539 05fc 0E94 0000 		call MAIN_ResetCSLine
 1540               	.LM220:
 1541 0600 0E94 0000 		call USI_SPIOff
 1542               	.LM221:
 1543 0604 80E0      		ldi r24,lo8(0)
 1544 0606 0E94 0000 		call DF_EnableDataflash
 1545               	.LM222:
 1546 060a 8091 6400 		lds r24,100
 1547 060e 8460      		ori r24,lo8(4)
 1548 0610 8093 6400 		sts 100,r24
 1549               	.LM223:
 1550 0614 81B3      		in r24,49-0x20
 1551 0616 8F7C      		andi r24,lo8(-49)
 1552 0618 8061      		ori r24,lo8(16)
 1553 061a 81BB      		out 49-0x20,r24
 1554               	.L147:
 1555               	/* epilogue: frame size=19 */
 1556 061c 6396      		adiw r28,19
 1557 061e 0FB6      		in __tmp_reg__,__SREG__
 1558 0620 F894      		cli
 1559 0622 DEBF      		out __SP_H__,r29
 1560 0624 0FBE      		out __SREG__,__tmp_reg__
 1561 0626 CDBF      		out __SP_L__,r28
 1562 0628 DF91      		pop r29
 1563 062a CF91      		pop r28
 1564 062c 1F91      		pop r17
 1565 062e 0F91      		pop r16
 1566 0630 0895      		ret
 1567               	/* epilogue end (size=11) */
 1568               	/* function FUNCProgramAVR size 318 (295) */
 1569               	.LFE28:
 1571               		.section	.progmem.data
 1574               	__c.5:
 1575 0247 2A53 544F 		.string	"*STORAGE MODE*"
 1575      5241 4745 
 1575      204D 4F44 
 1575      452A 00
 1576               		.text
 1577               	.global	FUNCStoreProgram
 1579               	FUNCStoreProgram:
 1580               	.LFB29:
 1581               	.LM224:
 1582               	/* prologue: frame size=0 */
 1583               	/* prologue end (size=0) */
 1584               	.LM225:
 1585 0632 80E0      		ldi r24,lo8(pm(SPI_SPITransmit))
 1586 0634 90E0      		ldi r25,hi8(pm(SPI_SPITransmit))
 1587 0636 9093 0000 		sts (DFSPIRoutinePointer)+1,r25
 1588 063a 8093 0000 		sts DFSPIRoutinePointer,r24
 1589               	.LM226:
 1590 063e 0E94 0000 		call SPI_SPIInit
 1591               	.LM227:
 1592 0642 1092 0000 		sts UseExernalDF,__zero_reg__
 1593               	.LM228:
 1594 0646 81E0      		ldi r24,lo8(1)
 1595 0648 0E94 0000 		call DF_EnableDataflash
 1596               	.LM229:
 1597 064c 0E94 0000 		call DF_CheckCorrectOnboardChip
 1598 0650 8823      		tst r24
 1599 0652 A1F0      		breq .L203
 1600               	.LM230:
 1601 0654 80E0      		ldi r24,lo8(__c.5)
 1602 0656 90E0      		ldi r25,hi8(__c.5)
 1603 0658 0E94 0000 		call LCD_puts_f
 1604               	.LM231:
 1605 065c 80E0      		ldi r24,lo8(pm(PM_InterpretAVRISPPacket))
 1606 065e 90E0      		ldi r25,hi8(pm(PM_InterpretAVRISPPacket))
 1607 0660 9093 0000 		sts (InterpretPacketRoutine)+1,r25
 1608 0664 8093 0000 		sts InterpretPacketRoutine,r24
 1609               	.LM232:
 1610 0668 0E94 0000 		call V2P_RunStateMachine
 1611               	.LM233:
 1612 066c 80E0      		ldi r24,lo8(0)
 1613 066e 0E94 0000 		call DF_EnableDataflash
 1614               	.LM234:
 1615 0672 8091 6400 		lds r24,100
 1616 0676 8460      		ori r24,lo8(4)
 1617 0678 8093 6400 		sts 100,r24
 1618               	.L203:
 1619 067c 0895      		ret
 1620               	/* epilogue: frame size=0 */
 1621               	/* epilogue: noreturn */
 1622               	/* epilogue end (size=0) */
 1623               	/* function FUNCStoreProgram size 38 (38) */
 1624               	.LFE29:
 1626               		.section	.progmem.data
 1629               	__c.2:
 1630 0256 434F 4E46 		.string	"CONFIRM"
 1630      4952 4D00 
 1633               	__c.3:
 1634 025e 3C4E 2059 		.string	"<N Y>"
 1634      3E00 
 1637               	__c.4:
 1638 0264 4D45 4D20 		.string	"MEM CLEARED"
 1638      434C 4541 
 1638      5245 4400 
 1639               		.text
 1640               	.global	FUNCClearMem
 1642               	FUNCClearMem:
 1643               	.LFB30:
 1644               	.LM235:
 1645               	/* prologue: frame size=0 */
 1646 067e CF93      		push r28
 1647 0680 DF93      		push r29
 1648               	/* prologue end (size=2) */
 1649               	.LM236:
 1650 0682 80E0      		ldi r24,lo8(__c.2)
 1651 0684 90E0      		ldi r25,hi8(__c.2)
 1652 0686 0E94 0000 		call LCD_puts_f
 1653               	.LM237:
 1654 068a 84EB      		ldi r24,lo8(-76)
 1655 068c 0E94 0000 		call MAIN_Delay10MS
 1656               	.LM238:
 1657 0690 80E0      		ldi r24,lo8(__c.3)
 1658 0692 90E0      		ldi r25,hi8(__c.3)
 1659 0694 0E94 0000 		call LCD_puts_f
 1660               	.L223:
 1661               	.LM239:
 1662 0698 8EB3      		in r24,62-0x20
 1663 069a 8823      		tst r24
 1664 069c E9F3      		breq .L223
 1665               	.LM240:
 1666 069e 8EB3      		in r24,62-0x20
 1667 06a0 9927      		clr r25
 1668 06a2 EC01      		movw r28,r24
 1669 06a4 C470      		andi r28,lo8(4)
 1670 06a6 D070      		andi r29,hi8(4)
 1671 06a8 82FD      		sbrc r24,2
 1672 06aa 1AC0      		rjmp .L206
 1673               	.LM241:
 1674 06ac F39B      		sbis 62-0x20,3
 1675 06ae F4CF      		rjmp .L223
 1676               	.LM242:
 1677 06b0 0E94 0000 		call MAIN_WaitForJoyRelease
 1678               	.LM243:
 1679 06b4 80E0      		ldi r24,lo8(WaitText)
 1680 06b6 90E0      		ldi r25,hi8(WaitText)
 1681 06b8 0E94 0000 		call LCD_puts_f
 1682               	.LBB40:
 1683               	.LM244:
 1684 06bc CE01      		movw r24,r28
 1685 06be 2FEF      		ldi r18,lo8(-1)
 1686               	.L217:
 1687               	.LBB41:
 1688               	.LBB42:
 1689               	.LM245:
 1690 06c0 DC01      		movw r26,r24
 1691               	/* #APP */
 1692 06c2 022E      		mov __tmp_reg__,r18
 1693 06c4 0E94 0000 		call __eeprom_write_byte_1F2021
 1694               	/* #NOAPP */
 1695               	.LBE42:
 1696               	.LBE41:
 1697               	.LM246:
 1698 06c8 0196      		adiw r24,1
 1699 06ca 32E0      		ldi r19,hi8(512)
 1700 06cc 8030      		cpi r24,lo8(512)
 1701 06ce 9307      		cpc r25,r19
 1702 06d0 B8F3      		brlo .L217
 1703               	.LBE40:
 1704               	.LM247:
 1705 06d2 80E0      		ldi r24,lo8(__c.4)
 1706 06d4 90E0      		ldi r25,hi8(__c.4)
 1707 06d6 0E94 0000 		call LCD_puts_f
 1708               	.LM248:
 1709 06da 8FEF      		ldi r24,lo8(-1)
 1710 06dc 0E94 0000 		call MAIN_Delay10MS
 1711               	.L206:
 1712               	/* epilogue: frame size=0 */
 1713 06e0 DF91      		pop r29
 1714 06e2 CF91      		pop r28
 1715 06e4 0895      		ret
 1716               	/* epilogue end (size=3) */
 1717               	/* function FUNCClearMem size 53 (48) */
 1718               	.LFE30:
 1720               	.global	FUNCAutoCalib
 1722               	FUNCAutoCalib:
 1723               	.LFB31:
 1724               	.LM249:
 1725               	/* prologue: frame size=0 */
 1726               	/* prologue end (size=0) */
 1727               	.LM250:
 1728 06e6 80E0      		ldi r24,lo8(WaitText)
 1729 06e8 90E0      		ldi r25,hi8(WaitText)
 1730 06ea 0E94 0000 		call LCD_puts_f
 1731               	.LM251:
 1732 06ee 0E94 0000 		call OSCCAL_Calibrate
 1733               	/* epilogue: frame size=0 */
 1734 06f2 0895      		ret
 1735               	/* epilogue end (size=1) */
 1736               	/* function FUNCAutoCalib size 7 (6) */
 1737               	.LFE31:
 1739               	.global	FUNCSetContrast
 1741               	FUNCSetContrast:
 1742               	.LFB32:
 1743               	.LM252:
 1744               	/* prologue: frame size=6 */
 1745 06f4 EF92      		push r14
 1746 06f6 FF92      		push r15
 1747 06f8 1F93      		push r17
 1748 06fa CF93      		push r28
 1749 06fc DF93      		push r29
 1750 06fe CDB7      		in r28,__SP_L__
 1751 0700 DEB7      		in r29,__SP_H__
 1752 0702 2697      		sbiw r28,6
 1753 0704 0FB6      		in __tmp_reg__,__SREG__
 1754 0706 F894      		cli
 1755 0708 DEBF      		out __SP_H__,r29
 1756 070a 0FBE      		out __SREG__,__tmp_reg__
 1757 070c CDBF      		out __SP_L__,r28
 1758               	/* prologue end (size=13) */
 1759               	.LBB43:
 1760               	.LM253:
 1761 070e 80E0      		ldi r24,lo8(EEPROMVars+133)
 1762 0710 E82E      		mov r14,r24
 1763 0712 80E0      		ldi r24,hi8(EEPROMVars+133)
 1764 0714 F82E      		mov r15,r24
 1765               	.LBB44:
 1766               	.LM254:
 1767 0716 D701      		movw r26,r14
 1768               	/* #APP */
 1769 0718 0E94 0000 		call __eeprom_read_byte_1F2021
 1770 071c 802D      		mov r24,__tmp_reg__
 1771               	/* #NOAPP */
 1772               	.LBE44:
 1773               	.LBE43:
 1774               	.LM255:
 1775 071e 182F      		mov r17,r24
 1776 0720 1F70      		andi r17,lo8(15)
 1777               	.LM256:
 1778 0722 81E0      		ldi r24,lo8(1)
 1779 0724 8EBB      		out 62-0x20,r24
 1780               	.L242:
 1781               	.LM257:
 1782 0726 8EB3      		in r24,62-0x20
 1783 0728 8823      		tst r24
 1784 072a E9F3      		breq .L242
 1785               	.LM258:
 1786 072c F69B      		sbis 62-0x20,6
 1787 072e 04C0      		rjmp .L230
 1788               	.LM259:
 1789 0730 1F30      		cpi r17,lo8(15)
 1790 0732 78F4      		brsh .L232
 1791               	.LM260:
 1792 0734 1F5F      		subi r17,lo8(-(1))
 1793 0736 0DC0      		rjmp .L232
 1794               	.L230:
 1795               	.LM261:
 1796 0738 F79B      		sbis 62-0x20,7
 1797 073a 04C0      		rjmp .L233
 1798               	.LM262:
 1799 073c 1230      		cpi r17,lo8(2)
 1800 073e 48F0      		brlo .L232
 1801               	.LM263:
 1802 0740 1150      		subi r17,lo8(-(-1))
 1803 0742 07C0      		rjmp .L232
 1804               	.L233:
 1805               	.LM264:
 1806 0744 F29B      		sbis 62-0x20,2
 1807 0746 05C0      		rjmp .L232
 1808               	.LBB45:
 1809               	.LBB46:
 1810               	.LM265:
 1811 0748 D701      		movw r26,r14
 1812               	/* #APP */
 1813 074a 012E      		mov __tmp_reg__,r17
 1814 074c 0E94 0000 		call __eeprom_write_byte_1F2021
 1815               	/* #NOAPP */
 1816               	.LBE46:
 1817               	.LBE45:
 1818               	.LM266:
 1819 0750 18C0      		rjmp .L225
 1820               	.L232:
 1821               	.LM267:
 1822 0752 83E4      		ldi r24,lo8(67)
 1823 0754 8983      		std Y+1,r24
 1824               	.LM268:
 1825 0756 84E5      		ldi r24,lo8(84)
 1826 0758 8A83      		std Y+2,r24
 1827               	.LM269:
 1828 075a 80E2      		ldi r24,lo8(32)
 1829 075c 8B83      		std Y+3,r24
 1830               	.LM270:
 1831 075e BE01      		movw r22,r28
 1832 0760 6C5F      		subi r22,lo8(-(4))
 1833 0762 7F4F      		sbci r23,hi8(-(4))
 1834 0764 812F      		mov r24,r17
 1835 0766 9927      		clr r25
 1836 0768 0E94 0000 		call MAIN_IntToStr
 1837               	.LM271:
 1838 076c CE01      		movw r24,r28
 1839 076e 0196      		adiw r24,1
 1840 0770 0E94 0000 		call LCD_puts
 1841               	.LM272:
 1842 0774 812F      		mov r24,r17
 1843 0776 8F70      		andi r24,lo8(15)
 1844 0778 8093 E700 		sts 231,r24
 1845               	.LM273:
 1846 077c 0E94 0000 		call MAIN_WaitForJoyRelease
 1847 0780 D2CF      		rjmp .L242
 1848               	.L225:
 1849               	/* epilogue: frame size=6 */
 1850 0782 2696      		adiw r28,6
 1851 0784 0FB6      		in __tmp_reg__,__SREG__
 1852 0786 F894      		cli
 1853 0788 DEBF      		out __SP_H__,r29
 1854 078a 0FBE      		out __SREG__,__tmp_reg__
 1855 078c CDBF      		out __SP_L__,r28
 1856 078e DF91      		pop r29
 1857 0790 CF91      		pop r28
 1858 0792 1F91      		pop r17
 1859 0794 FF90      		pop r15
 1860 0796 EF90      		pop r14
 1861 0798 0895      		ret
 1862               	/* epilogue end (size=12) */
 1863               	/* function FUNCSetContrast size 85 (60) */
 1864               	.LFE32:
 1866               	.global	FUNCSetISPSpeed
 1868               	FUNCSetISPSpeed:
 1869               	.LFB33:
 1870               	.LM274:
 1871               	/* prologue: frame size=0 */
 1872 079a 0F93      		push r16
 1873 079c 1F93      		push r17
 1874 079e CF93      		push r28
 1875               	/* prologue end (size=3) */
 1876               	.LM275:
 1877 07a0 81E0      		ldi r24,lo8(1)
 1878 07a2 8EBB      		out 62-0x20,r24
 1879               	.LBB47:
 1880               	.LM276:
 1881 07a4 00E0      		ldi r16,lo8(EEPROMVars+1)
 1882 07a6 10E0      		ldi r17,hi8(EEPROMVars+1)
 1883               	.LBB48:
 1884               	.LM277:
 1885 07a8 D801      		movw r26,r16
 1886               	/* #APP */
 1887 07aa 0E94 0000 		call __eeprom_read_byte_1F2021
 1888 07ae 802D      		mov r24,__tmp_reg__
 1889               	/* #NOAPP */
 1890               	.LBE48:
 1891               	.LBE47:
 1892               	.LM278:
 1893 07b0 C82F      		mov r28,r24
 1894               	.LM279:
 1895 07b2 8430      		cpi r24,lo8(4)
 1896 07b4 08F0      		brlo .L262
 1897               	.LM280:
 1898 07b6 C0E0      		ldi r28,lo8(0)
 1899               	.L262:
 1900               	.LM281:
 1901 07b8 8EB3      		in r24,62-0x20
 1902 07ba 8823      		tst r24
 1903 07bc E9F3      		breq .L262
 1904               	.LM282:
 1905 07be F69B      		sbis 62-0x20,6
 1906 07c0 06C0      		rjmp .L249
 1907               	.LM283:
 1908 07c2 CC23      		tst r28
 1909 07c4 11F4      		brne .L250
 1910 07c6 C3E0      		ldi r28,lo8(3)
 1911 07c8 11C0      		rjmp .L252
 1912               	.L250:
 1913 07ca C150      		subi r28,lo8(-(-1))
 1914 07cc 0FC0      		rjmp .L252
 1915               	.L249:
 1916               	.LM284:
 1917 07ce F79B      		sbis 62-0x20,7
 1918 07d0 06C0      		rjmp .L253
 1919               	.LM285:
 1920 07d2 C330      		cpi r28,lo8(3)
 1921 07d4 11F4      		brne .L254
 1922 07d6 C0E0      		ldi r28,lo8(0)
 1923 07d8 09C0      		rjmp .L252
 1924               	.L254:
 1925 07da CF5F      		subi r28,lo8(-(1))
 1926 07dc 07C0      		rjmp .L252
 1927               	.L253:
 1928               	.LM286:
 1929 07de F29B      		sbis 62-0x20,2
 1930 07e0 05C0      		rjmp .L252
 1931               	.LBB49:
 1932               	.LBB50:
 1933               	.LM287:
 1934 07e2 D801      		movw r26,r16
 1935               	/* #APP */
 1936 07e4 0C2E      		mov __tmp_reg__,r28
 1937 07e6 0E94 0000 		call __eeprom_write_byte_1F2021
 1938               	/* #NOAPP */
 1939               	.LBE50:
 1940               	.LBE49:
 1941               	.LM288:
 1942 07ea 0DC0      		rjmp .L243
 1943               	.L252:
 1944               	.LBB51:
 1945               	.LM289:
 1946 07ec EC2F      		mov r30,r28
 1947 07ee FF27      		clr r31
 1948 07f0 EE0F      		add r30,r30
 1949 07f2 FF1F      		adc r31,r31
 1950 07f4 E050      		subi r30,lo8(-(USIPSNamePtrs))
 1951 07f6 F040      		sbci r31,hi8(-(USIPSNamePtrs))
 1952               	.LBE51:
 1953               	/* #APP */
 1954 07f8 8591      		lpm r24, Z+
 1955 07fa 9491      		lpm r25, Z
 1956               		
 1957               	/* #NOAPP */
 1958 07fc 0E94 0000 		call LCD_puts_f
 1959               	.LM290:
 1960 0800 0E94 0000 		call MAIN_WaitForJoyRelease
 1961 0804 D9CF      		rjmp .L262
 1962               	.L243:
 1963               	/* epilogue: frame size=0 */
 1964 0806 CF91      		pop r28
 1965 0808 1F91      		pop r17
 1966 080a 0F91      		pop r16
 1967 080c 0895      		ret
 1968               	/* epilogue end (size=4) */
 1969               	/* function FUNCSetISPSpeed size 64 (57) */
 1970               	.LFE33:
 1972               	.global	FUNCSleepMode
 1974               	FUNCSleepMode:
 1975               	.LFB34:
 1976               	.LM291:
 1977               	/* prologue: frame size=0 */
 1978               	/* prologue end (size=0) */
 1979               	.LM292:
 1980 080e 85E0      		ldi r24,lo8(5)
 1981 0810 83BF      		out 83-0x20,r24
 1982               	.LM293:
 1983 0812 8091 E400 		lds r24,228
 1984 0816 8F77      		andi r24,lo8(127)
 1985 0818 8093 E400 		sts 228,r24
 1986               	.LM294:
 1987 081c F699      		sbic 62-0x20,6
 1988 081e 03C0      		rjmp .L269
 1989               	.L267:
 1990               	.LM295:
 1991               	/* #APP */
 1992 0820 8895      		sleep
 1993               	/* #NOAPP */
 1994 0822 F69B      		sbis 62-0x20,6
 1995 0824 FDCF      		rjmp .L267
 1996               	.L269:
 1997               	.LM296:
 1998 0826 8091 E400 		lds r24,228
 1999 082a 8068      		ori r24,lo8(-128)
 2000 082c 8093 E400 		sts 228,r24
 2001               	.LM297:
 2002 0830 0E94 0000 		call MAIN_WaitForJoyRelease
 2003               	/* epilogue: frame size=0 */
 2004 0834 0895      		ret
 2005               	/* epilogue end (size=1) */
 2006               	/* function FUNCSleepMode size 21 (20) */
 2007               	.LFE34:
 2009               		.section	.progmem.data
 2012               	__c.1:
 2013 0270 4E4F 2053 		.string	"NO STORED PRGM"
 2013      544F 5245 
 2013      4420 5052 
 2013      474D 00
 2014               		.text
 2015               	.global	FUNCStorageInfo
 2017               	FUNCStorageInfo:
 2018               	.LFB35:
 2019               	.LM298:
 2020               	/* prologue: frame size=0 */
 2021 0836 1F93      		push r17
 2022 0838 CF93      		push r28
 2023               	/* prologue end (size=2) */
 2024               	.LM299:
 2025 083a 10E0      		ldi r17,lo8(0)
 2026               	.LM300:
 2027 083c 0E94 0000 		call MAIN_WaitForJoyRelease
 2028               	.LM301:
 2029 0840 81E0      		ldi r24,lo8(1)
 2030 0842 8EBB      		out 62-0x20,r24
 2031               	.L289:
 2032               	.LM302:
 2033 0844 8EB3      		in r24,62-0x20
 2034 0846 8823      		tst r24
 2035 0848 E9F3      		breq .L289
 2036               	.LM303:
 2037 084a CEB3      		in r28,62-0x20
 2038 084c C07C      		andi r28,lo8(-64)
 2039 084e 19F0      		breq .L274
 2040               	.LM304:
 2041 0850 81E0      		ldi r24,lo8(1)
 2042 0852 1827      		eor r17,r24
 2043 0854 38C0      		rjmp .L275
 2044               	.L274:
 2045               	.LM305:
 2046 0856 F299      		sbic 62-0x20,2
 2047 0858 43C0      		rjmp .L270
 2048               	.LM306:
 2049 085a F49B      		sbis 62-0x20,4
 2050 085c 34C0      		rjmp .L275
 2051               	.LM307:
 2052 085e 1130      		cpi r17,lo8(1)
 2053 0860 81F5      		brne .L279
 2054               	.LM308:
 2055 0862 80E0      		ldi r24,lo8(pm(SPI_SPITransmit))
 2056 0864 90E0      		ldi r25,hi8(pm(SPI_SPITransmit))
 2057 0866 9093 0000 		sts (DFSPIRoutinePointer)+1,r25
 2058 086a 8093 0000 		sts DFSPIRoutinePointer,r24
 2059               	.LM309:
 2060 086e 0E94 0000 		call SPI_SPIInit
 2061               	.LM310:
 2062 0872 C093 0000 		sts UseExernalDF,r28
 2063               	.LM311:
 2064 0876 812F      		mov r24,r17
 2065 0878 0E94 0000 		call DF_EnableDataflash
 2066               	.LM312:
 2067 087c 0E94 0000 		call DF_CheckCorrectOnboardChip
 2068 0880 C82F      		mov r28,r24
 2069 0882 8823      		tst r24
 2070 0884 41F0      		breq .L280
 2071               	.LM313:
 2072 0886 0E94 0000 		call TM_ShowTags
 2073               	.LM314:
 2074 088a 8091 6400 		lds r24,100
 2075 088e 8460      		ori r24,lo8(4)
 2076 0890 8093 6400 		sts 100,r24
 2077 0894 18C0      		rjmp .L275
 2078               	.L280:
 2079               	.LM315:
 2080 0896 812F      		mov r24,r17
 2081 0898 0E94 0000 		call PM_GetStoredDataSize
 2082 089c DC01      		movw r26,r24
 2083 089e CB01      		movw r24,r22
 2084 08a0 0097      		sbiw r24,0
 2085 08a2 A105      		cpc r26,__zero_reg__
 2086 08a4 B105      		cpc r27,__zero_reg__
 2087 08a6 79F4      		brne .L275
 2088               	.LM316:
 2089 08a8 8C2F      		mov r24,r28
 2090 08aa 0E94 0000 		call DF_EnableDataflash
 2091               	.LM317:
 2092 08ae 8091 6400 		lds r24,100
 2093 08b2 8460      		ori r24,lo8(4)
 2094 08b4 8093 6400 		sts 100,r24
 2095               	.LM318:
 2096 08b8 80E0      		ldi r24,lo8(__c.1)
 2097 08ba 90E0      		ldi r25,hi8(__c.1)
 2098 08bc 0E94 0000 		call MAIN_ShowError
 2099 08c0 02C0      		rjmp .L275
 2100               	.L279:
 2101               	.LM319:
 2102 08c2 0E94 0000 		call PM_ShowStoredItemSizes
 2103               	.L275:
 2104               	.LBB52:
 2105               	.LM320:
 2106 08c6 E12F      		mov r30,r17
 2107 08c8 FF27      		clr r31
 2108 08ca EE0F      		add r30,r30
 2109 08cc FF1F      		adc r31,r31
 2110 08ce E050      		subi r30,lo8(-(SIFOOptionPtrs))
 2111 08d0 F040      		sbci r31,hi8(-(SIFOOptionPtrs))
 2112               	.LBE52:
 2113               	/* #APP */
 2114 08d2 8591      		lpm r24, Z+
 2115 08d4 9491      		lpm r25, Z
 2116               		
 2117               	/* #NOAPP */
 2118 08d6 0E94 0000 		call LCD_puts_f
 2119               	.LM321:
 2120 08da 0E94 0000 		call MAIN_WaitForJoyRelease
 2121 08de B2CF      		rjmp .L289
 2122               	.L270:
 2123               	/* epilogue: frame size=0 */
 2124 08e0 CF91      		pop r28
 2125 08e2 1F91      		pop r17
 2126 08e4 0895      		ret
 2127               	/* epilogue end (size=3) */
 2128               	/* function FUNCStorageInfo size 93 (88) */
 2129               	.LFE35:
 2131               		.section	.progmem.data
 2134               	__c.0:
 2135 027f 2A4A 5441 		.string	"*JTAG ON*"
 2135      4720 4F4E 
 2135      2A00 
 2136               		.text
 2137               	.global	FUNCGoBootloader
 2139               	FUNCGoBootloader:
 2140               	.LFB36:
 2141               	.LM322:
 2142               	/* prologue: frame size=0 */
 2143               	/* prologue end (size=0) */
 2144               	.LM323:
 2145 08e6 85B7      		in r24,85-0x20
 2146 08e8 8F77      		andi r24,lo8(127)
 2147               	.LM324:
 2148 08ea 85BF      		out 85-0x20,r24
 2149               	.LM325:
 2150 08ec 85BF      		out 85-0x20,r24
 2151               	.LM326:
 2152 08ee 80E0      		ldi r24,lo8(__c.0)
 2153 08f0 90E0      		ldi r25,hi8(__c.0)
 2154 08f2 0E94 0000 		call LCD_puts_f
 2155               	.LM327:
 2156 08f6 0E94 0000 		call MAIN_WaitForJoyRelease
 2157               	.LM328:
 2158 08fa 88E1      		ldi r24,lo8(24)
 2159 08fc 8093 6000 		sts 96,r24
 2160               	.L291:
 2161               	.LM329:
 2162 0900 FFCF      		rjmp .L291
 2163               	/* epilogue: frame size=0 */
 2164               	/* epilogue: noreturn */
 2165               	/* epilogue end (size=0) */
 2166               	/* function FUNCGoBootloader size 14 (14) */
 2167               	.LFE36:
 2169               	.Letext0:
DEFINED SYMBOLS
                            *ABS*:00000000 Main.c
C:\DOCUME~1\Dean\LOCALS~1\Temp/ccIRaaaa.s:3      *ABS*:0000003f __SREG__
C:\DOCUME~1\Dean\LOCALS~1\Temp/ccIRaaaa.s:4      *ABS*:0000003e __SP_H__
C:\DOCUME~1\Dean\LOCALS~1\Temp/ccIRaaaa.s:5      *ABS*:0000003d __SP_L__
C:\DOCUME~1\Dean\LOCALS~1\Temp/ccIRaaaa.s:6      *ABS*:00000000 __tmp_reg__
C:\DOCUME~1\Dean\LOCALS~1\Temp/ccIRaaaa.s:7      *ABS*:00000001 __zero_reg__
C:\DOCUME~1\Dean\LOCALS~1\Temp/ccIRaaaa.s:22     .progmem.data:00000000 SIFOOptionPtrs
C:\DOCUME~1\Dean\LOCALS~1\Temp/ccIRaaaa.s:33     .progmem.data:00000013 SIFO_Size
C:\DOCUME~1\Dean\LOCALS~1\Temp/ccIRaaaa.s:28     .progmem.data:00000004 SIFO_Tags
C:\DOCUME~1\Dean\LOCALS~1\Temp/ccIRaaaa.s:38     .progmem.data:00000021 USIPSNamePtrs
C:\DOCUME~1\Dean\LOCALS~1\Temp/ccIRaaaa.s:61     .progmem.data:00000047 USI_Speed0
C:\DOCUME~1\Dean\LOCALS~1\Temp/ccIRaaaa.s:56     .progmem.data:0000003d USI_Speed1
C:\DOCUME~1\Dean\LOCALS~1\Temp/ccIRaaaa.s:51     .progmem.data:00000033 USI_Speed2
C:\DOCUME~1\Dean\LOCALS~1\Temp/ccIRaaaa.s:46     .progmem.data:00000029 USI_Speed3
C:\DOCUME~1\Dean\LOCALS~1\Temp/ccIRaaaa.s:66     .progmem.data:00000051 ProgOptions
C:\DOCUME~1\Dean\LOCALS~1\Temp/ccIRaaaa.s:107    .progmem.data:000000ba PRG_D
C:\DOCUME~1\Dean\LOCALS~1\Temp/ccIRaaaa.s:102    .progmem.data:000000ae PRG_E
C:\DOCUME~1\Dean\LOCALS~1\Temp/ccIRaaaa.s:97     .progmem.data:0000009e PRG_DE
C:\DOCUME~1\Dean\LOCALS~1\Temp/ccIRaaaa.s:92     .progmem.data:0000008e PRG_F
C:\DOCUME~1\Dean\LOCALS~1\Temp/ccIRaaaa.s:87     .progmem.data:0000007e PRG_L
C:\DOCUME~1\Dean\LOCALS~1\Temp/ccIRaaaa.s:82     .progmem.data:0000006a PRG_FL
C:\DOCUME~1\Dean\LOCALS~1\Temp/ccIRaaaa.s:77     .progmem.data:0000005f PRG_C
C:\DOCUME~1\Dean\LOCALS~1\Temp/ccIRaaaa.s:112    .progmem.data:000000c4 SettingFunctionPtrs
C:\DOCUME~1\Dean\LOCALS~1\Temp/ccIRaaaa.s:1741   .text:000006f4 FUNCSetContrast
C:\DOCUME~1\Dean\LOCALS~1\Temp/ccIRaaaa.s:1868   .text:0000079a FUNCSetISPSpeed
C:\DOCUME~1\Dean\LOCALS~1\Temp/ccIRaaaa.s:1642   .text:0000067e FUNCClearMem
C:\DOCUME~1\Dean\LOCALS~1\Temp/ccIRaaaa.s:2139   .text:000008e6 FUNCGoBootloader
C:\DOCUME~1\Dean\LOCALS~1\Temp/ccIRaaaa.s:120    .progmem.data:000000cc SettingFunctionNames
C:\DOCUME~1\Dean\LOCALS~1\Temp/ccIRaaaa.s:143    .progmem.data:00000102 SFunc_SETCONTRAST
C:\DOCUME~1\Dean\LOCALS~1\Temp/ccIRaaaa.s:138    .progmem.data:000000f4 SFunc_SETSPISPEED
C:\DOCUME~1\Dean\LOCALS~1\Temp/ccIRaaaa.s:133    .progmem.data:000000e7 SFunc_CLEARMEM
C:\DOCUME~1\Dean\LOCALS~1\Temp/ccIRaaaa.s:128    .progmem.data:000000d4 SFunc_GOBOOTLOADER
C:\DOCUME~1\Dean\LOCALS~1\Temp/ccIRaaaa.s:148    .progmem.data:0000010f MainFunctionPtrs
C:\DOCUME~1\Dean\LOCALS~1\Temp/ccIRaaaa.s:1054   .text:00000364 FUNCAVRISPMode
C:\DOCUME~1\Dean\LOCALS~1\Temp/ccIRaaaa.s:1579   .text:00000632 FUNCStoreProgram
C:\DOCUME~1\Dean\LOCALS~1\Temp/ccIRaaaa.s:1161   .text:000003c8 FUNCProgramAVR
C:\DOCUME~1\Dean\LOCALS~1\Temp/ccIRaaaa.s:1078   .text:0000037e FUNCProgramDataflash
C:\DOCUME~1\Dean\LOCALS~1\Temp/ccIRaaaa.s:2017   .text:00000836 FUNCStorageInfo
C:\DOCUME~1\Dean\LOCALS~1\Temp/ccIRaaaa.s:961    .text:000002fa FUNCChangeSettings
C:\DOCUME~1\Dean\LOCALS~1\Temp/ccIRaaaa.s:1974   .text:0000080e FUNCSleepMode
C:\DOCUME~1\Dean\LOCALS~1\Temp/ccIRaaaa.s:159    .progmem.data:0000011d MainFunctionNames
C:\DOCUME~1\Dean\LOCALS~1\Temp/ccIRaaaa.s:200    .progmem.data:00000179 Func_ISPPRGM
C:\DOCUME~1\Dean\LOCALS~1\Temp/ccIRaaaa.s:195    .progmem.data:0000016e Func_STOREPRGM
C:\DOCUME~1\Dean\LOCALS~1\Temp/ccIRaaaa.s:190    .progmem.data:00000162 Func_PRGMAVR
C:\DOCUME~1\Dean\LOCALS~1\Temp/ccIRaaaa.s:185    .progmem.data:0000014e Func_PRGMDATAFLASH
C:\DOCUME~1\Dean\LOCALS~1\Temp/ccIRaaaa.s:180    .progmem.data:0000013f Func_PRGMSTOREINFO
C:\DOCUME~1\Dean\LOCALS~1\Temp/ccIRaaaa.s:175    .progmem.data:00000136 Func_SETTINGS
C:\DOCUME~1\Dean\LOCALS~1\Temp/ccIRaaaa.s:170    .progmem.data:0000012b Func_SLEEP
C:\DOCUME~1\Dean\LOCALS~1\Temp/ccIRaaaa.s:205    .progmem.data:00000185 AboutTextPtrs
C:\DOCUME~1\Dean\LOCALS~1\Temp/ccIRaaaa.s:232    .progmem.data:000001b0 ProgrammerName
C:\DOCUME~1\Dean\LOCALS~1\Temp/ccIRaaaa.s:223    .progmem.data:000001ab VersionInfo
C:\DOCUME~1\Dean\LOCALS~1\Temp/ccIRaaaa.s:218    .progmem.data:0000019c AuthorName
C:\DOCUME~1\Dean\LOCALS~1\Temp/ccIRaaaa.s:213    .progmem.data:0000018d CopyRight
C:\DOCUME~1\Dean\LOCALS~1\Temp/ccIRaaaa.s:237    .progmem.data:000001b9 WaitText
C:\DOCUME~1\Dean\LOCALS~1\Temp/ccIRaaaa.s:242    .progmem.data:000001c0 BUTTTAG_Author
C:\DOCUME~1\Dean\LOCALS~1\Temp/ccIRaaaa.s:251    .progmem.data:000001d3 BUTTTAG_Name
C:\DOCUME~1\Dean\LOCALS~1\Temp/ccIRaaaa.s:260    .text:00000000 MAIN_Delay10MS
C:\DOCUME~1\Dean\LOCALS~1\Temp/ccIRaaaa.s:304    .text:00000024 MAIN_WaitForJoyRelease
C:\DOCUME~1\Dean\LOCALS~1\Temp/ccIRaaaa.s:329    .text:00000038 FUNCShowAbout
C:\DOCUME~1\Dean\LOCALS~1\Temp/ccIRaaaa.s:401    .text:00000088 main
C:\DOCUME~1\Dean\LOCALS~1\Temp/ccIRaaaa.s:632    .text:000001a6 MAIN_Delay1MS
C:\DOCUME~1\Dean\LOCALS~1\Temp/ccIRaaaa.s:676    .text:000001ca MAIN_ResetCSLine
C:\DOCUME~1\Dean\LOCALS~1\Temp/ccIRaaaa.s:738    .text:00000202 MAIN_IntToStr
C:\DOCUME~1\Dean\LOCALS~1\Temp/ccIRaaaa.s:791    .progmem.data:000001e7 __c.14
C:\DOCUME~1\Dean\LOCALS~1\Temp/ccIRaaaa.s:796    .text:00000232 MAIN_ShowProgType
C:\DOCUME~1\Dean\LOCALS~1\Temp/ccIRaaaa.s:844    .text:00000276 MAIN_ShowError
C:\DOCUME~1\Dean\LOCALS~1\Temp/ccIRaaaa.s:898    .text:000002c2 __vector_3
C:\DOCUME~1\Dean\LOCALS~1\Temp/ccIRaaaa.s:935    .progmem.data:000001ed __c.13
C:\DOCUME~1\Dean\LOCALS~1\Temp/ccIRaaaa.s:940    .text:000002f0 __vector_default
C:\DOCUME~1\Dean\LOCALS~1\Temp/ccIRaaaa.s:1132   .progmem.data:000001f4 __c.6
C:\DOCUME~1\Dean\LOCALS~1\Temp/ccIRaaaa.s:1136   .progmem.data:00000201 __c.7
C:\DOCUME~1\Dean\LOCALS~1\Temp/ccIRaaaa.s:1140   .progmem.data:00000209 __c.8
C:\DOCUME~1\Dean\LOCALS~1\Temp/ccIRaaaa.s:1144   .progmem.data:00000213 __c.9
C:\DOCUME~1\Dean\LOCALS~1\Temp/ccIRaaaa.s:1148   .progmem.data:00000221 __c.10
C:\DOCUME~1\Dean\LOCALS~1\Temp/ccIRaaaa.s:1152   .progmem.data:0000022f __c.11
C:\DOCUME~1\Dean\LOCALS~1\Temp/ccIRaaaa.s:1156   .progmem.data:00000240 __c.12
C:\DOCUME~1\Dean\LOCALS~1\Temp/ccIRaaaa.s:1574   .progmem.data:00000247 __c.5
C:\DOCUME~1\Dean\LOCALS~1\Temp/ccIRaaaa.s:1629   .progmem.data:00000256 __c.2
C:\DOCUME~1\Dean\LOCALS~1\Temp/ccIRaaaa.s:1633   .progmem.data:0000025e __c.3
C:\DOCUME~1\Dean\LOCALS~1\Temp/ccIRaaaa.s:1637   .progmem.data:00000264 __c.4
C:\DOCUME~1\Dean\LOCALS~1\Temp/ccIRaaaa.s:1722   .text:000006e6 FUNCAutoCalib
C:\DOCUME~1\Dean\LOCALS~1\Temp/ccIRaaaa.s:2012   .progmem.data:00000270 __c.1
C:\DOCUME~1\Dean\LOCALS~1\Temp/ccIRaaaa.s:2134   .progmem.data:0000027f __c.0

UNDEFINED SYMBOLS
__do_copy_data
__do_clear_bss
LCD_puts_f
__stack
EEPROMVars
__eeprom_read_byte_1F2021
__eeprom_write_byte_1F2021
LCD_Init
DF_EnableDataflash
USART_Init
OSCCAL_Calibrate
strcpy_P
LCD_puts
AVRISPModeMessage
AICI_InterpretPacket
InterpretPacketRoutine
V2P_RunStateMachine
USI_SPIInitMaster
UseExernalDF
USI_SPITransmit
DFSPIRoutinePointer
DataFlashProgMode
PD_InterpretAVRISPPacket
SPI_SPIInit
SPI_SPITransmit
DF_CheckCorrectOnboardChip
PacketBytes
ISPCC_EnterChipProgrammingMode
CurrAddress
PM_SendEraseCommand
PM_GetStoredDataSize
PM_CreateProgrammingPackets
PM_SendFuseLockBytes
SyncErrorMessage
USI_SPIOff
PM_InterpretAVRISPPacket
TM_ShowTags
PM_ShowStoredItemSizes
