   1               		.file	"Main.c"
   2               		.arch atmega169
   3               	__SREG__ = 0x3f
   4               	__SP_H__ = 0x3e
   5               	__SP_L__ = 0x3d
   6               	__tmp_reg__ = 0
   7               	__zero_reg__ = 1
   8               		.global __do_copy_data
   9               		.global __do_clear_bss
  17               	.Ltext0:
  18               	.global	MAIN_Delay10MS
  20               	MAIN_Delay10MS:
  21               	.LFB15:
  22               	.LM1:
  23               	/* prologue: frame size=0 */
  24               	/* prologue end (size=0) */
  25               	.LVL0:
  26 0000 282F      		mov r18,r24
  27 0002 E0E0      		ldi r30,lo8(18432)
  28 0004 F8E4      		ldi r31,hi8(18432)
  29 0006 00C0      		rjmp .L2
  30               	.LVL1:
  31               	.L3:
  32               	.LBB16:
  33               	.LBB17:
  34               	.LBB18:
  35               	.LBB19:
  36               	.LM2:
  37 0008 CF01      		movw r24,r30
  38               	/* #APP */
  39 000a 0197      		1: sbiw r24,1
  40 000c 01F4      		brne 1b
  41               	.LVL2:
  42               	/* #NOAPP */
  43               	.L2:
  44               	.LBE19:
  45               	.LBE18:
  46               	.LBE17:
  47               	.LBE16:
  48               	.LM3:
  49 000e 2150      		subi r18,1
  50 0010 00F4      		brcc .L3
  51               	/* epilogue: frame size=0 */
  52 0012 0895      		ret
  53               	/* epilogue end (size=1) */
  54               	/* function MAIN_Delay10MS size 11 (10) */
  55               	.LFE15:
  57               	.global	MAIN_Delay1MS
  59               	MAIN_Delay1MS:
  60               	.LFB16:
  61               	.LM4:
  62               	/* prologue: frame size=0 */
  63               	/* prologue end (size=0) */
  64               	.LVL3:
  65 0014 282F      		mov r18,r24
  66 0016 E3E3      		ldi r30,lo8(1843)
  67 0018 F7E0      		ldi r31,hi8(1843)
  68 001a 00C0      		rjmp .L7
  69               	.LVL4:
  70               	.L8:
  71               	.LBB24:
  72               	.LBB25:
  73               	.LBB26:
  74               	.LBB27:
  75               	.LM5:
  76 001c CF01      		movw r24,r30
  77               	/* #APP */
  78 001e 0197      		1: sbiw r24,1
  79 0020 01F4      		brne 1b
  80               	.LVL5:
  81               	/* #NOAPP */
  82               	.L7:
  83               	.LBE27:
  84               	.LBE26:
  85               	.LBE25:
  86               	.LBE24:
  87               	.LM6:
  88 0022 2150      		subi r18,1
  89 0024 00F4      		brcc .L8
  90               	/* epilogue: frame size=0 */
  91 0026 0895      		ret
  92               	/* epilogue end (size=1) */
  93               	/* function MAIN_Delay1MS size 11 (10) */
  94               	.LFE16:
  96               	.global	MAIN_ResetCSLine
  98               	MAIN_ResetCSLine:
  99               	.LFB17:
 100               	.LM7:
 101               	/* prologue: frame size=0 */
 102               	/* prologue end (size=0) */
 103               	.LVL6:
 104               	.LM8:
 105 0028 8130      		cpi r24,lo8(1)
 106 002a 01F0      		breq .L14
 107               	.LM9:
 108 002c 8130      		cpi r24,lo8(1)
 109 002e 00F0      		brlo .L13
 110 0030 8230      		cpi r24,lo8(2)
 111 0032 01F4      		brne .L22
 112 0034 00C0      		rjmp .L15
 113               	.L13:
 114               	.LM10:
 115 0036 869A      		sbi 48-0x20,6
 116               	.LBB28:
 117               	.LBB29:
 118               	.LM11:
 119 0038 A0E0      		ldi r26,lo8(EEPROMVars+1)
 120 003a B0E0      		ldi r27,hi8(EEPROMVars+1)
 121               	/* #APP */
 122 003c 0E94 0000 		call __eeprom_read_byte_1F2021
 123 0040 802D      		mov r24,__tmp_reg__
 124               	.LVL7:
 125               	/* #NOAPP */
 126               	.LBE29:
 127               	.LBE28:
 128               	.LM12:
 129 0042 8823      		tst r24
 130 0044 01F4      		brne .L23
 131 0046 00C0      		rjmp .L24
 132               	.LVL8:
 133               	.L15:
 134               	.LM13:
 135 0048 869A      		sbi 48-0x20,6
 136 004a 00C0      		rjmp .L23
 137               	.L14:
 138               	.LBB30:
 139               	.LBB31:
 140               	.LM14:
 141 004c A0E0      		ldi r26,lo8(EEPROMVars+137)
 142 004e B0E0      		ldi r27,hi8(EEPROMVars+137)
 143               	/* #APP */
 144 0050 0E94 0000 		call __eeprom_read_byte_1F2021
 145 0054 802D      		mov r24,__tmp_reg__
 146               	.LVL9:
 147               	/* #NOAPP */
 148               	.LBE31:
 149               	.LBE30:
 150               	.LM15:
 151 0056 8823      		tst r24
 152 0058 01F0      		breq .L18
 153               	.LM16:
 154 005a 8698      		cbi 48-0x20,6
 155               	.LVL10:
 156               	.L23:
 157               	.LM17:
 158 005c 8E98      		cbi 49-0x20,6
 159 005e 0895      		ret
 160               	.LVL11:
 161               	.L18:
 162               	.LBB32:
 163               	.LBB33:
 164               	.LM18:
 165 0060 A0E0      		ldi r26,lo8(EEPROMVars+1)
 166 0062 B0E0      		ldi r27,hi8(EEPROMVars+1)
 167               	.LVL12:
 168               	/* #APP */
 169 0064 0E94 0000 		call __eeprom_read_byte_1F2021
 170 0068 802D      		mov r24,__tmp_reg__
 171               	.LVL13:
 172               	/* #NOAPP */
 173               	.LBE33:
 174               	.LBE32:
 175               	.LM19:
 176 006a 8823      		tst r24
 177 006c 01F0      		breq .L20
 178               	.LVL14:
 179               	.L24:
 180               	.LM20:
 181 006e 8E9A      		sbi 49-0x20,6
 182 0070 0895      		ret
 183               	.LVL15:
 184               	.L20:
 185               	.LM21:
 186 0072 8E98      		cbi 49-0x20,6
 187               	.LVL16:
 188               	.L22:
 189 0074 0895      		ret
 190               	/* epilogue: frame size=0 */
 191               	/* epilogue: noreturn */
 192               	/* epilogue end (size=0) */
 193               	/* function MAIN_ResetCSLine size 42 (42) */
 194               	.LFE17:
 196               	.global	MAIN_WaitForJoyRelease
 198               	MAIN_WaitForJoyRelease:
 199               	.LFB18:
 200               	.LM22:
 201               	/* prologue: frame size=0 */
 202               	/* prologue end (size=0) */
 203               	.L36:
 204               	.LM23:
 205 0076 8EB3      		in r24,62-0x20
 206 0078 8823      		tst r24
 207 007a 01F4      		brne .L36
 208               	.LM24:
 209 007c 82E0      		ldi r24,lo8(2)
 210 007e 0E94 0000 		call MAIN_Delay10MS
 211               	.LM25:
 212 0082 8EB3      		in r24,62-0x20
 213 0084 8823      		tst r24
 214 0086 01F4      		brne .L36
 215               	/* epilogue: frame size=0 */
 216 0088 0895      		ret
 217               	/* epilogue end (size=1) */
 218               	/* function MAIN_WaitForJoyRelease size 10 (9) */
 219               	.LFE18:
 221               	.global	MAIN_IntToStr
 223               	MAIN_IntToStr:
 224               	.LFB19:
 225               	.LM26:
 226               	/* prologue: frame size=0 */
 227 008a CF93      		push r28
 228 008c DF93      		push r29
 229               	/* prologue end (size=2) */
 230               	.LVL17:
 231 008e FB01      		movw r30,r22
 232 0090 20E0      		ldi r18,lo8(0)
 233               	.LVL18:
 234 0092 00C0      		rjmp .L38
 235               	.LVL19:
 236               	.L39:
 237               	.LM27:
 238 0094 2F5F      		subi r18,lo8(-(1))
 239               	.LM28:
 240 0096 8456      		subi r24,lo8(-(-100))
 241 0098 9040      		sbci r25,hi8(-(-100))
 242               	.L38:
 243               	.LM29:
 244 009a 8436      		cpi r24,100
 245 009c 9105      		cpc r25,__zero_reg__
 246 009e 00F4      		brsh .L39
 247               	.LM30:
 248 00a0 205D      		subi r18,lo8(-(48))
 249 00a2 2193      		st Z+,r18
 250 00a4 DF01      		movw r26,r30
 251               	.LVL20:
 252 00a6 20E0      		ldi r18,lo8(0)
 253               	.LVL21:
 254 00a8 00C0      		rjmp .L41
 255               	.L42:
 256               	.LM31:
 257 00aa 2F5F      		subi r18,lo8(-(1))
 258               	.LM32:
 259 00ac 0A97      		sbiw r24,10
 260               	.L41:
 261               	.LM33:
 262 00ae 8A30      		cpi r24,10
 263 00b0 9105      		cpc r25,__zero_reg__
 264 00b2 00F4      		brsh .L42
 265               	.LM34:
 266 00b4 205D      		subi r18,lo8(-(48))
 267 00b6 FD01      		movw r30,r26
 268               	.LVL22:
 269 00b8 2193      		st Z+,r18
 270               	.LM35:
 271 00ba 805D      		subi r24,lo8(-(48))
 272               	.LVL23:
 273 00bc ED01      		movw r28,r26
 274 00be 8983      		std Y+1,r24
 275               	.LM36:
 276 00c0 1182      		std Z+1,__zero_reg__
 277               	/* epilogue: frame size=0 */
 278 00c2 DF91      		pop r29
 279 00c4 CF91      		pop r28
 280 00c6 0895      		ret
 281               	/* epilogue end (size=3) */
 282               	/* function MAIN_IntToStr size 31 (26) */
 283               	.LFE19:
 285               	.global	__vector_3
 287               	__vector_3:
 288               	.LFB23:
 289               	.LM37:
 290               	/* prologue: frame size=0 */
 291 00c8 7894      		sei
 292 00ca 1F92      		push __zero_reg__
 293 00cc 0F92      		push __tmp_reg__
 294 00ce 0FB6      		in __tmp_reg__,__SREG__
 295 00d0 0F92      		push __tmp_reg__
 296 00d2 1124      		clr __zero_reg__
 297 00d4 8F93      		push r24
 298 00d6 9F93      		push r25
 299               	/* prologue end (size=8) */
 300               	.LM38:
 301 00d8 83B1      		in r24,35-0x20
 302 00da 9CB1      		in r25,44-0x20
 303 00dc 8095      		com r24
 304 00de 807D      		andi r24,lo8(-48)
 305 00e0 9095      		com r25
 306 00e2 9C70      		andi r25,lo8(12)
 307 00e4 892B      		or r24,r25
 308 00e6 8EBB      		out 62-0x20,r24
 309               	.LM39:
 310 00e8 1092 0000 		sts (SleepTimeOutTicks)+1,__zero_reg__
 311 00ec 1092 0000 		sts SleepTimeOutTicks,__zero_reg__
 312 00f0 1092 8500 		sts (132)+1,__zero_reg__
 313 00f4 1092 8400 		sts 132,__zero_reg__
 314               	/* epilogue: frame size=0 */
 315 00f8 9F91      		pop r25
 316 00fa 8F91      		pop r24
 317 00fc 0F90      		pop __tmp_reg__
 318 00fe 0FBE      		out __SREG__,__tmp_reg__
 319 0100 0F90      		pop __tmp_reg__
 320 0102 1F90      		pop __zero_reg__
 321 0104 1895      		reti
 322               	/* epilogue end (size=7) */
 323               	/* function __vector_3 size 31 (16) */
 324               	.LFE23:
 326               	.global	FUNCSleepMode
 328               	FUNCSleepMode:
 329               	.LFB37:
 330               	.LM40:
 331               	/* prologue: frame size=0 */
 332               	/* prologue end (size=0) */
 333               	.LM41:
 334 0106 85E0      		ldi r24,lo8(5)
 335 0108 83BF      		out 83-0x20,r24
 336               	.LM42:
 337 010a 8091 E400 		lds r24,228
 338 010e 8F77      		andi r24,lo8(127)
 339 0110 8093 E400 		sts 228,r24
 340               	.LM43:
 341 0114 81B3      		in r24,49-0x20
 342 0116 8F7C      		andi r24,lo8(-49)
 343 0118 81BB      		out 49-0x20,r24
 344 011a 00C0      		rjmp .L48
 345               	.L49:
 346               	.LM44:
 347               	/* #APP */
 348 011c 8895      		sleep
 349               	/* #NOAPP */
 350               	.L48:
 351               	.LM45:
 352 011e F69B      		sbis 62-0x20,6
 353 0120 00C0      		rjmp .L49
 354               	.LM46:
 355 0122 81B3      		in r24,49-0x20
 356 0124 8F7C      		andi r24,lo8(-49)
 357 0126 8061      		ori r24,lo8(16)
 358 0128 81BB      		out 49-0x20,r24
 359               	.LM47:
 360 012a 8091 E400 		lds r24,228
 361 012e 8068      		ori r24,lo8(-128)
 362 0130 8093 E400 		sts 228,r24
 363               	.LM48:
 364 0134 0E94 0000 		call MAIN_WaitForJoyRelease
 365               	/* epilogue: frame size=0 */
 366 0138 0895      		ret
 367               	/* epilogue end (size=1) */
 368               	/* function FUNCSleepMode size 27 (26) */
 369               	.LFE37:
 371               	.global	FUNCGoBootloader
 373               	FUNCGoBootloader:
 374               	.LFB39:
 375               	.LM49:
 376               	/* prologue: frame size=0 */
 377               	/* prologue end (size=0) */
 378               	.LM50:
 379 013a 85B7      		in r24,85-0x20
 380               	.LVL24:
 381 013c 8F77      		andi r24,lo8(127)
 382               	.LM51:
 383 013e 85BF      		out 85-0x20,r24
 384               	.LM52:
 385 0140 85BF      		out 85-0x20,r24
 386               	.LM53:
 387 0142 1092 8100 		sts 129,__zero_reg__
 388               	.LM54:
 389 0146 80E0      		ldi r24,lo8(__c.2500)
 390 0148 90E0      		ldi r25,hi8(__c.2500)
 391               	.LVL25:
 392 014a 0E94 0000 		call LCD_puts_f
 393               	.LM55:
 394 014e 0E94 0000 		call MAIN_WaitForJoyRelease
 395               	.LM56:
 396 0152 88E1      		ldi r24,lo8(24)
 397 0154 8093 6000 		sts 96,r24
 398               	.L53:
 399 0158 00C0      		rjmp .L53
 400               	/* epilogue: frame size=0 */
 401               	/* epilogue: noreturn */
 402               	/* epilogue end (size=0) */
 403               	/* function FUNCGoBootloader size 16 (16) */
 404               	.LFE39:
 406               	.global	FUNCShowAbout
 408               	FUNCShowAbout:
 409               	.LFB26:
 410               	.LM57:
 411               	/* prologue: frame size=0 */
 412 015a 1F93      		push r17
 413               	/* prologue end (size=1) */
 414               	.LM58:
 415 015c 81E0      		ldi r24,lo8(1)
 416 015e 8EBB      		out 62-0x20,r24
 417 0160 10E0      		ldi r17,lo8(0)
 418               	.LVL26:
 419               	.L74:
 420               	.LM59:
 421 0162 8EB3      		in r24,62-0x20
 422 0164 8823      		tst r24
 423 0166 01F0      		breq .L74
 424               	.LM60:
 425 0168 F69B      		sbis 62-0x20,6
 426 016a 00C0      		rjmp .L58
 427               	.LM61:
 428 016c 1123      		tst r17
 429 016e 01F4      		brne .L60
 430 0170 13E0      		ldi r17,lo8(3)
 431 0172 00C0      		rjmp .L62
 432               	.L60:
 433 0174 1150      		subi r17,lo8(-(-1))
 434 0176 00C0      		rjmp .L62
 435               	.L58:
 436               	.LM62:
 437 0178 F79B      		sbis 62-0x20,7
 438 017a 00C0      		rjmp .L63
 439               	.LM63:
 440 017c 1330      		cpi r17,lo8(3)
 441 017e 01F4      		brne .L65
 442 0180 10E0      		ldi r17,lo8(0)
 443 0182 00C0      		rjmp .L62
 444               	.L65:
 445 0184 1F5F      		subi r17,lo8(-(1))
 446 0186 00C0      		rjmp .L62
 447               	.L63:
 448               	.LM64:
 449 0188 F299      		sbic 62-0x20,2
 450 018a 00C0      		rjmp .L68
 451               	.L62:
 452               	.LBB34:
 453               	.LM65:
 454 018c E12F      		mov r30,r17
 455 018e FF27      		clr r31
 456               	.LVL27:
 457 0190 EE0F      		lsl r30
 458 0192 FF1F      		rol r31
 459 0194 E050      		subi r30,lo8(-(AboutTextPtrs))
 460 0196 F040      		sbci r31,hi8(-(AboutTextPtrs))
 461               	.LBE34:
 462               	/* #APP */
 463 0198 8591      		lpm r24, Z+
 464 019a 9491      		lpm r25, Z
 465               		
 466               	.LVL28:
 467               	/* #NOAPP */
 468 019c 0E94 0000 		call LCD_puts_f
 469               	.LVL29:
 470               	.LM66:
 471 01a0 0E94 0000 		call MAIN_WaitForJoyRelease
 472 01a4 00C0      		rjmp .L74
 473               	.L68:
 474               	/* epilogue: frame size=0 */
 475 01a6 1F91      		pop r17
 476 01a8 0895      		ret
 477               	/* epilogue end (size=2) */
 478               	/* function FUNCShowAbout size 44 (41) */
 479               	.LFE26:
 481               	.global	FUNCChangeSettings
 483               	FUNCChangeSettings:
 484               	.LFB25:
 485               	.LM67:
 486               	/* prologue: frame size=0 */
 487 01aa 1F93      		push r17
 488               	/* prologue end (size=1) */
 489               	.LM68:
 490 01ac 81E0      		ldi r24,lo8(1)
 491 01ae 8EBB      		out 62-0x20,r24
 492 01b0 10E0      		ldi r17,lo8(0)
 493               	.LVL30:
 494               	.L96:
 495               	.LM69:
 496 01b2 8EB3      		in r24,62-0x20
 497 01b4 8823      		tst r24
 498 01b6 01F0      		breq .L96
 499               	.LM70:
 500 01b8 F69B      		sbis 62-0x20,6
 501 01ba 00C0      		rjmp .L78
 502               	.LM71:
 503 01bc 1123      		tst r17
 504 01be 01F4      		brne .L80
 505 01c0 16E0      		ldi r17,lo8(6)
 506 01c2 00C0      		rjmp .L82
 507               	.L80:
 508 01c4 1150      		subi r17,lo8(-(-1))
 509 01c6 00C0      		rjmp .L82
 510               	.L78:
 511               	.LM72:
 512 01c8 F79B      		sbis 62-0x20,7
 513 01ca 00C0      		rjmp .L83
 514               	.LM73:
 515 01cc 1630      		cpi r17,lo8(6)
 516 01ce 01F4      		brne .L85
 517 01d0 10E0      		ldi r17,lo8(0)
 518 01d2 00C0      		rjmp .L82
 519               	.L85:
 520 01d4 1F5F      		subi r17,lo8(-(1))
 521 01d6 00C0      		rjmp .L82
 522               	.L83:
 523               	.LM74:
 524 01d8 F49B      		sbis 62-0x20,4
 525 01da 00C0      		rjmp .L87
 526               	.LBB35:
 527               	.LM75:
 528 01dc E12F      		mov r30,r17
 529 01de FF27      		clr r31
 530               	.LVL31:
 531 01e0 EE0F      		lsl r30
 532 01e2 FF1F      		rol r31
 533 01e4 E050      		subi r30,lo8(-(SettingFunctionPtrs))
 534 01e6 F040      		sbci r31,hi8(-(SettingFunctionPtrs))
 535               	/* #APP */
 536 01e8 8591      		lpm r24, Z+
 537 01ea 9491      		lpm r25, Z
 538               		
 539               	.LVL32:
 540               	/* #NOAPP */
 541               	.LBE35:
 542 01ec FC01      		movw r30,r24
 543 01ee 0995      		icall
 544               	.LVL33:
 545 01f0 00C0      		rjmp .L82
 546               	.L87:
 547               	.LM76:
 548 01f2 F299      		sbic 62-0x20,2
 549 01f4 00C0      		rjmp .L90
 550               	.L82:
 551               	.LBB36:
 552               	.LM77:
 553 01f6 E12F      		mov r30,r17
 554 01f8 FF27      		clr r31
 555               	.LVL34:
 556 01fa EE0F      		lsl r30
 557 01fc FF1F      		rol r31
 558 01fe E050      		subi r30,lo8(-(SettingFunctionNames))
 559 0200 F040      		sbci r31,hi8(-(SettingFunctionNames))
 560               	.LBE36:
 561               	/* #APP */
 562 0202 8591      		lpm r24, Z+
 563 0204 9491      		lpm r25, Z
 564               		
 565               	.LVL35:
 566               	/* #NOAPP */
 567 0206 0E94 0000 		call LCD_puts_f
 568               	.LVL36:
 569               	.LM78:
 570 020a 0E94 0000 		call MAIN_WaitForJoyRelease
 571 020e 00C0      		rjmp .L96
 572               	.L90:
 573               	/* epilogue: frame size=0 */
 574 0210 1F91      		pop r17
 575 0212 0895      		ret
 576               	/* epilogue end (size=2) */
 577               	/* function FUNCChangeSettings size 61 (58) */
 578               	.LFE25:
 580               	.global	FUNCSetAutoSleepTimeOut
 582               	FUNCSetAutoSleepTimeOut:
 583               	.LFB36:
 584               	.LM79:
 585               	/* prologue: frame size=8 */
 586 0214 EF92      		push r14
 587 0216 FF92      		push r15
 588 0218 0F93      		push r16
 589 021a CF93      		push r28
 590 021c DF93      		push r29
 591 021e CDB7      		in r28,__SP_L__
 592 0220 DEB7      		in r29,__SP_H__
 593 0222 2897      		sbiw r28,8
 594 0224 0FB6      		in __tmp_reg__,__SREG__
 595 0226 F894      		cli
 596 0228 DEBF      		out __SP_H__,r29
 597 022a 0FBE      		out __SREG__,__tmp_reg__
 598 022c CDBF      		out __SP_L__,r28
 599               	/* prologue end (size=13) */
 600               	.LBB44:
 601               	.LBB45:
 602               	.LM80:
 603 022e A0E0      		ldi r26,lo8(EEPROMVars+136)
 604 0230 B0E0      		ldi r27,hi8(EEPROMVars+136)
 605               	/* #APP */
 606 0232 0E94 0000 		call __eeprom_read_byte_1F2021
 607 0236 802D      		mov r24,__tmp_reg__
 608               	.LVL37:
 609               	/* #NOAPP */
 610               	.LBE45:
 611               	.LBE44:
 612               	.LM81:
 613 0238 082F      		mov r16,r24
 614               	.LVL38:
 615 023a 8530      		cpi r24,lo8(5)
 616 023c 00F0      		brlo .L98
 617               	.LVL39:
 618               	.LM82:
 619 023e 04E0      		ldi r16,lo8(4)
 620               	.L98:
 621               	.LM83:
 622 0240 60E0      		ldi r22,lo8(__c.2413)
 623 0242 70E0      		ldi r23,hi8(__c.2413)
 624 0244 CE01      		movw r24,r28
 625               	.LVL40:
 626 0246 0196      		adiw r24,1
 627 0248 0E94 0000 		call strcpy_P
 628               	.LVL41:
 629               	.LM84:
 630 024c 81E0      		ldi r24,lo8(1)
 631 024e 8EBB      		out 62-0x20,r24
 632               	.L121:
 633               	.LM85:
 634 0250 8EB3      		in r24,62-0x20
 635 0252 8823      		tst r24
 636 0254 01F0      		breq .L121
 637               	.LM86:
 638 0256 F69B      		sbis 62-0x20,6
 639 0258 00C0      		rjmp .L101
 640               	.LM87:
 641 025a 0023      		tst r16
 642 025c 01F4      		brne .L103
 643 025e 04E0      		ldi r16,lo8(4)
 644 0260 00C0      		rjmp .L101
 645               	.L103:
 646 0262 0150      		subi r16,lo8(-(-1))
 647               	.L101:
 648               	.LM88:
 649 0264 F79B      		sbis 62-0x20,7
 650 0266 00C0      		rjmp .L105
 651               	.LM89:
 652 0268 0430      		cpi r16,lo8(4)
 653 026a 01F4      		brne .L107
 654 026c 00E0      		ldi r16,lo8(0)
 655 026e 00C0      		rjmp .L109
 656               	.L107:
 657 0270 0F5F      		subi r16,lo8(-(1))
 658 0272 00C0      		rjmp .L110
 659               	.L105:
 660               	.LM90:
 661 0274 F299      		sbic 62-0x20,2
 662 0276 00C0      		rjmp .L120
 663               	.L110:
 664               	.LM91:
 665 0278 0023      		tst r16
 666 027a 01F4      		brne .L112
 667               	.L109:
 668               	.LM92:
 669 027c 80E0      		ldi r24,lo8(__c.2415)
 670 027e 90E0      		ldi r25,hi8(__c.2415)
 671 0280 0E94 0000 		call LCD_puts_f
 672 0284 00C0      		rjmp .L113
 673               	.L112:
 674               	.LBB46:
 675               	.LM93:
 676 0286 E02F      		mov r30,r16
 677 0288 FF27      		clr r31
 678 028a E050      		subi r30,lo8(-(AutoSleepTOValues))
 679 028c F040      		sbci r31,hi8(-(AutoSleepTOValues))
 680               	/* #APP */
 681 028e E491      		lpm r30, Z
 682               		
 683               	.LVL42:
 684               	/* #NOAPP */
 685               	.LBE46:
 686 0290 7E01      		movw r14,r28
 687 0292 0894      		sec
 688 0294 E11C      		adc r14,__zero_reg__
 689 0296 F11C      		adc r15,__zero_reg__
 690 0298 B701      		movw r22,r14
 691 029a 8E2F      		mov r24,r30
 692 029c 9927      		clr r25
 693 029e 0E94 0000 		call MAIN_IntToStr
 694               	.LVL43:
 695               	.LM94:
 696 02a2 80E2      		ldi r24,lo8(32)
 697 02a4 8C83      		std Y+4,r24
 698               	.LM95:
 699 02a6 C701      		movw r24,r14
 700 02a8 0E94 0000 		call LCD_puts
 701               	.L113:
 702               	.LM96:
 703 02ac 0E94 0000 		call MAIN_WaitForJoyRelease
 704 02b0 00C0      		rjmp .L121
 705               	.L120:
 706               	.LBB47:
 707               	.LBB48:
 708               	.LM97:
 709 02b2 A0E0      		ldi r26,lo8(EEPROMVars+136)
 710 02b4 B0E0      		ldi r27,hi8(EEPROMVars+136)
 711               	/* #APP */
 712 02b6 002E      		mov __tmp_reg__,r16
 713 02b8 0E94 0000 		call __eeprom_write_byte_1F2021
 714               	.LVL44:
 715               	/* #NOAPP */
 716               	.LBE48:
 717               	.LBE47:
 718               	.LM98:
 719 02bc 0E94 0000 		call TOUT_SetupSleepTimer
 720               	.LVL45:
 721               	/* epilogue: frame size=8 */
 722 02c0 2896      		adiw r28,8
 723 02c2 0FB6      		in __tmp_reg__,__SREG__
 724 02c4 F894      		cli
 725 02c6 DEBF      		out __SP_H__,r29
 726 02c8 0FBE      		out __SREG__,__tmp_reg__
 727 02ca CDBF      		out __SP_L__,r28
 728 02cc DF91      		pop r29
 729 02ce CF91      		pop r28
 730 02d0 0F91      		pop r16
 731 02d2 FF90      		pop r15
 732 02d4 EF90      		pop r14
 733 02d6 0895      		ret
 734               	/* epilogue end (size=12) */
 735               	/* function FUNCSetAutoSleepTimeOut size 103 (78) */
 736               	.LFE36:
 738               	.global	MAIN_ShowError
 740               	MAIN_ShowError:
 741               	.LFB21:
 742               	.LM99:
 743               	/* prologue: frame size=20 */
 744 02d8 CF93      		push r28
 745 02da DF93      		push r29
 746 02dc CDB7      		in r28,__SP_L__
 747 02de DEB7      		in r29,__SP_H__
 748 02e0 6497      		sbiw r28,20
 749 02e2 0FB6      		in __tmp_reg__,__SREG__
 750 02e4 F894      		cli
 751 02e6 DEBF      		out __SP_H__,r29
 752 02e8 0FBE      		out __SREG__,__tmp_reg__
 753 02ea CDBF      		out __SP_L__,r28
 754               	/* prologue end (size=10) */
 755               	.LVL46:
 756               	.LM100:
 757 02ec 25E4      		ldi r18,lo8(69)
 758 02ee 2983      		std Y+1,r18
 759               	.LM101:
 760 02f0 2EE3      		ldi r18,lo8(62)
 761 02f2 2A83      		std Y+2,r18
 762               	.LM102:
 763 02f4 BC01      		movw r22,r24
 764 02f6 CE01      		movw r24,r28
 765               	.LVL47:
 766 02f8 0396      		adiw r24,3
 767 02fa 0E94 0000 		call strcpy_P
 768               	.LVL48:
 769               	.LM103:
 770 02fe CE01      		movw r24,r28
 771 0300 0196      		adiw r24,1
 772 0302 0E94 0000 		call LCD_puts
 773               	.LM104:
 774 0306 0E94 0000 		call MAIN_WaitForJoyRelease
 775               	.L123:
 776               	.LM105:
 777 030a F49B      		sbis 62-0x20,4
 778 030c 00C0      		rjmp .L123
 779               	.LM106:
 780 030e 0E94 0000 		call MAIN_WaitForJoyRelease
 781               	/* epilogue: frame size=20 */
 782 0312 6496      		adiw r28,20
 783 0314 0FB6      		in __tmp_reg__,__SREG__
 784 0316 F894      		cli
 785 0318 DEBF      		out __SP_H__,r29
 786 031a 0FBE      		out __SREG__,__tmp_reg__
 787 031c CDBF      		out __SP_L__,r28
 788 031e DF91      		pop r29
 789 0320 CF91      		pop r28
 790 0322 0895      		ret
 791               	/* epilogue end (size=9) */
 792               	/* function MAIN_ShowError size 38 (19) */
 793               	.LFE21:
 795               	.global	FUNCStorageInfo
 797               	FUNCStorageInfo:
 798               	.LFB38:
 799               	.LM107:
 800               	/* prologue: frame size=0 */
 801 0324 1F93      		push r17
 802               	/* prologue end (size=1) */
 803               	.LM108:
 804 0326 0E94 0000 		call MAIN_WaitForJoyRelease
 805               	.LM109:
 806 032a 81E0      		ldi r24,lo8(1)
 807 032c 8EBB      		out 62-0x20,r24
 808 032e 10E0      		ldi r17,lo8(0)
 809               	.LVL49:
 810               	.L148:
 811               	.LM110:
 812 0330 8EB3      		in r24,62-0x20
 813 0332 8823      		tst r24
 814 0334 01F0      		breq .L148
 815               	.LM111:
 816 0336 8EB3      		in r24,62-0x20
 817 0338 807C      		andi r24,lo8(-64)
 818 033a 01F0      		breq .L131
 819               	.LM112:
 820 033c 81E0      		ldi r24,lo8(1)
 821 033e 1827      		eor r17,r24
 822 0340 00C0      		rjmp .L133
 823               	.L131:
 824               	.LM113:
 825 0342 F299      		sbic 62-0x20,2
 826 0344 00C0      		rjmp .L142
 827               	.LM114:
 828 0346 F49B      		sbis 62-0x20,4
 829 0348 00C0      		rjmp .L133
 830               	.LM115:
 831 034a 1130      		cpi r17,lo8(1)
 832 034c 01F4      		brne .L137
 833               	.LM116:
 834 034e 80E0      		ldi r24,lo8(gs(SPI_SPITransmit))
 835 0350 90E0      		ldi r25,hi8(gs(SPI_SPITransmit))
 836 0352 9093 0000 		sts (DFSPIRoutinePointer)+1,r25
 837 0356 8093 0000 		sts DFSPIRoutinePointer,r24
 838               	.LM117:
 839 035a 0E94 0000 		call SPI_SPIInit
 840               	.LM118:
 841 035e 1092 0000 		sts DataflashInfo+10,__zero_reg__
 842               	.LM119:
 843 0362 81E0      		ldi r24,lo8(1)
 844 0364 0E94 0000 		call DF_EnableDataflash
 845               	.LM120:
 846 0368 0E94 0000 		call DF_CheckCorrectOnboardChip
 847 036c 8823      		tst r24
 848 036e 01F0      		breq .L139
 849               	.LM121:
 850 0370 0E94 0000 		call TM_ShowTags
 851               	.LM122:
 852 0374 8091 6400 		lds r24,100
 853 0378 8460      		ori r24,lo8(4)
 854 037a 8093 6400 		sts 100,r24
 855 037e 00C0      		rjmp .L133
 856               	.L139:
 857               	.LM123:
 858 0380 81E0      		ldi r24,lo8(1)
 859 0382 0E94 0000 		call PM_GetStoredDataSize
 860 0386 6115      		cp r22,__zero_reg__
 861 0388 7105      		cpc r23,__zero_reg__
 862 038a 8105      		cpc r24,__zero_reg__
 863 038c 9105      		cpc r25,__zero_reg__
 864 038e 01F4      		brne .L133
 865               	.LM124:
 866 0390 80E0      		ldi r24,lo8(0)
 867 0392 0E94 0000 		call DF_EnableDataflash
 868               	.LM125:
 869 0396 8091 6400 		lds r24,100
 870 039a 8460      		ori r24,lo8(4)
 871 039c 8093 6400 		sts 100,r24
 872               	.LM126:
 873 03a0 80E0      		ldi r24,lo8(__c.2469)
 874 03a2 90E0      		ldi r25,hi8(__c.2469)
 875 03a4 0E94 0000 		call MAIN_ShowError
 876 03a8 00C0      		rjmp .L133
 877               	.L137:
 878               	.LM127:
 879 03aa 0E94 0000 		call PM_ShowStoredItemSizes
 880               	.L133:
 881               	.LM128:
 882 03ae 8FE0      		ldi r24,lo8(15)
 883 03b0 189F      		mul r17,r24
 884 03b2 C001      		movw r24,r0
 885 03b4 1124      		clr r1
 886 03b6 8050      		subi r24,lo8(-(SIFONames))
 887 03b8 9040      		sbci r25,hi8(-(SIFONames))
 888 03ba 0E94 0000 		call LCD_puts_f
 889               	.LM129:
 890 03be 0E94 0000 		call MAIN_WaitForJoyRelease
 891 03c2 00C0      		rjmp .L148
 892               	.L142:
 893               	/* epilogue: frame size=0 */
 894 03c4 1F91      		pop r17
 895 03c6 0895      		ret
 896               	/* epilogue end (size=2) */
 897               	/* function FUNCStorageInfo size 83 (80) */
 898               	.LFE38:
 900               	.global	MAIN_ShowProgType
 902               	MAIN_ShowProgType:
 903               	.LFB20:
 904               	.LM130:
 905               	/* prologue: frame size=7 */
 906 03c8 FF92      		push r15
 907 03ca 0F93      		push r16
 908 03cc 1F93      		push r17
 909 03ce CF93      		push r28
 910 03d0 DF93      		push r29
 911 03d2 CDB7      		in r28,__SP_L__
 912 03d4 DEB7      		in r29,__SP_H__
 913 03d6 2797      		sbiw r28,7
 914 03d8 0FB6      		in __tmp_reg__,__SREG__
 915 03da F894      		cli
 916 03dc DEBF      		out __SP_H__,r29
 917 03de 0FBE      		out __SREG__,__tmp_reg__
 918 03e0 CDBF      		out __SP_L__,r28
 919               	/* prologue end (size=13) */
 920               	.LVL50:
 921 03e2 F82E      		mov r15,r24
 922               	.LM131:
 923 03e4 8E01      		movw r16,r28
 924 03e6 0F5F      		subi r16,lo8(-(1))
 925 03e8 1F4F      		sbci r17,hi8(-(1))
 926 03ea 60E0      		ldi r22,lo8(__c.2034)
 927 03ec 70E0      		ldi r23,hi8(__c.2034)
 928 03ee C801      		movw r24,r16
 929               	.LVL51:
 930 03f0 0E94 0000 		call strcpy_P
 931               	.LM132:
 932 03f4 FE82      		std Y+6,r15
 933               	.LM133:
 934 03f6 C801      		movw r24,r16
 935 03f8 0E94 0000 		call LCD_puts
 936               	/* epilogue: frame size=7 */
 937 03fc 2796      		adiw r28,7
 938 03fe 0FB6      		in __tmp_reg__,__SREG__
 939 0400 F894      		cli
 940 0402 DEBF      		out __SP_H__,r29
 941 0404 0FBE      		out __SREG__,__tmp_reg__
 942 0406 CDBF      		out __SP_L__,r28
 943 0408 DF91      		pop r29
 944 040a CF91      		pop r28
 945 040c 1F91      		pop r17
 946 040e 0F91      		pop r16
 947 0410 FF90      		pop r15
 948 0412 0895      		ret
 949               	/* epilogue end (size=12) */
 950               	/* function MAIN_ShowProgType size 38 (13) */
 951               	.LFE20:
 953               	.global	FUNCStoreProgram
 955               	FUNCStoreProgram:
 956               	.LFB30:
 957               	.LM134:
 958               	/* prologue: frame size=0 */
 959               	/* prologue end (size=0) */
 960               	.LM135:
 961 0414 80E0      		ldi r24,lo8(gs(SPI_SPITransmit))
 962 0416 90E0      		ldi r25,hi8(gs(SPI_SPITransmit))
 963 0418 9093 0000 		sts (DFSPIRoutinePointer)+1,r25
 964 041c 8093 0000 		sts DFSPIRoutinePointer,r24
 965               	.LM136:
 966 0420 0E94 0000 		call SPI_SPIInit
 967               	.LM137:
 968 0424 1092 0000 		sts DataflashInfo+10,__zero_reg__
 969               	.LM138:
 970 0428 81E0      		ldi r24,lo8(1)
 971 042a 0E94 0000 		call DF_EnableDataflash
 972               	.LM139:
 973 042e 0E94 0000 		call DF_CheckCorrectOnboardChip
 974 0432 8823      		tst r24
 975 0434 01F0      		breq .L154
 976               	.LM140:
 977 0436 80E0      		ldi r24,lo8(WaitText)
 978 0438 90E0      		ldi r25,hi8(WaitText)
 979 043a 0E94 0000 		call LCD_puts_f
 980 043e 0E94 0000 		call OSCCAL_Calibrate
 981 0442 8091 C100 		lds r24,193
 982 0446 8078      		andi r24,lo8(-128)
 983 0448 8861      		ori r24,lo8(24)
 984 044a 8093 C100 		sts 193,r24
 985               	.LM141:
 986 044e 80E0      		ldi r24,lo8(__c.2267)
 987 0450 90E0      		ldi r25,hi8(__c.2267)
 988 0452 0E94 0000 		call LCD_puts_f
 989               	.LM142:
 990 0456 80E0      		ldi r24,lo8(gs(PM_InterpretAVRISPPacket))
 991 0458 90E0      		ldi r25,hi8(gs(PM_InterpretAVRISPPacket))
 992 045a 0E94 0000 		call V2P_RunStateMachine
 993               	.LM143:
 994 045e 80E0      		ldi r24,lo8(0)
 995 0460 0E94 0000 		call DF_EnableDataflash
 996               	.LM144:
 997 0464 8091 6400 		lds r24,100
 998 0468 8460      		ori r24,lo8(4)
 999 046a 8093 6400 		sts 100,r24
 1000               	.L154:
 1001 046e 0895      		ret
 1002               	/* epilogue: frame size=0 */
 1003               	/* epilogue: noreturn */
 1004               	/* epilogue end (size=0) */
 1005               	/* function FUNCStoreProgram size 46 (46) */
 1006               	.LFE30:
 1008               	.global	FUNCAVRISPMode
 1010               	FUNCAVRISPMode:
 1011               	.LFB27:
 1012               	.LM145:
 1013               	/* prologue: frame size=0 */
 1014               	/* prologue end (size=0) */
 1015               	.LM146:
 1016 0470 80E0      		ldi r24,lo8(WaitText)
 1017 0472 90E0      		ldi r25,hi8(WaitText)
 1018 0474 0E94 0000 		call LCD_puts_f
 1019 0478 0E94 0000 		call OSCCAL_Calibrate
 1020 047c E1EC      		ldi r30,lo8(193)
 1021 047e F0E0      		ldi r31,hi8(193)
 1022 0480 8081      		ld r24,Z
 1023 0482 8078      		andi r24,lo8(-128)
 1024 0484 8861      		ori r24,lo8(24)
 1025 0486 8083      		st Z,r24
 1026               	.LM147:
 1027 0488 80E0      		ldi r24,lo8(AVRISPModeMessage)
 1028 048a 90E0      		ldi r25,hi8(AVRISPModeMessage)
 1029 048c 0E94 0000 		call LCD_puts_f
 1030               	.LM148:
 1031 0490 80E0      		ldi r24,lo8(gs(AICI_InterpretPacket))
 1032 0492 90E0      		ldi r25,hi8(gs(AICI_InterpretPacket))
 1033 0494 0E94 0000 		call V2P_RunStateMachine
 1034               	/* epilogue: frame size=0 */
 1035 0498 0895      		ret
 1036               	/* epilogue end (size=1) */
 1037               	/* function FUNCAVRISPMode size 21 (20) */
 1038               	.LFE27:
 1040               	.global	MAIN_CrashProgram
 1042               	MAIN_CrashProgram:
 1043               	.LFB22:
 1044               	.LM149:
 1045               	/* prologue: frame size=0 */
 1046               	/* prologue end (size=0) */
 1047               	.LVL52:
 1048               	.LM150:
 1049 049a 0E94 0000 		call LCD_puts
 1050               	.LVL53:
 1051               	.LM151:
 1052 049e 8091 6400 		lds r24,100
 1053 04a2 8460      		ori r24,lo8(4)
 1054 04a4 8093 6400 		sts 100,r24
 1055               	.LM152:
 1056 04a8 0E94 0000 		call USI_SPIOff
 1057               	.LM153:
 1058 04ac 1092 B000 		sts 176,__zero_reg__
 1059 04b0 1092 7000 		sts 112,__zero_reg__
 1060               	.LM154:
 1061 04b4 1092 8100 		sts 129,__zero_reg__
 1062               	.L158:
 1063 04b8 00C0      		rjmp .L158
 1064               	/* epilogue: frame size=0 */
 1065               	/* epilogue: noreturn */
 1066               	/* epilogue end (size=0) */
 1067               	/* function MAIN_CrashProgram size 16 (16) */
 1068               	.LFE22:
 1070               	.global	__vector_default
 1072               	__vector_default:
 1073               	.LFB24:
 1074               	.LM155:
 1075               	/* prologue: frame size=0 */
 1076               	/* prologue: naked */
 1077               	/* prologue end (size=0) */
 1078               	.LM156:
 1079 04ba 80E0      		ldi r24,lo8(__c.2084)
 1080 04bc 90E0      		ldi r25,hi8(__c.2084)
 1081 04be 0E94 0000 		call MAIN_CrashProgram
 1082               	/* epilogue: frame size=0 */
 1083               	/* epilogue: naked */
 1084               	/* epilogue end (size=0) */
 1085               	/* function __vector_default size 4 (4) */
 1086               	.LFE24:
 1088               	.global	FUNCProgramDataflash
 1090               	FUNCProgramDataflash:
 1091               	.LFB28:
 1092               	.LM157:
 1093               	/* prologue: frame size=0 */
 1094               	/* prologue end (size=0) */
 1095               	.LBB51:
 1096               	.LBB52:
 1097               	.LM158:
 1098 04c2 A0E0      		ldi r26,lo8(EEPROMVars+2)
 1099 04c4 B0E0      		ldi r27,hi8(EEPROMVars+2)
 1100               	/* #APP */
 1101 04c6 0E94 0000 		call __eeprom_read_byte_1F2021
 1102 04ca 802D      		mov r24,__tmp_reg__
 1103               	.LVL54:
 1104               	/* #NOAPP */
 1105               	.LBE52:
 1106               	.LBE51:
 1107               	.LM159:
 1108 04cc 0E94 0000 		call USI_SPIInitMaster
 1109               	.LVL55:
 1110               	.LM160:
 1111 04d0 81E0      		ldi r24,lo8(1)
 1112 04d2 8093 0000 		sts DataflashInfo+10,r24
 1113               	.LM161:
 1114 04d6 80E0      		ldi r24,lo8(gs(USI_SPITransmit))
 1115 04d8 90E0      		ldi r25,hi8(gs(USI_SPITransmit))
 1116 04da 9093 0000 		sts (DFSPIRoutinePointer)+1,r25
 1117 04de 8093 0000 		sts DFSPIRoutinePointer,r24
 1118               	.LM162:
 1119 04e2 80E0      		ldi r24,lo8(WaitText)
 1120 04e4 90E0      		ldi r25,hi8(WaitText)
 1121 04e6 0E94 0000 		call LCD_puts_f
 1122 04ea 0E94 0000 		call OSCCAL_Calibrate
 1123 04ee E1EC      		ldi r30,lo8(193)
 1124 04f0 F0E0      		ldi r31,hi8(193)
 1125 04f2 8081      		ld r24,Z
 1126 04f4 8078      		andi r24,lo8(-128)
 1127 04f6 8861      		ori r24,lo8(24)
 1128 04f8 8083      		st Z,r24
 1129               	.LM163:
 1130 04fa 80E0      		ldi r24,lo8(DataFlashProgMode)
 1131 04fc 90E0      		ldi r25,hi8(DataFlashProgMode)
 1132 04fe 0E94 0000 		call LCD_puts_f
 1133               	.LM164:
 1134 0502 80E0      		ldi r24,lo8(gs(PD_InterpretAVRISPPacket))
 1135 0504 90E0      		ldi r25,hi8(gs(PD_InterpretAVRISPPacket))
 1136 0506 0E94 0000 		call V2P_RunStateMachine
 1137               	.LM165:
 1138 050a 80E0      		ldi r24,lo8(0)
 1139 050c 0E94 0000 		call DF_EnableDataflash
 1140               	.LM166:
 1141 0510 E4E6      		ldi r30,lo8(100)
 1142 0512 F0E0      		ldi r31,hi8(100)
 1143 0514 8081      		ld r24,Z
 1144 0516 8460      		ori r24,lo8(4)
 1145 0518 8083      		st Z,r24
 1146               	/* epilogue: frame size=0 */
 1147 051a 0895      		ret
 1148               	/* epilogue end (size=1) */
 1149               	/* function FUNCProgramDataflash size 46 (45) */
 1150               	.LFE28:
 1152               	.global	FUNCProgramAVR
 1154               	FUNCProgramAVR:
 1155               	.LFB29:
 1156               	.LM167:
 1157               	/* prologue: frame size=19 */
 1158 051c FF92      		push r15
 1159 051e 0F93      		push r16
 1160 0520 1F93      		push r17
 1161 0522 CF93      		push r28
 1162 0524 DF93      		push r29
 1163 0526 CDB7      		in r28,__SP_L__
 1164 0528 DEB7      		in r29,__SP_H__
 1165 052a 6397      		sbiw r28,19
 1166 052c 0FB6      		in __tmp_reg__,__SREG__
 1167 052e F894      		cli
 1168 0530 DEBF      		out __SP_H__,r29
 1169 0532 0FBE      		out __SREG__,__tmp_reg__
 1170 0534 CDBF      		out __SP_L__,r28
 1171               	/* prologue end (size=13) */
 1172               	.LM168:
 1173 0536 80E0      		ldi r24,lo8(gs(SPI_SPITransmit))
 1174 0538 90E0      		ldi r25,hi8(gs(SPI_SPITransmit))
 1175 053a 9093 0000 		sts (DFSPIRoutinePointer)+1,r25
 1176 053e 8093 0000 		sts DFSPIRoutinePointer,r24
 1177               	.LM169:
 1178 0542 0E94 0000 		call SPI_SPIInit
 1179               	.LM170:
 1180 0546 1092 0000 		sts DataflashInfo+10,__zero_reg__
 1181               	.LM171:
 1182 054a 0E94 0000 		call DF_CheckCorrectOnboardChip
 1183 054e 8823      		tst r24
 1184 0550 01F4      		brne .+2
 1185 0552 00C0      		rjmp .L220
 1186               	.LM172:
 1187 0554 0E94 0000 		call MAIN_WaitForJoyRelease
 1188               	.LM173:
 1189 0558 81E0      		ldi r24,lo8(1)
 1190 055a 8EBB      		out 62-0x20,r24
 1191 055c FF24      		clr r15
 1192               	.LVL56:
 1193               	.L229:
 1194               	.LM174:
 1195 055e 8EB3      		in r24,62-0x20
 1196 0560 8823      		tst r24
 1197 0562 01F0      		breq .L229
 1198               	.LM175:
 1199 0564 F299      		sbic 62-0x20,2
 1200 0566 00C0      		rjmp .L220
 1201               	.LM176:
 1202 0568 F499      		sbic 62-0x20,4
 1203 056a 00C0      		rjmp .L170
 1204               	.LM177:
 1205 056c F69B      		sbis 62-0x20,6
 1206 056e 00C0      		rjmp .L172
 1207               	.LM178:
 1208 0570 FF20      		tst r15
 1209 0572 01F4      		brne .L174
 1210 0574 47E0      		ldi r20,lo8(7)
 1211 0576 F42E      		mov r15,r20
 1212 0578 00C0      		rjmp .L176
 1213               	.L174:
 1214 057a FA94      		dec r15
 1215 057c 00C0      		rjmp .L176
 1216               	.L172:
 1217               	.LM179:
 1218 057e F79B      		sbis 62-0x20,7
 1219 0580 00C0      		rjmp .L176
 1220               	.LM180:
 1221 0582 87E0      		ldi r24,lo8(7)
 1222 0584 F816      		cp r15,r24
 1223 0586 01F4      		brne .L178
 1224 0588 FF24      		clr r15
 1225 058a 00C0      		rjmp .L176
 1226               	.L178:
 1227 058c F394      		inc r15
 1228               	.L176:
 1229               	.LBB72:
 1230               	.LM181:
 1231 058e EF2D      		mov r30,r15
 1232 0590 FF27      		clr r31
 1233               	.LVL57:
 1234 0592 EE0F      		lsl r30
 1235 0594 FF1F      		rol r31
 1236 0596 E050      		subi r30,lo8(-(ProgOptions))
 1237 0598 F040      		sbci r31,hi8(-(ProgOptions))
 1238               	.LBE72:
 1239               	/* #APP */
 1240 059a 8591      		lpm r24, Z+
 1241 059c 9491      		lpm r25, Z
 1242               		
 1243               	.LVL58:
 1244               	/* #NOAPP */
 1245 059e 0E94 0000 		call LCD_puts_f
 1246               	.LVL59:
 1247               	.LM182:
 1248 05a2 0E94 0000 		call MAIN_WaitForJoyRelease
 1249 05a6 00C0      		rjmp .L229
 1250               	.L170:
 1251               	.LM183:
 1252 05a8 80E8      		ldi r24,lo8(-128)
 1253 05aa 8093 6100 		sts 97,r24
 1254 05ae 1092 6100 		sts 97,__zero_reg__
 1255               	.LM184:
 1256 05b2 80E0      		ldi r24,lo8(WaitText)
 1257 05b4 90E0      		ldi r25,hi8(WaitText)
 1258 05b6 0E94 0000 		call LCD_puts_f
 1259               	.LBB73:
 1260               	.LBB74:
 1261               	.LM185:
 1262 05ba 00E0      		ldi r16,lo8(EEPROMVars+2)
 1263 05bc 10E0      		ldi r17,hi8(EEPROMVars+2)
 1264 05be D801      		movw r26,r16
 1265               	.LVL60:
 1266               	/* #APP */
 1267 05c0 0E94 0000 		call __eeprom_read_byte_1F2021
 1268 05c4 802D      		mov r24,__tmp_reg__
 1269               	.LVL61:
 1270               	/* #NOAPP */
 1271               	.LBE74:
 1272               	.LBE73:
 1273               	.LM186:
 1274 05c6 0E94 0000 		call USI_SPIInitMaster
 1275               	.LVL62:
 1276               	.LM187:
 1277 05ca 80E0      		ldi r24,lo8(0)
 1278 05cc 0E94 0000 		call MAIN_ResetCSLine
 1279 05d0 9801      		movw r18,r16
 1280 05d2 2E5D      		subi r18,lo8(-(34))
 1281 05d4 3F4F      		sbci r19,hi8(-(34))
 1282 05d6 E0E0      		ldi r30,lo8(PacketBytes)
 1283 05d8 F0E0      		ldi r31,hi8(PacketBytes)
 1284               	.L180:
 1285               	.LBB75:
 1286               	.LBB76:
 1287               	.LBB77:
 1288               	.LM188:
 1289 05da D901      		movw r26,r18
 1290               	.LVL63:
 1291               	/* #APP */
 1292 05dc 0E94 0000 		call __eeprom_read_byte_1F2021
 1293 05e0 802D      		mov r24,__tmp_reg__
 1294               	.LVL64:
 1295               	/* #NOAPP */
 1296               	.LBE77:
 1297               	.LBE76:
 1298               	.LM189:
 1299 05e2 8193      		st Z+,r24
 1300 05e4 2F5F      		subi r18,lo8(-(1))
 1301 05e6 3F4F      		sbci r19,hi8(-(1))
 1302               	.LM190:
 1303 05e8 80E0      		ldi r24,hi8(EEPROMVars+48)
 1304 05ea 2030      		cpi r18,lo8(EEPROMVars+48)
 1305 05ec 3807      		cpc r19,r24
 1306               	.LVL65:
 1307 05ee 01F4      		brne .L180
 1308               	.LBE75:
 1309               	.LM191:
 1310 05f0 0E94 0000 		call ISPCC_EnterChipProgrammingMode
 1311               	.LVL66:
 1312               	.LM192:
 1313 05f4 1092 0000 		sts CurrAddress,__zero_reg__
 1314 05f8 1092 0000 		sts (CurrAddress)+1,__zero_reg__
 1315 05fc 1092 0000 		sts (CurrAddress)+2,__zero_reg__
 1316 0600 1092 0000 		sts (CurrAddress)+3,__zero_reg__
 1317               	.LM193:
 1318 0604 8091 0000 		lds r24,PacketBytes+1
 1319 0608 8823      		tst r24
 1320 060a 01F0      		breq .+2
 1321 060c 00C0      		rjmp .L182
 1322               	.LM194:
 1323 060e FF20      		tst r15
 1324 0610 01F0      		breq .L184
 1325 0612 87E0      		ldi r24,lo8(7)
 1326 0614 F816      		cp r15,r24
 1327 0616 01F0      		breq .L184
 1328 0618 81E0      		ldi r24,lo8(1)
 1329 061a F816      		cp r15,r24
 1330 061c 01F0      		breq .L184
 1331 061e 83E0      		ldi r24,lo8(3)
 1332 0620 F816      		cp r15,r24
 1333 0622 01F4      		brne .L228
 1334               	.L184:
 1335               	.LM195:
 1336 0624 83E4      		ldi r24,lo8(67)
 1337 0626 0E94 0000 		call MAIN_ShowProgType
 1338               	.LBB78:
 1339               	.LBB79:
 1340               	.LM196:
 1341 062a A0E0      		ldi r26,lo8(EEPROMVars+21)
 1342 062c B0E0      		ldi r27,hi8(EEPROMVars+21)
 1343               	/* #APP */
 1344 062e 0E94 0000 		call __eeprom_read_byte_1F2021
 1345 0632 802D      		mov r24,__tmp_reg__
 1346               	.LVL67:
 1347               	/* #NOAPP */
 1348               	.LBE79:
 1349               	.LBE78:
 1350               	.LM197:
 1351 0634 8130      		cpi r24,lo8(1)
 1352 0636 01F0      		breq .L190
 1353               	.LM198:
 1354 0638 80E0      		ldi r24,lo8(__c.2188)
 1355 063a 90E0      		ldi r25,hi8(__c.2188)
 1356               	.LVL68:
 1357 063c 0E94 0000 		call MAIN_ShowError
 1358               	.LVL69:
 1359 0640 02E0      		ldi r16,lo8(2)
 1360               	.LVL70:
 1361 0642 00C0      		rjmp .L189
 1362               	.LVL71:
 1363               	.L190:
 1364               	.LM199:
 1365 0644 0E94 0000 		call PM_SendEraseCommand
 1366               	.LVL72:
 1367               	.L228:
 1368 0648 00E0      		ldi r16,lo8(0)
 1369               	.LVL73:
 1370               	.L189:
 1371               	.LM200:
 1372 064a 81E0      		ldi r24,lo8(1)
 1373 064c 8F15      		cp r24,r15
 1374 064e 00F4      		brsh .L192
 1375 0650 83E0      		ldi r24,lo8(3)
 1376 0652 F816      		cp r15,r24
 1377 0654 01F4      		brne .L194
 1378               	.L192:
 1379 0656 0023      		tst r16
 1380 0658 01F4      		brne .L195
 1381               	.LM201:
 1382 065a 84E4      		ldi r24,lo8(68)
 1383 065c 0E94 0000 		call MAIN_ShowProgType
 1384               	.LM202:
 1385 0660 81E0      		ldi r24,lo8(1)
 1386 0662 0E94 0000 		call PM_GetStoredDataSize
 1387 0666 6115      		cp r22,__zero_reg__
 1388 0668 7105      		cpc r23,__zero_reg__
 1389 066a 8105      		cpc r24,__zero_reg__
 1390 066c 9105      		cpc r25,__zero_reg__
 1391 066e 01F4      		brne .L197
 1392               	.LM203:
 1393 0670 80E0      		ldi r24,lo8(__c.2190)
 1394 0672 90E0      		ldi r25,hi8(__c.2190)
 1395 0674 0E94 0000 		call MAIN_ShowError
 1396 0678 03E0      		ldi r16,lo8(3)
 1397 067a 00C0      		rjmp .L195
 1398               	.L197:
 1399               	.LM204:
 1400 067c 81E0      		ldi r24,lo8(1)
 1401 067e 0E94 0000 		call PM_CreateProgrammingPackets
 1402               	.L195:
 1403               	.LM205:
 1404 0682 FF20      		tst r15
 1405 0684 01F0      		breq .L199
 1406               	.L194:
 1407 0686 82E0      		ldi r24,lo8(2)
 1408 0688 F816      		cp r15,r24
 1409 068a 01F0      		breq .L199
 1410 068c 83E0      		ldi r24,lo8(3)
 1411 068e F816      		cp r15,r24
 1412 0690 01F4      		brne .L201
 1413               	.L199:
 1414               	.LM206:
 1415 0692 85E4      		ldi r24,lo8(69)
 1416 0694 0E94 0000 		call MAIN_ShowProgType
 1417               	.LM207:
 1418 0698 80E0      		ldi r24,lo8(0)
 1419 069a 0E94 0000 		call PM_GetStoredDataSize
 1420 069e 6115      		cp r22,__zero_reg__
 1421 06a0 7105      		cpc r23,__zero_reg__
 1422 06a2 8105      		cpc r24,__zero_reg__
 1423 06a4 9105      		cpc r25,__zero_reg__
 1424 06a6 01F4      		brne .L202
 1425               	.LM208:
 1426 06a8 80E0      		ldi r24,lo8(__c.2192)
 1427 06aa 90E0      		ldi r25,hi8(__c.2192)
 1428 06ac 0E94 0000 		call MAIN_ShowError
 1429 06b0 03E0      		ldi r16,lo8(3)
 1430 06b2 00C0      		rjmp .L204
 1431               	.L202:
 1432               	.LM209:
 1433 06b4 80E0      		ldi r24,lo8(0)
 1434 06b6 0E94 0000 		call PM_CreateProgrammingPackets
 1435               	.L204:
 1436               	.LM210:
 1437 06ba FF20      		tst r15
 1438 06bc 01F0      		breq .L205
 1439               	.L201:
 1440 06be 84E0      		ldi r24,lo8(4)
 1441 06c0 F816      		cp r15,r24
 1442 06c2 01F0      		breq .L205
 1443 06c4 86E0      		ldi r24,lo8(6)
 1444 06c6 F816      		cp r15,r24
 1445 06c8 01F4      		brne .L207
 1446               	.L205:
 1447               	.LM211:
 1448 06ca 86E4      		ldi r24,lo8(70)
 1449 06cc 0E94 0000 		call MAIN_ShowProgType
 1450               	.LBB80:
 1451               	.LBB81:
 1452               	.LM212:
 1453 06d0 A0E0      		ldi r26,lo8(EEPROMVars+48)
 1454 06d2 B0E0      		ldi r27,hi8(EEPROMVars+48)
 1455               	/* #APP */
 1456 06d4 0E94 0000 		call __eeprom_read_byte_1F2021
 1457 06d8 802D      		mov r24,__tmp_reg__
 1458               	.LVL74:
 1459               	/* #NOAPP */
 1460               	.LBE81:
 1461               	.LBE80:
 1462               	.LM213:
 1463 06da 8823      		tst r24
 1464 06dc 01F4      		brne .L208
 1465               	.LM214:
 1466 06de 80E0      		ldi r24,lo8(__c.2194)
 1467 06e0 90E0      		ldi r25,hi8(__c.2194)
 1468               	.LVL75:
 1469 06e2 0E94 0000 		call MAIN_ShowError
 1470               	.LVL76:
 1471 06e6 03E0      		ldi r16,lo8(3)
 1472 06e8 00C0      		rjmp .L210
 1473               	.LVL77:
 1474               	.L208:
 1475               	.LM215:
 1476 06ea 82E0      		ldi r24,lo8(2)
 1477               	.LVL78:
 1478 06ec 0E94 0000 		call PM_SendFuseLockBytes
 1479               	.LVL79:
 1480               	.L210:
 1481               	.LM216:
 1482 06f0 FF20      		tst r15
 1483 06f2 01F0      		breq .L211
 1484               	.L207:
 1485 06f4 85E0      		ldi r24,lo8(5)
 1486 06f6 F816      		cp r15,r24
 1487 06f8 01F0      		breq .L211
 1488 06fa 86E0      		ldi r24,lo8(6)
 1489 06fc F816      		cp r15,r24
 1490 06fe 01F4      		brne .L213
 1491               	.LM217:
 1492 0700 81E0      		ldi r24,lo8(1)
 1493 0702 0E94 0000 		call MAIN_ResetCSLine
 1494               	.LM218:
 1495 0706 81E0      		ldi r24,lo8(1)
 1496 0708 0E94 0000 		call MAIN_Delay10MS
 1497               	.LM219:
 1498 070c 80E0      		ldi r24,lo8(0)
 1499 070e 0E94 0000 		call MAIN_ResetCSLine
 1500               	.LM220:
 1501 0712 0E94 0000 		call ISPCC_EnterChipProgrammingMode
 1502               	.L211:
 1503               	.LM221:
 1504 0716 8CE4      		ldi r24,lo8(76)
 1505 0718 0E94 0000 		call MAIN_ShowProgType
 1506               	.LBB82:
 1507               	.LBB83:
 1508               	.LM222:
 1509 071c A0E0      		ldi r26,lo8(EEPROMVars+49)
 1510 071e B0E0      		ldi r27,hi8(EEPROMVars+49)
 1511               	/* #APP */
 1512 0720 0E94 0000 		call __eeprom_read_byte_1F2021
 1513 0724 802D      		mov r24,__tmp_reg__
 1514               	.LVL80:
 1515               	/* #NOAPP */
 1516               	.LBE83:
 1517               	.LBE82:
 1518               	.LM223:
 1519 0726 8823      		tst r24
 1520 0728 01F4      		brne .L215
 1521               	.LM224:
 1522 072a 80E0      		ldi r24,lo8(__c.2196)
 1523 072c 90E0      		ldi r25,hi8(__c.2196)
 1524               	.LVL81:
 1525 072e 0E94 0000 		call MAIN_ShowError
 1526               	.LVL82:
 1527               	.LM225:
 1528 0732 60E0      		ldi r22,lo8(__c.2198)
 1529 0734 70E0      		ldi r23,hi8(__c.2198)
 1530 0736 CE01      		movw r24,r28
 1531 0738 0196      		adiw r24,1
 1532 073a 0E94 0000 		call strcpy_P
 1533 073e 00C0      		rjmp .L217
 1534               	.LVL83:
 1535               	.L215:
 1536               	.LM226:
 1537 0740 83E0      		ldi r24,lo8(3)
 1538               	.LVL84:
 1539 0742 0E94 0000 		call PM_SendFuseLockBytes
 1540               	.LVL85:
 1541               	.L213:
 1542               	.LM227:
 1543 0746 60E0      		ldi r22,lo8(__c.2198)
 1544 0748 70E0      		ldi r23,hi8(__c.2198)
 1545 074a CE01      		movw r24,r28
 1546 074c 0196      		adiw r24,1
 1547 074e 0E94 0000 		call strcpy_P
 1548               	.LM228:
 1549 0752 0023      		tst r16
 1550 0754 01F0      		breq .L218
 1551               	.L217:
 1552               	.LM229:
 1553 0756 60E0      		ldi r22,lo8(__c.2200)
 1554 0758 70E0      		ldi r23,hi8(__c.2200)
 1555 075a CE01      		movw r24,r28
 1556 075c 0D96      		adiw r24,13
 1557 075e 0E94 0000 		call strcpy_P
 1558               	.L218:
 1559               	.LM230:
 1560 0762 CE01      		movw r24,r28
 1561 0764 0196      		adiw r24,1
 1562 0766 0E94 0000 		call LCD_puts
 1563               	.LM231:
 1564 076a 8FEF      		ldi r24,lo8(-1)
 1565 076c 0E94 0000 		call MAIN_Delay10MS
 1566               	.LM232:
 1567 0770 84E6      		ldi r24,lo8(100)
 1568 0772 0E94 0000 		call MAIN_Delay10MS
 1569 0776 00C0      		rjmp .L219
 1570               	.LVL86:
 1571               	.L182:
 1572               	.LM233:
 1573 0778 80E0      		ldi r24,lo8(SyncErrorMessage)
 1574 077a 90E0      		ldi r25,hi8(SyncErrorMessage)
 1575 077c 0E94 0000 		call MAIN_ShowError
 1576               	.LVL87:
 1577               	.L219:
 1578               	.LM234:
 1579 0780 80E8      		ldi r24,lo8(-128)
 1580 0782 8093 6100 		sts 97,r24
 1581 0786 83E0      		ldi r24,lo8(3)
 1582 0788 8093 6100 		sts 97,r24
 1583               	.LM235:
 1584 078c 81E0      		ldi r24,lo8(1)
 1585 078e 0E94 0000 		call MAIN_ResetCSLine
 1586               	.LM236:
 1587 0792 0E94 0000 		call USI_SPIOff
 1588               	.LM237:
 1589 0796 80E0      		ldi r24,lo8(0)
 1590 0798 0E94 0000 		call DF_EnableDataflash
 1591               	.LM238:
 1592 079c 8091 6400 		lds r24,100
 1593 07a0 8460      		ori r24,lo8(4)
 1594 07a2 8093 6400 		sts 100,r24
 1595               	.LM239:
 1596 07a6 81B3      		in r24,49-0x20
 1597 07a8 8F7C      		andi r24,lo8(-49)
 1598 07aa 8061      		ori r24,lo8(16)
 1599 07ac 81BB      		out 49-0x20,r24
 1600               	.L220:
 1601               	/* epilogue: frame size=19 */
 1602 07ae 6396      		adiw r28,19
 1603 07b0 0FB6      		in __tmp_reg__,__SREG__
 1604 07b2 F894      		cli
 1605 07b4 DEBF      		out __SP_H__,r29
 1606 07b6 0FBE      		out __SREG__,__tmp_reg__
 1607 07b8 CDBF      		out __SP_L__,r28
 1608 07ba DF91      		pop r29
 1609 07bc CF91      		pop r28
 1610 07be 1F91      		pop r17
 1611 07c0 0F91      		pop r16
 1612 07c2 FF90      		pop r15
 1613 07c4 0895      		ret
 1614               	/* epilogue end (size=12) */
 1615               	/* function FUNCProgramAVR size 350 (325) */
 1616               	.LFE29:
 1618               	.global	main
 1620               	main:
 1621               	.LFB14:
 1622               	.LM240:
 1623               	/* prologue: frame size=0 */
 1624 07c6 1F93      		push r17
 1625               	/* prologue end (size=1) */
 1626               	.LM241:
 1627 07c8 80E8      		ldi r24,lo8(-128)
 1628 07ca 85BF      		out 85-0x20,r24
 1629               	.LM242:
 1630 07cc 85BF      		out 85-0x20,r24
 1631               	.LM243:
 1632 07ce 80BF      		out 80-0x20,r24
 1633               	.LM244:
 1634 07d0 85E0      		ldi r24,lo8(5)
 1635 07d2 8093 6400 		sts 100,r24
 1636               	.LM245:
 1637 07d6 80E3      		ldi r24,lo8(48)
 1638 07d8 80BB      		out 48-0x20,r24
 1639               	.LM246:
 1640 07da 87E2      		ldi r24,lo8(39)
 1641 07dc 84B9      		out 36-0x20,r24
 1642               	.LM247:
 1643 07de 8FED      		ldi r24,lo8(-33)
 1644 07e0 85B9      		out 37-0x20,r24
 1645               	.LM248:
 1646 07e2 8CE0      		ldi r24,lo8(12)
 1647 07e4 8EB9      		out 46-0x20,r24
 1648               	.LM249:
 1649 07e6 8093 6B00 		sts 107,r24
 1650               	.LM250:
 1651 07ea 80ED      		ldi r24,lo8(-48)
 1652 07ec 8093 6C00 		sts 108,r24
 1653               	.LM251:
 1654 07f0 80EC      		ldi r24,lo8(-64)
 1655 07f2 8DBB      		out 61-0x20,r24
 1656               	.LM252:
 1657 07f4 8CBB      		out 60-0x20,r24
 1658               	.LM253:
 1659 07f6 81B3      		in r24,49-0x20
 1660 07f8 8F7C      		andi r24,lo8(-49)
 1661 07fa 8063      		ori r24,lo8(48)
 1662 07fc 81BB      		out 49-0x20,r24
 1663               	.LM254:
 1664 07fe 81E0      		ldi r24,lo8(1)
 1665 0800 0E94 0000 		call MAIN_ResetCSLine
 1666               	.LM255:
 1667 0804 0E94 0000 		call LCD_Init
 1668               	.LM256:
 1669 0808 8FE0      		ldi r24,lo8(15)
 1670 080a 8093 E700 		sts 231,r24
 1671               	.LM257:
 1672 080e 80E0      		ldi r24,lo8(WaitText)
 1673 0810 90E0      		ldi r25,hi8(WaitText)
 1674 0812 0E94 0000 		call LCD_puts_f
 1675               	.LM258:
 1676               	/* #APP */
 1677 0816 7894      		sei
 1678               	/* #NOAPP */
 1679               	.LBB95:
 1680               	.LBB96:
 1681               	.LM259:
 1682 0818 A0E0      		ldi r26,lo8(EEPROMVars+138)
 1683 081a B0E0      		ldi r27,hi8(EEPROMVars+138)
 1684               	/* #APP */
 1685 081c 0E94 0000 		call __eeprom_read_byte_1F2021
 1686 0820 802D      		mov r24,__tmp_reg__
 1687               	.LVL88:
 1688               	/* #NOAPP */
 1689               	.LBE96:
 1690               	.LBE95:
 1691               	.LM260:
 1692 0822 8A37      		cpi r24,lo8(122)
 1693 0824 01F0      		breq .L231
 1694               	.LM261:
 1695 0826 80E0      		ldi r24,lo8(0)
 1696 0828 90E0      		ldi r25,hi8(0)
 1697               	.LVL89:
 1698 082a 2FEF      		ldi r18,lo8(-1)
 1699               	.L233:
 1700               	.LBB97:
 1701               	.LBB98:
 1702               	.LBB99:
 1703               	.LM262:
 1704 082c DC01      		movw r26,r24
 1705               	.LVL90:
 1706               	/* #APP */
 1707 082e 022E      		mov __tmp_reg__,r18
 1708 0830 0E94 0000 		call __eeprom_write_byte_1F2021
 1709               	/* #NOAPP */
 1710               	.LBE99:
 1711               	.LBE98:
 1712               	.LM263:
 1713 0834 0196      		adiw r24,1
 1714 0836 8B38      		cpi r24,139
 1715 0838 9105      		cpc r25,__zero_reg__
 1716 083a 01F4      		brne .L233
 1717               	.LBE97:
 1718               	.LBB100:
 1719               	.LBB101:
 1720               	.LM264:
 1721 083c 8AE7      		ldi r24,lo8(122)
 1722               	.LVL91:
 1723 083e A0E0      		ldi r26,lo8(EEPROMVars+138)
 1724 0840 B0E0      		ldi r27,hi8(EEPROMVars+138)
 1725               	.LVL92:
 1726               	/* #APP */
 1727 0842 082E      		mov __tmp_reg__,r24
 1728 0844 0E94 0000 		call __eeprom_write_byte_1F2021
 1729               	.LVL93:
 1730               	/* #NOAPP */
 1731               	.L231:
 1732               	.LBE101:
 1733               	.LBE100:
 1734               	.LBB102:
 1735               	.LBB103:
 1736               	.LM265:
 1737 0848 A0E0      		ldi r26,lo8(EEPROMVars+134)
 1738 084a B0E0      		ldi r27,hi8(EEPROMVars+134)
 1739               	.LVL94:
 1740               	/* #APP */
 1741 084c 0E94 0000 		call __eeprom_read_byte_1F2021
 1742 0850 802D      		mov r24,__tmp_reg__
 1743               	.LVL95:
 1744               	/* #NOAPP */
 1745               	.LBE103:
 1746               	.LBE102:
 1747               	.LM266:
 1748 0852 8F70      		andi r24,lo8(15)
 1749 0854 8093 E700 		sts 231,r24
 1750               	.LM267:
 1751 0858 80E0      		ldi r24,lo8(0)
 1752               	.LVL96:
 1753 085a 0E94 0000 		call DF_EnableDataflash
 1754               	.LVL97:
 1755               	.LM268:
 1756 085e 0E94 0000 		call USART_Init
 1757               	.LM269:
 1758 0862 0E94 0000 		call OSCCAL_Calibrate
 1759               	.LM270:
 1760 0866 0E94 0000 		call TOUT_SetupSleepTimer
 1761               	.LM271:
 1762 086a 81B3      		in r24,49-0x20
 1763 086c 8F7C      		andi r24,lo8(-49)
 1764 086e 8061      		ori r24,lo8(16)
 1765 0870 81BB      		out 49-0x20,r24
 1766               	.LM272:
 1767 0872 81E0      		ldi r24,lo8(1)
 1768 0874 8EBB      		out 62-0x20,r24
 1769               	.LM273:
 1770 0876 80E8      		ldi r24,lo8(-128)
 1771 0878 8093 6100 		sts 97,r24
 1772 087c 83E0      		ldi r24,lo8(3)
 1773 087e 8093 6100 		sts 97,r24
 1774 0882 10E0      		ldi r17,lo8(0)
 1775               	.LVL98:
 1776               	.L257:
 1777               	.LM274:
 1778 0884 8EB3      		in r24,62-0x20
 1779 0886 8823      		tst r24
 1780 0888 01F0      		breq .L257
 1781               	.LM275:
 1782 088a F69B      		sbis 62-0x20,6
 1783 088c 00C0      		rjmp .L237
 1784               	.LM276:
 1785 088e 1123      		tst r17
 1786 0890 01F4      		brne .L239
 1787 0892 16E0      		ldi r17,lo8(6)
 1788 0894 00C0      		rjmp .L241
 1789               	.L239:
 1790 0896 1150      		subi r17,lo8(-(-1))
 1791 0898 00C0      		rjmp .L241
 1792               	.L237:
 1793               	.LM277:
 1794 089a F79B      		sbis 62-0x20,7
 1795 089c 00C0      		rjmp .L242
 1796               	.LM278:
 1797 089e 1630      		cpi r17,lo8(6)
 1798 08a0 01F4      		brne .L244
 1799 08a2 10E0      		ldi r17,lo8(0)
 1800 08a4 00C0      		rjmp .L241
 1801               	.L244:
 1802 08a6 1F5F      		subi r17,lo8(-(1))
 1803 08a8 00C0      		rjmp .L241
 1804               	.L242:
 1805               	.LM279:
 1806 08aa F49B      		sbis 62-0x20,4
 1807 08ac 00C0      		rjmp .L246
 1808               	.LBB104:
 1809               	.LM280:
 1810 08ae E12F      		mov r30,r17
 1811 08b0 FF27      		clr r31
 1812               	.LVL99:
 1813 08b2 EE0F      		lsl r30
 1814 08b4 FF1F      		rol r31
 1815 08b6 E050      		subi r30,lo8(-(MainFunctionPtrs))
 1816 08b8 F040      		sbci r31,hi8(-(MainFunctionPtrs))
 1817               	/* #APP */
 1818 08ba 8591      		lpm r24, Z+
 1819 08bc 9491      		lpm r25, Z
 1820               		
 1821               	.LVL100:
 1822               	/* #NOAPP */
 1823               	.LBE104:
 1824 08be FC01      		movw r30,r24
 1825 08c0 0995      		icall
 1826               	.LVL101:
 1827 08c2 00C0      		rjmp .L241
 1828               	.L246:
 1829               	.LM281:
 1830 08c4 F39B      		sbis 62-0x20,3
 1831 08c6 00C0      		rjmp .L241
 1832               	.LM282:
 1833 08c8 0E94 0000 		call FUNCShowAbout
 1834               	.L241:
 1835               	.LBB105:
 1836               	.LM283:
 1837 08cc E12F      		mov r30,r17
 1838 08ce FF27      		clr r31
 1839               	.LVL102:
 1840 08d0 EE0F      		lsl r30
 1841 08d2 FF1F      		rol r31
 1842 08d4 E050      		subi r30,lo8(-(MainFunctionNames))
 1843 08d6 F040      		sbci r31,hi8(-(MainFunctionNames))
 1844               	.LBE105:
 1845               	/* #APP */
 1846 08d8 8591      		lpm r24, Z+
 1847 08da 9491      		lpm r25, Z
 1848               		
 1849               	.LVL103:
 1850               	/* #NOAPP */
 1851 08dc 0E94 0000 		call LCD_puts_f
 1852               	.LVL104:
 1853               	.LM284:
 1854 08e0 0E94 0000 		call MAIN_WaitForJoyRelease
 1855 08e4 00C0      		rjmp .L257
 1856               	/* epilogue: frame size=0 */
 1857               	/* epilogue: noreturn */
 1858               	/* epilogue end (size=0) */
 1859               	/* function main size 157 (156) */
 1860               	.LFE14:
 1862               	.global	FUNCClearMem
 1864               	FUNCClearMem:
 1865               	.LFB31:
 1866               	.LM285:
 1867               	/* prologue: frame size=0 */
 1868               	/* prologue end (size=0) */
 1869               	.LM286:
 1870 08e6 80E0      		ldi r24,lo8(__c.2284)
 1871 08e8 90E0      		ldi r25,hi8(__c.2284)
 1872 08ea 0E94 0000 		call LCD_puts_f
 1873               	.LM287:
 1874 08ee 84EB      		ldi r24,lo8(-76)
 1875 08f0 0E94 0000 		call MAIN_Delay10MS
 1876               	.LM288:
 1877 08f4 80E0      		ldi r24,lo8(__c.2286)
 1878 08f6 90E0      		ldi r25,hi8(__c.2286)
 1879 08f8 0E94 0000 		call LCD_puts_f
 1880               	.L274:
 1881               	.LM289:
 1882 08fc 8EB3      		in r24,62-0x20
 1883 08fe 8823      		tst r24
 1884 0900 01F0      		breq .L274
 1885               	.LM290:
 1886 0902 F299      		sbic 62-0x20,2
 1887 0904 00C0      		rjmp .L266
 1888               	.LM291:
 1889 0906 F39B      		sbis 62-0x20,3
 1890 0908 00C0      		rjmp .L274
 1891               	.LM292:
 1892 090a 0E94 0000 		call MAIN_WaitForJoyRelease
 1893               	.LM293:
 1894 090e 80E0      		ldi r24,lo8(WaitText)
 1895 0910 90E0      		ldi r25,hi8(WaitText)
 1896 0912 0E94 0000 		call LCD_puts_f
 1897               	.LM294:
 1898 0916 81B3      		in r24,49-0x20
 1899 0918 8F7C      		andi r24,lo8(-49)
 1900 091a 8063      		ori r24,lo8(48)
 1901 091c 81BB      		out 49-0x20,r24
 1902 091e 80E0      		ldi r24,lo8(0)
 1903 0920 90E0      		ldi r25,hi8(0)
 1904               	.LVL105:
 1905 0922 2FEF      		ldi r18,lo8(-1)
 1906               	.L264:
 1907               	.LBB112:
 1908               	.LBB113:
 1909               	.LBB114:
 1910               	.LM295:
 1911 0924 DC01      		movw r26,r24
 1912               	.LVL106:
 1913               	/* #APP */
 1914 0926 022E      		mov __tmp_reg__,r18
 1915 0928 0E94 0000 		call __eeprom_write_byte_1F2021
 1916               	/* #NOAPP */
 1917               	.LBE114:
 1918               	.LBE113:
 1919               	.LM296:
 1920 092c 0196      		adiw r24,1
 1921 092e 8B38      		cpi r24,139
 1922 0930 9105      		cpc r25,__zero_reg__
 1923 0932 01F4      		brne .L264
 1924               	.LBE112:
 1925               	.LM297:
 1926 0934 81B3      		in r24,49-0x20
 1927               	.LVL107:
 1928 0936 8F7C      		andi r24,lo8(-49)
 1929 0938 8061      		ori r24,lo8(16)
 1930 093a 81BB      		out 49-0x20,r24
 1931               	.LM298:
 1932 093c 80E0      		ldi r24,lo8(__c.2294)
 1933 093e 90E0      		ldi r25,hi8(__c.2294)
 1934 0940 0E94 0000 		call LCD_puts_f
 1935               	.LVL108:
 1936               	.LM299:
 1937 0944 8FEF      		ldi r24,lo8(-1)
 1938 0946 0E94 0000 		call MAIN_Delay10MS
 1939               	.L266:
 1940 094a 0895      		ret
 1941               	/* epilogue: frame size=0 */
 1942               	/* epilogue: noreturn */
 1943               	/* epilogue end (size=0) */
 1944               	/* function FUNCClearMem size 52 (52) */
 1945               	.LFE31:
 1947               	.global	FUNCSetContrast
 1949               	FUNCSetContrast:
 1950               	.LFB32:
 1951               	.LM300:
 1952               	/* prologue: frame size=6 */
 1953 094c 1F93      		push r17
 1954 094e CF93      		push r28
 1955 0950 DF93      		push r29
 1956 0952 CDB7      		in r28,__SP_L__
 1957 0954 DEB7      		in r29,__SP_H__
 1958 0956 2697      		sbiw r28,6
 1959 0958 0FB6      		in __tmp_reg__,__SREG__
 1960 095a F894      		cli
 1961 095c DEBF      		out __SP_H__,r29
 1962 095e 0FBE      		out __SREG__,__tmp_reg__
 1963 0960 CDBF      		out __SP_L__,r28
 1964               	/* prologue end (size=11) */
 1965               	.LBB119:
 1966               	.LBB120:
 1967               	.LM301:
 1968 0962 A0E0      		ldi r26,lo8(EEPROMVars+134)
 1969 0964 B0E0      		ldi r27,hi8(EEPROMVars+134)
 1970               	/* #APP */
 1971 0966 0E94 0000 		call __eeprom_read_byte_1F2021
 1972 096a 802D      		mov r24,__tmp_reg__
 1973               	.LVL109:
 1974               	/* #NOAPP */
 1975               	.LBE120:
 1976               	.LBE119:
 1977               	.LM302:
 1978 096c 182F      		mov r17,r24
 1979               	.LVL110:
 1980 096e 1F70      		andi r17,lo8(15)
 1981               	.LM303:
 1982 0970 81E0      		ldi r24,lo8(1)
 1983               	.LVL111:
 1984 0972 8EBB      		out 62-0x20,r24
 1985               	.L293:
 1986               	.LM304:
 1987 0974 8EB3      		in r24,62-0x20
 1988 0976 8823      		tst r24
 1989 0978 01F0      		breq .L293
 1990               	.LM305:
 1991 097a F69B      		sbis 62-0x20,6
 1992 097c 00C0      		rjmp .L278
 1993               	.LM306:
 1994 097e 1F30      		cpi r17,lo8(15)
 1995 0980 00F4      		brsh .L280
 1996               	.LM307:
 1997 0982 1F5F      		subi r17,lo8(-(1))
 1998 0984 00C0      		rjmp .L280
 1999               	.L278:
 2000               	.LM308:
 2001 0986 F79B      		sbis 62-0x20,7
 2002 0988 00C0      		rjmp .L282
 2003               	.LM309:
 2004 098a 1230      		cpi r17,lo8(2)
 2005 098c 00F0      		brlo .L280
 2006               	.LM310:
 2007 098e 1150      		subi r17,lo8(-(-1))
 2008 0990 00C0      		rjmp .L280
 2009               	.L282:
 2010               	.LM311:
 2011 0992 F299      		sbic 62-0x20,2
 2012 0994 00C0      		rjmp .L292
 2013               	.L280:
 2014               	.LM312:
 2015 0996 83E4      		ldi r24,lo8(67)
 2016 0998 8983      		std Y+1,r24
 2017               	.LM313:
 2018 099a 84E5      		ldi r24,lo8(84)
 2019 099c 8A83      		std Y+2,r24
 2020               	.LM314:
 2021 099e 80E2      		ldi r24,lo8(32)
 2022 09a0 8B83      		std Y+3,r24
 2023               	.LM315:
 2024 09a2 BE01      		movw r22,r28
 2025 09a4 6C5F      		subi r22,lo8(-(4))
 2026 09a6 7F4F      		sbci r23,hi8(-(4))
 2027 09a8 812F      		mov r24,r17
 2028 09aa 9927      		clr r25
 2029 09ac 0E94 0000 		call MAIN_IntToStr
 2030               	.LVL112:
 2031               	.LM316:
 2032 09b0 CE01      		movw r24,r28
 2033 09b2 0196      		adiw r24,1
 2034 09b4 0E94 0000 		call LCD_puts
 2035               	.LM317:
 2036 09b8 812F      		mov r24,r17
 2037 09ba 8F70      		andi r24,lo8(15)
 2038 09bc 8093 E700 		sts 231,r24
 2039               	.LM318:
 2040 09c0 0E94 0000 		call MAIN_WaitForJoyRelease
 2041 09c4 00C0      		rjmp .L293
 2042               	.LVL113:
 2043               	.L292:
 2044               	.LBB121:
 2045               	.LBB122:
 2046               	.LM319:
 2047 09c6 A0E0      		ldi r26,lo8(EEPROMVars+134)
 2048 09c8 B0E0      		ldi r27,hi8(EEPROMVars+134)
 2049               	.LVL114:
 2050               	/* #APP */
 2051 09ca 012E      		mov __tmp_reg__,r17
 2052 09cc 0E94 0000 		call __eeprom_write_byte_1F2021
 2053               	.LVL115:
 2054               	/* #NOAPP */
 2055               	.LBE122:
 2056               	.LBE121:
 2057               	/* epilogue: frame size=6 */
 2058 09d0 2696      		adiw r28,6
 2059 09d2 0FB6      		in __tmp_reg__,__SREG__
 2060 09d4 F894      		cli
 2061 09d6 DEBF      		out __SP_H__,r29
 2062 09d8 0FBE      		out __SREG__,__tmp_reg__
 2063 09da CDBF      		out __SP_L__,r28
 2064 09dc DF91      		pop r29
 2065 09de CF91      		pop r28
 2066 09e0 1F91      		pop r17
 2067 09e2 0895      		ret
 2068               	/* epilogue end (size=10) */
 2069               	/* function FUNCSetContrast size 78 (57) */
 2070               	.LFE32:
 2072               	.global	FUNCSetISPSpeed
 2074               	FUNCSetISPSpeed:
 2075               	.LFB33:
 2076               	.LM320:
 2077               	/* prologue: frame size=0 */
 2078 09e4 1F93      		push r17
 2079               	/* prologue end (size=1) */
 2080               	.LBB127:
 2081               	.LBB128:
 2082               	.LM321:
 2083 09e6 A0E0      		ldi r26,lo8(EEPROMVars+2)
 2084 09e8 B0E0      		ldi r27,hi8(EEPROMVars+2)
 2085               	/* #APP */
 2086 09ea 0E94 0000 		call __eeprom_read_byte_1F2021
 2087 09ee 802D      		mov r24,__tmp_reg__
 2088               	.LVL116:
 2089               	/* #NOAPP */
 2090               	.LBE128:
 2091               	.LBE127:
 2092               	.LM322:
 2093 09f0 182F      		mov r17,r24
 2094               	.LVL117:
 2095 09f2 8430      		cpi r24,lo8(4)
 2096 09f4 00F0      		brlo .L295
 2097               	.LVL118:
 2098               	.LM323:
 2099 09f6 13E0      		ldi r17,lo8(3)
 2100               	.L295:
 2101               	.LM324:
 2102 09f8 81E0      		ldi r24,lo8(1)
 2103               	.LVL119:
 2104 09fa 8EBB      		out 62-0x20,r24
 2105               	.L315:
 2106               	.LM325:
 2107 09fc 8EB3      		in r24,62-0x20
 2108 09fe 8823      		tst r24
 2109 0a00 01F0      		breq .L315
 2110               	.LM326:
 2111 0a02 F69B      		sbis 62-0x20,6
 2112 0a04 00C0      		rjmp .L298
 2113               	.LM327:
 2114 0a06 1123      		tst r17
 2115 0a08 01F4      		brne .L300
 2116 0a0a 13E0      		ldi r17,lo8(3)
 2117 0a0c 00C0      		rjmp .L302
 2118               	.L300:
 2119 0a0e 1150      		subi r17,lo8(-(-1))
 2120 0a10 00C0      		rjmp .L302
 2121               	.L298:
 2122               	.LM328:
 2123 0a12 F79B      		sbis 62-0x20,7
 2124 0a14 00C0      		rjmp .L303
 2125               	.LM329:
 2126 0a16 1330      		cpi r17,lo8(3)
 2127 0a18 01F0      		breq .L305
 2128 0a1a 1F5F      		subi r17,lo8(-(1))
 2129 0a1c 00C0      		rjmp .L302
 2130               	.L303:
 2131               	.LM330:
 2132 0a1e F29B      		sbis 62-0x20,2
 2133 0a20 00C0      		rjmp .L302
 2134 0a22 00C0      		rjmp .L314
 2135               	.L305:
 2136               	.LBB129:
 2137               	.LBB130:
 2138               	.LM331:
 2139 0a24 10E0      		ldi r17,lo8(0)
 2140               	.L302:
 2141               	.LBE130:
 2142               	.LBE129:
 2143               	.LM332:
 2144 0a26 8AE0      		ldi r24,lo8(10)
 2145 0a28 189F      		mul r17,r24
 2146 0a2a C001      		movw r24,r0
 2147 0a2c 1124      		clr r1
 2148 0a2e 8050      		subi r24,lo8(-(USISpeeds))
 2149 0a30 9040      		sbci r25,hi8(-(USISpeeds))
 2150 0a32 0E94 0000 		call LCD_puts_f
 2151               	.LVL120:
 2152               	.LM333:
 2153 0a36 0E94 0000 		call MAIN_WaitForJoyRelease
 2154 0a3a 00C0      		rjmp .L315
 2155               	.LVL121:
 2156               	.L314:
 2157               	.LBB131:
 2158               	.LBB132:
 2159               	.LM334:
 2160 0a3c A0E0      		ldi r26,lo8(EEPROMVars+2)
 2161 0a3e B0E0      		ldi r27,hi8(EEPROMVars+2)
 2162               	.LVL122:
 2163               	/* #APP */
 2164 0a40 012E      		mov __tmp_reg__,r17
 2165 0a42 0E94 0000 		call __eeprom_write_byte_1F2021
 2166               	.LVL123:
 2167               	/* #NOAPP */
 2168               	.LBE132:
 2169               	.LBE131:
 2170               	/* epilogue: frame size=0 */
 2171 0a46 1F91      		pop r17
 2172 0a48 0895      		ret
 2173               	/* epilogue end (size=2) */
 2174               	/* function FUNCSetISPSpeed size 53 (50) */
 2175               	.LFE33:
 2177               	.global	FUNCSetResetMode
 2179               	FUNCSetResetMode:
 2180               	.LFB34:
 2181               	.LM335:
 2182               	/* prologue: frame size=0 */
 2183 0a4a 1F93      		push r17
 2184               	/* prologue end (size=1) */
 2185               	.LBB137:
 2186               	.LBB138:
 2187               	.LM336:
 2188 0a4c A0E0      		ldi r26,lo8(EEPROMVars+137)
 2189 0a4e B0E0      		ldi r27,hi8(EEPROMVars+137)
 2190               	/* #APP */
 2191 0a50 0E94 0000 		call __eeprom_read_byte_1F2021
 2192 0a54 802D      		mov r24,__tmp_reg__
 2193               	.LVL124:
 2194               	/* #NOAPP */
 2195               	.LBE138:
 2196               	.LBE137:
 2197               	.LM337:
 2198 0a56 182F      		mov r17,r24
 2199               	.LVL125:
 2200 0a58 1170      		andi r17,lo8(1)
 2201               	.LM338:
 2202 0a5a 81E0      		ldi r24,lo8(1)
 2203               	.LVL126:
 2204 0a5c 8EBB      		out 62-0x20,r24
 2205               	.L331:
 2206               	.LM339:
 2207 0a5e 8EB3      		in r24,62-0x20
 2208 0a60 8823      		tst r24
 2209 0a62 01F0      		breq .L331
 2210               	.LM340:
 2211 0a64 F699      		sbic 62-0x20,6
 2212 0a66 00C0      		rjmp .L319
 2213 0a68 F79B      		sbis 62-0x20,7
 2214 0a6a 00C0      		rjmp .L321
 2215               	.L319:
 2216               	.LM341:
 2217 0a6c 81E0      		ldi r24,lo8(1)
 2218 0a6e 1827      		eor r17,r24
 2219 0a70 00C0      		rjmp .L322
 2220               	.L321:
 2221               	.LM342:
 2222 0a72 F299      		sbic 62-0x20,2
 2223 0a74 00C0      		rjmp .L330
 2224               	.L322:
 2225               	.LM343:
 2226 0a76 86E0      		ldi r24,lo8(6)
 2227 0a78 189F      		mul r17,r24
 2228 0a7a C001      		movw r24,r0
 2229 0a7c 1124      		clr r1
 2230 0a7e 8050      		subi r24,lo8(-(SPIResetModes))
 2231 0a80 9040      		sbci r25,hi8(-(SPIResetModes))
 2232 0a82 0E94 0000 		call LCD_puts_f
 2233               	.LVL127:
 2234               	.LM344:
 2235 0a86 0E94 0000 		call MAIN_WaitForJoyRelease
 2236 0a8a 00C0      		rjmp .L331
 2237               	.LVL128:
 2238               	.L330:
 2239               	.LBB139:
 2240               	.LBB140:
 2241               	.LM345:
 2242 0a8c A0E0      		ldi r26,lo8(EEPROMVars+137)
 2243 0a8e B0E0      		ldi r27,hi8(EEPROMVars+137)
 2244               	.LVL129:
 2245               	/* #APP */
 2246 0a90 012E      		mov __tmp_reg__,r17
 2247 0a92 0E94 0000 		call __eeprom_write_byte_1F2021
 2248               	.LVL130:
 2249               	/* #NOAPP */
 2250               	.LBE140:
 2251               	.LBE139:
 2252               	/* epilogue: frame size=0 */
 2253 0a96 1F91      		pop r17
 2254 0a98 0895      		ret
 2255               	/* epilogue end (size=2) */
 2256               	/* function FUNCSetResetMode size 42 (39) */
 2257               	.LFE34:
 2259               	.global	FUNCSetFirmMinorVer
 2261               	FUNCSetFirmMinorVer:
 2262               	.LFB35:
 2263               	.LM346:
 2264               	/* prologue: frame size=5 */
 2265 0a9a 1F93      		push r17
 2266 0a9c CF93      		push r28
 2267 0a9e DF93      		push r29
 2268 0aa0 CDB7      		in r28,__SP_L__
 2269 0aa2 DEB7      		in r29,__SP_H__
 2270 0aa4 2597      		sbiw r28,5
 2271 0aa6 0FB6      		in __tmp_reg__,__SREG__
 2272 0aa8 F894      		cli
 2273 0aaa DEBF      		out __SP_H__,r29
 2274 0aac 0FBE      		out __SREG__,__tmp_reg__
 2275 0aae CDBF      		out __SP_L__,r28
 2276               	/* prologue end (size=11) */
 2277               	.LBB146:
 2278               	.LBB147:
 2279               	.LM347:
 2280 0ab0 A0E0      		ldi r26,lo8(EEPROMVars+135)
 2281 0ab2 B0E0      		ldi r27,hi8(EEPROMVars+135)
 2282               	/* #APP */
 2283 0ab4 0E94 0000 		call __eeprom_read_byte_1F2021
 2284 0ab8 802D      		mov r24,__tmp_reg__
 2285               	.LVL131:
 2286               	/* #NOAPP */
 2287               	.LBE147:
 2288               	.LBE146:
 2289               	.LM348:
 2290 0aba 182F      		mov r17,r24
 2291               	.LVL132:
 2292               	.LVL133:
 2293               	.LM349:
 2294 0abc 8A30      		cpi r24,lo8(10)
 2295 0abe 00F0      		brlo .L333
 2296               	.LVL134:
 2297               	.LM350:
 2298 0ac0 14E0      		ldi r17,lo8(4)
 2299               	.L333:
 2300               	.LM351:
 2301 0ac2 60E0      		ldi r22,lo8(__c.2392)
 2302 0ac4 70E0      		ldi r23,hi8(__c.2392)
 2303 0ac6 CE01      		movw r24,r28
 2304               	.LVL135:
 2305 0ac8 0196      		adiw r24,1
 2306 0aca 0E94 0000 		call strcpy_P
 2307               	.LVL136:
 2308               	.LM352:
 2309 0ace 81E0      		ldi r24,lo8(1)
 2310 0ad0 8EBB      		out 62-0x20,r24
 2311               	.L352:
 2312               	.LM353:
 2313 0ad2 8EB3      		in r24,62-0x20
 2314 0ad4 8823      		tst r24
 2315 0ad6 01F0      		breq .L352
 2316               	.LM354:
 2317 0ad8 F69B      		sbis 62-0x20,6
 2318 0ada 00C0      		rjmp .L337
 2319               	.LM355:
 2320 0adc 1930      		cpi r17,lo8(9)
 2321 0ade 00F4      		brsh .L337
 2322               	.LM356:
 2323 0ae0 1F5F      		subi r17,lo8(-(1))
 2324               	.L337:
 2325               	.LM357:
 2326 0ae2 F79B      		sbis 62-0x20,7
 2327 0ae4 00C0      		rjmp .L340
 2328               	.LM358:
 2329 0ae6 1123      		tst r17
 2330 0ae8 01F0      		breq .L342
 2331               	.LM359:
 2332 0aea 1150      		subi r17,lo8(-(-1))
 2333 0aec 00C0      		rjmp .L342
 2334               	.L340:
 2335               	.LM360:
 2336 0aee F299      		sbic 62-0x20,2
 2337 0af0 00C0      		rjmp .L351
 2338               	.L342:
 2339               	.LM361:
 2340 0af2 105D      		subi r17,lo8(-(48))
 2341 0af4 1C83      		std Y+4,r17
 2342 0af6 1053      		subi r17,lo8(-(-48))
 2343               	.LM362:
 2344 0af8 CE01      		movw r24,r28
 2345 0afa 0196      		adiw r24,1
 2346 0afc 0E94 0000 		call LCD_puts
 2347               	.LM363:
 2348 0b00 0E94 0000 		call MAIN_WaitForJoyRelease
 2349 0b04 00C0      		rjmp .L352
 2350               	.L351:
 2351               	.LBB148:
 2352               	.LBB149:
 2353               	.LM364:
 2354 0b06 A0E0      		ldi r26,lo8(EEPROMVars+135)
 2355 0b08 B0E0      		ldi r27,hi8(EEPROMVars+135)
 2356               	/* #APP */
 2357 0b0a 012E      		mov __tmp_reg__,r17
 2358 0b0c 0E94 0000 		call __eeprom_write_byte_1F2021
 2359               	.LVL137:
 2360               	/* #NOAPP */
 2361               	.LBE149:
 2362               	.LBE148:
 2363               	/* epilogue: frame size=5 */
 2364 0b10 2596      		adiw r28,5
 2365 0b12 0FB6      		in __tmp_reg__,__SREG__
 2366 0b14 F894      		cli
 2367 0b16 DEBF      		out __SP_H__,r29
 2368 0b18 0FBE      		out __SREG__,__tmp_reg__
 2369 0b1a CDBF      		out __SP_L__,r28
 2370 0b1c DF91      		pop r29
 2371 0b1e CF91      		pop r28
 2372 0b20 1F91      		pop r17
 2373 0b22 0895      		ret
 2374               	/* epilogue end (size=10) */
 2375               	/* function FUNCSetFirmMinorVer size 71 (50) */
 2376               	.LFE35:
 2378               	.global	BUTTTAG_Title
 2379               		.section	.progmem.data,"a",@progbits
 2382               	BUTTTAG_Title:
 2383 0000 40        		.byte	64
 2384 0001 28        		.byte	40
 2385 0002 23        		.byte	35
 2386 0003 29        		.byte	41
 2387 0004 4255 5454 		.string	"BUTTLOAD AVRISP"
 2387      4C4F 4144 
 2387      2041 5652 
 2387      4953 5000 
 2388               	.global	BUTTTAG_Version
 2391               	BUTTTAG_Version:
 2392 0014 40        		.byte	64
 2393 0015 28        		.byte	40
 2394 0016 23        		.byte	35
 2395 0017 29        		.byte	41
 2396 0018 56        		.byte	86
 2397 0019 31        		.byte	49
 2398 001a 2D        		.byte	45
 2399 001b 34        		.byte	52
 2400 001c 00        		.byte	0
 2401               	.global	BUTTTAG_Author
 2404               	BUTTTAG_Author:
 2405 001d 40        		.byte	64
 2406 001e 28        		.byte	40
 2407 001f 23        		.byte	35
 2408 0020 29        		.byte	41
 2409 0021 4259 2044 		.string	"BY DEAN CAMERA"
 2409      4541 4E20 
 2409      4341 4D45 
 2409      5241 00
 2410               	.global	BUTTTAG_Copyright
 2413               	BUTTTAG_Copyright:
 2414 0030 40        		.byte	64
 2415 0031 28        		.byte	40
 2416 0032 23        		.byte	35
 2417 0033 29        		.byte	41
 2418 0034 3C43 3E20 		.string	"<C> 2006 - GPL"
 2418      3230 3036 
 2418      202D 2047 
 2418      504C 00
 2419               	.global	AboutTextPtrs
 2422               	AboutTextPtrs:
 2423 0043 0000      		.word	BUTTTAG_Title+4
 2424 0045 0000      		.word	BUTTTAG_Version+4
 2425 0047 0000      		.word	BUTTTAG_Author+4
 2426 0049 0000      		.word	BUTTTAG_Copyright+4
 2427               	.global	WaitText
 2430               	WaitText:
 2431 004b 2A57 4149 		.string	"*WAIT*"
 2431      542A 00
 2432               	.global	Func_ISPPRGM
 2435               	Func_ISPPRGM:
 2436 0052 4156 5249 		.string	"AVRISP MODE"
 2436      5350 204D 
 2436      4F44 4500 
 2437               	.global	Func_STOREPRGM
 2440               	Func_STOREPRGM:
 2441 005e 5354 4F52 		.string	"STORE PRGM"
 2441      4520 5052 
 2441      474D 00
 2442               	.global	Func_PRGMAVR
 2445               	Func_PRGMAVR:
 2446 0069 5052 4F47 		.string	"PROGRAM AVR"
 2446      5241 4D20 
 2446      4156 5200 
 2447               	.global	Func_PRGMDATAFLASH
 2450               	Func_PRGMDATAFLASH:
 2451 0075 4441 5441 		.string	"DATAFLASH PRGM"
 2451      464C 4153 
 2451      4820 5052 
 2451      474D 00
 2452               	.global	Func_PRGMSTOREINFO
 2455               	Func_PRGMSTOREINFO:
 2456 0084 4441 5441 		.string	"DATASTORE INFO"
 2456      5354 4F52 
 2456      4520 494E 
 2456      464F 00
 2457               	.global	Func_SETTINGS
 2460               	Func_SETTINGS:
 2461 0093 5345 5454 		.string	"SETTINGS"
 2461      494E 4753 
 2461      00
 2462               	.global	Func_SLEEP
 2465               	Func_SLEEP:
 2466 009c 534C 4545 		.string	"SLEEP MODE"
 2466      5020 4D4F 
 2466      4445 00
 2467               	.global	MainFunctionNames
 2470               	MainFunctionNames:
 2471 00a7 0000      		.word	Func_ISPPRGM
 2472 00a9 0000      		.word	Func_STOREPRGM
 2473 00ab 0000      		.word	Func_PRGMAVR
 2474 00ad 0000      		.word	Func_PRGMDATAFLASH
 2475 00af 0000      		.word	Func_PRGMSTOREINFO
 2476 00b1 0000      		.word	Func_SETTINGS
 2477 00b3 0000      		.word	Func_SLEEP
 2478               	.global	MainFunctionPtrs
 2481               	MainFunctionPtrs:
 2482 00b5 0000      		.word	gs(FUNCAVRISPMode)
 2483 00b7 0000      		.word	gs(FUNCStoreProgram)
 2484 00b9 0000      		.word	gs(FUNCProgramAVR)
 2485 00bb 0000      		.word	gs(FUNCProgramDataflash)
 2486 00bd 0000      		.word	gs(FUNCStorageInfo)
 2487 00bf 0000      		.word	gs(FUNCChangeSettings)
 2488 00c1 0000      		.word	gs(FUNCSleepMode)
 2489               	.global	SFunc_SETCONTRAST
 2492               	SFunc_SETCONTRAST:
 2493 00c3 5345 5420 		.string	"SET CONTRAST"
 2493      434F 4E54 
 2493      5241 5354 
 2493      00
 2494               	.global	SFunc_SETSPISPEED
 2497               	SFunc_SETSPISPEED:
 2498 00d0 5345 5420 		.string	"SET SPI SPEED"
 2498      5350 4920 
 2498      5350 4545 
 2498      4400 
 2499               	.global	SFunc_SETRESETMODE
 2502               	SFunc_SETRESETMODE:
 2503 00de 5345 5420 		.string	"SET RESET MODE"
 2503      5245 5345 
 2503      5420 4D4F 
 2503      4445 00
 2504               	.global	SFunc_SETFIRMMINOR
 2507               	SFunc_SETFIRMMINOR:
 2508 00ed 5345 5420 		.string	"SET FIRM VERSION"
 2508      4649 524D 
 2508      2056 4552 
 2508      5349 4F4E 
 2508      00
 2509               	.global	SFunc_SETAUTOSLEEPTO
 2512               	SFunc_SETAUTOSLEEPTO:
 2513 00fe 5345 5420 		.string	"SET SLEEP TIMEOUT"
 2513      534C 4545 
 2513      5020 5449 
 2513      4D45 4F55 
 2513      5400 
 2514               	.global	SFunc_CLEARMEM
 2517               	SFunc_CLEARMEM:
 2518 0110 434C 4541 		.string	"CLEAR MEMORY"
 2518      5220 4D45 
 2518      4D4F 5259 
 2518      00
 2519               	.global	SFunc_GOBOOTLOADER
 2522               	SFunc_GOBOOTLOADER:
 2523 011d 4A55 4D50 		.string	"JUMP TO BOOTLOADER"
 2523      2054 4F20 
 2523      424F 4F54 
 2523      4C4F 4144 
 2523      4552 00
 2524               	.global	SettingFunctionNames
 2527               	SettingFunctionNames:
 2528 0130 0000      		.word	SFunc_SETCONTRAST
 2529 0132 0000      		.word	SFunc_SETSPISPEED
 2530 0134 0000      		.word	SFunc_SETRESETMODE
 2531 0136 0000      		.word	SFunc_SETFIRMMINOR
 2532 0138 0000      		.word	SFunc_SETAUTOSLEEPTO
 2533 013a 0000      		.word	SFunc_CLEARMEM
 2534 013c 0000      		.word	SFunc_GOBOOTLOADER
 2535               	.global	SettingFunctionPtrs
 2538               	SettingFunctionPtrs:
 2539 013e 0000      		.word	gs(FUNCSetContrast)
 2540 0140 0000      		.word	gs(FUNCSetISPSpeed)
 2541 0142 0000      		.word	gs(FUNCSetResetMode)
 2542 0144 0000      		.word	gs(FUNCSetFirmMinorVer)
 2543 0146 0000      		.word	gs(FUNCSetAutoSleepTimeOut)
 2544 0148 0000      		.word	gs(FUNCClearMem)
 2545 014a 0000      		.word	gs(FUNCGoBootloader)
 2546               	.global	PRG_A
 2549               	PRG_A:
 2550 014c 5052 474D 		.string	"PRGM ALL"
 2550      2041 4C4C 
 2550      00
 2551               	.global	PRG_D
 2554               	PRG_D:
 2555 0155 4441 5441 		.string	"DATA ONLY"
 2555      204F 4E4C 
 2555      5900 
 2556               	.global	PRG_E
 2559               	PRG_E:
 2560 015f 4545 5052 		.string	"EEPROM ONLY"
 2560      4F4D 204F 
 2560      4E4C 5900 
 2561               	.global	PRG_DE
 2564               	PRG_DE:
 2565 016b 4441 5441 		.string	"DATA AND EEPROM"
 2565      2041 4E44 
 2565      2045 4550 
 2565      524F 4D00 
 2566               	.global	PRG_F
 2569               	PRG_F:
 2570 017b 4655 5345 		.string	"FUSE BYTES ONLY"
 2570      2042 5954 
 2570      4553 204F 
 2570      4E4C 5900 
 2571               	.global	PRG_L
 2574               	PRG_L:
 2575 018b 4C4F 434B 		.string	"LOCK BYTES ONLY"
 2575      2042 5954 
 2575      4553 204F 
 2575      4E4C 5900 
 2576               	.global	PRG_FL
 2579               	PRG_FL:
 2580 019b 4655 5345 		.string	"FUSE AND LOCK BYTES"
 2580      2041 4E44 
 2580      204C 4F43 
 2580      4B20 4259 
 2580      5445 5300 
 2581               	.global	PRG_C
 2584               	PRG_C:
 2585 01af 4552 4153 		.string	"ERASE ONLY"
 2585      4520 4F4E 
 2585      4C59 00
 2586               	.global	ProgOptions
 2589               	ProgOptions:
 2590 01ba 0000      		.word	PRG_A
 2591 01bc 0000      		.word	PRG_D
 2592 01be 0000      		.word	PRG_E
 2593 01c0 0000      		.word	PRG_DE
 2594 01c2 0000      		.word	PRG_F
 2595 01c4 0000      		.word	PRG_L
 2596 01c6 0000      		.word	PRG_FL
 2597 01c8 0000      		.word	PRG_C
 2598               	.global	USISpeeds
 2601               	USISpeeds:
 2602 01ca 2035 3731 		.string	" 57153 HZ"
 2602      3533 2048 
 2602      5A00 
 2603 01d4 2038 3637 		.string	" 86738 HZ"
 2603      3338 2048 
 2603      5A00 
 2604 01de 3131 3334 		.string	"113427 HZ"
 2604      3237 2048 
 2604      5A00 
 2605 01e8 3231 3036 		.string	"210651 HZ"
 2605      3531 2048 
 2605      5A00 
 2606               	.global	SPIResetModes
 2609               	SPIResetModes:
 2610 01f2 4C4F 4749 		.string	"LOGIC"
 2610      4300 
 2611 01f8 464C 4F41 		.string	"FLOAT"
 2611      5400 
 2612               	.global	SIFONames
 2615               	SIFONames:
 2616 01fe 5354 4F52 		.string	"STORAGE SIZES"
 2616      4147 4520 
 2616      5349 5A45 
 2616      5300 
 2617 020c 00        		.skip 1,0
 2618 020d 5649 4557 		.string	"VIEW DATA TAGS"
 2618      2044 4154 
 2618      4120 5441 
 2618      4753 00
 2621               	__c.2500:
 2622 021c 2A4A 5441 		.string	"*JTAG ON*"
 2622      4720 4F4E 
 2622      2A00 
 2625               	__c.2469:
 2626 0226 4E4F 2053 		.string	"NO STORED PRGM"
 2626      544F 5245 
 2626      4420 5052 
 2626      474D 00
 2629               	__c.2415:
 2630 0235 4F46 4600 		.string	"OFF"
 2633               	__c.2413:
 2634 0239 2020 2020 		.string	"    SEC"
 2634      5345 4300 
 2637               	__c.2392:
 2638 0241 5632 2D20 		.string	"V2- "
 2638      00
 2641               	__c.2294:
 2642 0246 4D45 4D20 		.string	"MEM CLEARED"
 2642      434C 4541 
 2642      5245 4400 
 2645               	__c.2286:
 2646 0252 3C4E 2059 		.string	"<N Y>"
 2646      3E00 
 2649               	__c.2284:
 2650 0258 434F 4E46 		.string	"CONFIRM"
 2650      4952 4D00 
 2653               	__c.2267:
 2654 0260 2A53 544F 		.string	"*STORAGE MODE*"
 2654      5241 4745 
 2654      204D 4F44 
 2654      452A 00
 2657               	__c.2200:
 2658 026f 4641 494C 		.string	"FAILED"
 2658      4544 00
 2661               	__c.2198:
 2662 0276 5052 4F47 		.string	"PROGRAMMING DONE"
 2662      5241 4D4D 
 2662      494E 4720 
 2662      444F 4E45 
 2662      00
 2665               	__c.2196:
 2666 0287 4E4F 204C 		.string	"NO LOCK BYTES"
 2666      4F43 4B20 
 2666      4259 5445 
 2666      5300 
 2669               	__c.2194:
 2670 0295 4E4F 2046 		.string	"NO FUSE BYTES"
 2670      5553 4520 
 2670      4259 5445 
 2670      5300 
 2673               	__c.2192:
 2674 02a3 4E4F 2045 		.string	"NO EEPROM"
 2674      4550 524F 
 2674      4D00 
 2677               	__c.2190:
 2678 02ad 4E4F 2044 		.string	"NO DATA"
 2678      4154 4100 
 2681               	__c.2188:
 2682 02b5 4E4F 2045 		.string	"NO ERASE CMD"
 2682      5241 5345 
 2682      2043 4D44 
 2682      00
 2685               	__c.2084:
 2686 02c2 4241 4449 		.string	"BADISR"
 2686      5352 00
 2689               	__c.2034:
 2690 02c9 5052 473E 		.string	"PRG>  "
 2690      2020 00
 2691               	.global	EEPROMVars
 2692               		.section	.eeprom,"aw",@progbits
 2695               	EEPROMVars:
 2696 0000 0000 0000 		.skip 139,0
 2696      0000 0000 
 2696      0000 0000 
 2696      0000 0000 
 2696      0000 0000 
 2894               	.Letext0:
DEFINED SYMBOLS
                            *ABS*:00000000 Main.c
C:\DOCUME~1\Dean\LOCALS~1\Temp/ccMRaaaa.s:3      *ABS*:0000003f __SREG__
C:\DOCUME~1\Dean\LOCALS~1\Temp/ccMRaaaa.s:4      *ABS*:0000003e __SP_H__
C:\DOCUME~1\Dean\LOCALS~1\Temp/ccMRaaaa.s:5      *ABS*:0000003d __SP_L__
C:\DOCUME~1\Dean\LOCALS~1\Temp/ccMRaaaa.s:6      *ABS*:00000000 __tmp_reg__
C:\DOCUME~1\Dean\LOCALS~1\Temp/ccMRaaaa.s:7      *ABS*:00000001 __zero_reg__
C:\DOCUME~1\Dean\LOCALS~1\Temp/ccMRaaaa.s:20     .text:00000000 MAIN_Delay10MS
C:\DOCUME~1\Dean\LOCALS~1\Temp/ccMRaaaa.s:59     .text:00000014 MAIN_Delay1MS
C:\DOCUME~1\Dean\LOCALS~1\Temp/ccMRaaaa.s:98     .text:00000028 MAIN_ResetCSLine
C:\DOCUME~1\Dean\LOCALS~1\Temp/ccMRaaaa.s:2695   .eeprom:00000000 EEPROMVars
C:\DOCUME~1\Dean\LOCALS~1\Temp/ccMRaaaa.s:198    .text:00000076 MAIN_WaitForJoyRelease
C:\DOCUME~1\Dean\LOCALS~1\Temp/ccMRaaaa.s:223    .text:0000008a MAIN_IntToStr
C:\DOCUME~1\Dean\LOCALS~1\Temp/ccMRaaaa.s:287    .text:000000c8 __vector_3
C:\DOCUME~1\Dean\LOCALS~1\Temp/ccMRaaaa.s:328    .text:00000106 FUNCSleepMode
C:\DOCUME~1\Dean\LOCALS~1\Temp/ccMRaaaa.s:373    .text:0000013a FUNCGoBootloader
C:\DOCUME~1\Dean\LOCALS~1\Temp/ccMRaaaa.s:2621   .progmem.data:0000021c __c.2500
C:\DOCUME~1\Dean\LOCALS~1\Temp/ccMRaaaa.s:408    .text:0000015a FUNCShowAbout
C:\DOCUME~1\Dean\LOCALS~1\Temp/ccMRaaaa.s:2422   .progmem.data:00000043 AboutTextPtrs
C:\DOCUME~1\Dean\LOCALS~1\Temp/ccMRaaaa.s:483    .text:000001aa FUNCChangeSettings
C:\DOCUME~1\Dean\LOCALS~1\Temp/ccMRaaaa.s:2538   .progmem.data:0000013e SettingFunctionPtrs
C:\DOCUME~1\Dean\LOCALS~1\Temp/ccMRaaaa.s:2527   .progmem.data:00000130 SettingFunctionNames
C:\DOCUME~1\Dean\LOCALS~1\Temp/ccMRaaaa.s:582    .text:00000214 FUNCSetAutoSleepTimeOut
C:\DOCUME~1\Dean\LOCALS~1\Temp/ccMRaaaa.s:2633   .progmem.data:00000239 __c.2413
C:\DOCUME~1\Dean\LOCALS~1\Temp/ccMRaaaa.s:2629   .progmem.data:00000235 __c.2415
C:\DOCUME~1\Dean\LOCALS~1\Temp/ccMRaaaa.s:740    .text:000002d8 MAIN_ShowError
C:\DOCUME~1\Dean\LOCALS~1\Temp/ccMRaaaa.s:797    .text:00000324 FUNCStorageInfo
C:\DOCUME~1\Dean\LOCALS~1\Temp/ccMRaaaa.s:2625   .progmem.data:00000226 __c.2469
C:\DOCUME~1\Dean\LOCALS~1\Temp/ccMRaaaa.s:2615   .progmem.data:000001fe SIFONames
C:\DOCUME~1\Dean\LOCALS~1\Temp/ccMRaaaa.s:902    .text:000003c8 MAIN_ShowProgType
C:\DOCUME~1\Dean\LOCALS~1\Temp/ccMRaaaa.s:2689   .progmem.data:000002c9 __c.2034
C:\DOCUME~1\Dean\LOCALS~1\Temp/ccMRaaaa.s:955    .text:00000414 FUNCStoreProgram
C:\DOCUME~1\Dean\LOCALS~1\Temp/ccMRaaaa.s:2430   .progmem.data:0000004b WaitText
C:\DOCUME~1\Dean\LOCALS~1\Temp/ccMRaaaa.s:2653   .progmem.data:00000260 __c.2267
C:\DOCUME~1\Dean\LOCALS~1\Temp/ccMRaaaa.s:1010   .text:00000470 FUNCAVRISPMode
C:\DOCUME~1\Dean\LOCALS~1\Temp/ccMRaaaa.s:1042   .text:0000049a MAIN_CrashProgram
C:\DOCUME~1\Dean\LOCALS~1\Temp/ccMRaaaa.s:1072   .text:000004ba __vector_default
C:\DOCUME~1\Dean\LOCALS~1\Temp/ccMRaaaa.s:2685   .progmem.data:000002c2 __c.2084
C:\DOCUME~1\Dean\LOCALS~1\Temp/ccMRaaaa.s:1090   .text:000004c2 FUNCProgramDataflash
C:\DOCUME~1\Dean\LOCALS~1\Temp/ccMRaaaa.s:1154   .text:0000051c FUNCProgramAVR
C:\DOCUME~1\Dean\LOCALS~1\Temp/ccMRaaaa.s:2589   .progmem.data:000001ba ProgOptions
C:\DOCUME~1\Dean\LOCALS~1\Temp/ccMRaaaa.s:2681   .progmem.data:000002b5 __c.2188
C:\DOCUME~1\Dean\LOCALS~1\Temp/ccMRaaaa.s:2677   .progmem.data:000002ad __c.2190
C:\DOCUME~1\Dean\LOCALS~1\Temp/ccMRaaaa.s:2673   .progmem.data:000002a3 __c.2192
C:\DOCUME~1\Dean\LOCALS~1\Temp/ccMRaaaa.s:2669   .progmem.data:00000295 __c.2194
C:\DOCUME~1\Dean\LOCALS~1\Temp/ccMRaaaa.s:2665   .progmem.data:00000287 __c.2196
C:\DOCUME~1\Dean\LOCALS~1\Temp/ccMRaaaa.s:2661   .progmem.data:00000276 __c.2198
C:\DOCUME~1\Dean\LOCALS~1\Temp/ccMRaaaa.s:2657   .progmem.data:0000026f __c.2200
C:\DOCUME~1\Dean\LOCALS~1\Temp/ccMRaaaa.s:1620   .text:000007c6 main
C:\DOCUME~1\Dean\LOCALS~1\Temp/ccMRaaaa.s:2481   .progmem.data:000000b5 MainFunctionPtrs
C:\DOCUME~1\Dean\LOCALS~1\Temp/ccMRaaaa.s:2470   .progmem.data:000000a7 MainFunctionNames
C:\DOCUME~1\Dean\LOCALS~1\Temp/ccMRaaaa.s:1864   .text:000008e6 FUNCClearMem
C:\DOCUME~1\Dean\LOCALS~1\Temp/ccMRaaaa.s:2649   .progmem.data:00000258 __c.2284
C:\DOCUME~1\Dean\LOCALS~1\Temp/ccMRaaaa.s:2645   .progmem.data:00000252 __c.2286
C:\DOCUME~1\Dean\LOCALS~1\Temp/ccMRaaaa.s:2641   .progmem.data:00000246 __c.2294
C:\DOCUME~1\Dean\LOCALS~1\Temp/ccMRaaaa.s:1949   .text:0000094c FUNCSetContrast
C:\DOCUME~1\Dean\LOCALS~1\Temp/ccMRaaaa.s:2074   .text:000009e4 FUNCSetISPSpeed
C:\DOCUME~1\Dean\LOCALS~1\Temp/ccMRaaaa.s:2601   .progmem.data:000001ca USISpeeds
C:\DOCUME~1\Dean\LOCALS~1\Temp/ccMRaaaa.s:2179   .text:00000a4a FUNCSetResetMode
C:\DOCUME~1\Dean\LOCALS~1\Temp/ccMRaaaa.s:2609   .progmem.data:000001f2 SPIResetModes
C:\DOCUME~1\Dean\LOCALS~1\Temp/ccMRaaaa.s:2261   .text:00000a9a FUNCSetFirmMinorVer
C:\DOCUME~1\Dean\LOCALS~1\Temp/ccMRaaaa.s:2637   .progmem.data:00000241 __c.2392
C:\DOCUME~1\Dean\LOCALS~1\Temp/ccMRaaaa.s:2382   .progmem.data:00000000 BUTTTAG_Title
C:\DOCUME~1\Dean\LOCALS~1\Temp/ccMRaaaa.s:2391   .progmem.data:00000014 BUTTTAG_Version
C:\DOCUME~1\Dean\LOCALS~1\Temp/ccMRaaaa.s:2404   .progmem.data:0000001d BUTTTAG_Author
C:\DOCUME~1\Dean\LOCALS~1\Temp/ccMRaaaa.s:2413   .progmem.data:00000030 BUTTTAG_Copyright
C:\DOCUME~1\Dean\LOCALS~1\Temp/ccMRaaaa.s:2435   .progmem.data:00000052 Func_ISPPRGM
C:\DOCUME~1\Dean\LOCALS~1\Temp/ccMRaaaa.s:2440   .progmem.data:0000005e Func_STOREPRGM
C:\DOCUME~1\Dean\LOCALS~1\Temp/ccMRaaaa.s:2445   .progmem.data:00000069 Func_PRGMAVR
C:\DOCUME~1\Dean\LOCALS~1\Temp/ccMRaaaa.s:2450   .progmem.data:00000075 Func_PRGMDATAFLASH
C:\DOCUME~1\Dean\LOCALS~1\Temp/ccMRaaaa.s:2455   .progmem.data:00000084 Func_PRGMSTOREINFO
C:\DOCUME~1\Dean\LOCALS~1\Temp/ccMRaaaa.s:2460   .progmem.data:00000093 Func_SETTINGS
C:\DOCUME~1\Dean\LOCALS~1\Temp/ccMRaaaa.s:2465   .progmem.data:0000009c Func_SLEEP
C:\DOCUME~1\Dean\LOCALS~1\Temp/ccMRaaaa.s:2492   .progmem.data:000000c3 SFunc_SETCONTRAST
C:\DOCUME~1\Dean\LOCALS~1\Temp/ccMRaaaa.s:2497   .progmem.data:000000d0 SFunc_SETSPISPEED
C:\DOCUME~1\Dean\LOCALS~1\Temp/ccMRaaaa.s:2502   .progmem.data:000000de SFunc_SETRESETMODE
C:\DOCUME~1\Dean\LOCALS~1\Temp/ccMRaaaa.s:2507   .progmem.data:000000ed SFunc_SETFIRMMINOR
C:\DOCUME~1\Dean\LOCALS~1\Temp/ccMRaaaa.s:2512   .progmem.data:000000fe SFunc_SETAUTOSLEEPTO
C:\DOCUME~1\Dean\LOCALS~1\Temp/ccMRaaaa.s:2517   .progmem.data:00000110 SFunc_CLEARMEM
C:\DOCUME~1\Dean\LOCALS~1\Temp/ccMRaaaa.s:2522   .progmem.data:0000011d SFunc_GOBOOTLOADER
C:\DOCUME~1\Dean\LOCALS~1\Temp/ccMRaaaa.s:2549   .progmem.data:0000014c PRG_A
C:\DOCUME~1\Dean\LOCALS~1\Temp/ccMRaaaa.s:2554   .progmem.data:00000155 PRG_D
C:\DOCUME~1\Dean\LOCALS~1\Temp/ccMRaaaa.s:2559   .progmem.data:0000015f PRG_E
C:\DOCUME~1\Dean\LOCALS~1\Temp/ccMRaaaa.s:2564   .progmem.data:0000016b PRG_DE
C:\DOCUME~1\Dean\LOCALS~1\Temp/ccMRaaaa.s:2569   .progmem.data:0000017b PRG_F
C:\DOCUME~1\Dean\LOCALS~1\Temp/ccMRaaaa.s:2574   .progmem.data:0000018b PRG_L
C:\DOCUME~1\Dean\LOCALS~1\Temp/ccMRaaaa.s:2579   .progmem.data:0000019b PRG_FL
C:\DOCUME~1\Dean\LOCALS~1\Temp/ccMRaaaa.s:2584   .progmem.data:000001af PRG_C

UNDEFINED SYMBOLS
__do_copy_data
__do_clear_bss
__eeprom_read_byte_1F2021
SleepTimeOutTicks
LCD_puts_f
strcpy_P
AutoSleepTOValues
LCD_puts
__eeprom_write_byte_1F2021
TOUT_SetupSleepTimer
SPI_SPITransmit
DFSPIRoutinePointer
SPI_SPIInit
DataflashInfo
DF_EnableDataflash
DF_CheckCorrectOnboardChip
TM_ShowTags
PM_GetStoredDataSize
PM_ShowStoredItemSizes
OSCCAL_Calibrate
PM_InterpretAVRISPPacket
V2P_RunStateMachine
AVRISPModeMessage
AICI_InterpretPacket
USI_SPIOff
USI_SPIInitMaster
USI_SPITransmit
DataFlashProgMode
PD_InterpretAVRISPPacket
PacketBytes
ISPCC_EnterChipProgrammingMode
CurrAddress
PM_SendEraseCommand
PM_CreateProgrammingPackets
PM_SendFuseLockBytes
SyncErrorMessage
LCD_Init
USART_Init
