   1               		.file	"Main.c"
   2               		.arch atmega169
   3               	__SREG__ = 0x3f
   4               	__SP_H__ = 0x3e
   5               	__SP_L__ = 0x3d
   6               	__tmp_reg__ = 0
   7               	__zero_reg__ = 1
   8               		.global __do_copy_data
   9               		.global __do_clear_bss
  17               	.Ltext0:
  19               	MAIN_Delay10MS:
  20               	.LFB15:
  21               	.LM1:
  22               	/* prologue: frame size=0 */
  23               	/* prologue end (size=0) */
  24               	.LVL0:
  25 0000 282F      		mov r18,r24
  26 0002 E0E0      		ldi r30,lo8(18432)
  27 0004 F8E4      		ldi r31,hi8(18432)
  28 0006 00C0      		rjmp .L2
  29               	.LVL1:
  30               	.L3:
  31               	.LBB12:
  32               	.LBB13:
  33               	.LBB14:
  34               	.LBB15:
  35               	.LM2:
  36 0008 CF01      		movw r24,r30
  37               	/* #APP */
  38 000a 0197      		1: sbiw r24,1
  39 000c 01F4      		brne 1b
  40               	.LVL2:
  41               	/* #NOAPP */
  42               	.L2:
  43               	.LBE15:
  44               	.LBE14:
  45               	.LBE13:
  46               	.LBE12:
  47               	.LM3:
  48 000e 2150      		subi r18,1
  49 0010 00F4      		brcc .L3
  50               	/* epilogue: frame size=0 */
  51 0012 0895      		ret
  52               	/* epilogue end (size=1) */
  53               	/* function MAIN_Delay10MS size 11 (10) */
  54               	.LFE15:
  57               	MAIN_ResetCSLine:
  58               	.LFB17:
  59               	.LM4:
  60               	/* prologue: frame size=0 */
  61               	/* prologue end (size=0) */
  62               	.LVL3:
  63               	.LM5:
  64 0014 8130      		cpi r24,lo8(1)
  65 0016 01F0      		breq .L9
  66               	.LM6:
  67 0018 8130      		cpi r24,lo8(1)
  68 001a 00F0      		brlo .L8
  69 001c 8230      		cpi r24,lo8(2)
  70 001e 01F4      		brne .L13
  71 0020 00C0      		rjmp .L10
  72               	.L8:
  73               	.LM7:
  74 0022 869A      		sbi 48-0x20,6
  75               	.LBB16:
  76               	.LBB17:
  77               	.LM8:
  78 0024 A0E0      		ldi r26,lo8(EEPROMVars+1)
  79 0026 B0E0      		ldi r27,hi8(EEPROMVars+1)
  80               	/* #APP */
  81 0028 0E94 0000 		call __eeprom_read_byte_1F2021
  82 002c 802D      		mov r24,__tmp_reg__
  83               	.LVL4:
  84               	/* #NOAPP */
  85               	.LBE17:
  86               	.LBE16:
  87               	.LM9:
  88 002e 8823      		tst r24
  89 0030 01F4      		brne .L14
  90               	.LM10:
  91 0032 8E9A      		sbi 49-0x20,6
  92 0034 0895      		ret
  93               	.LVL5:
  94               	.L10:
  95               	.LM11:
  96 0036 869A      		sbi 48-0x20,6
  97               	.LVL6:
  98               	.L14:
  99               	.LM12:
 100 0038 8E98      		cbi 49-0x20,6
 101 003a 0895      		ret
 102               	.LVL7:
 103               	.L9:
 104               	.LM13:
 105 003c 8698      		cbi 48-0x20,6
 106               	.LM14:
 107 003e 8E98      		cbi 49-0x20,6
 108               	.L13:
 109 0040 0895      		ret
 110               	/* epilogue: frame size=0 */
 111               	/* epilogue: noreturn */
 112               	/* epilogue end (size=0) */
 113               	/* function MAIN_ResetCSLine size 24 (24) */
 114               	.LFE17:
 117               	MAIN_WaitForJoyRelease:
 118               	.LFB18:
 119               	.LM15:
 120               	/* prologue: frame size=0 */
 121               	/* prologue end (size=0) */
 122               	.L26:
 123               	.LM16:
 124 0042 8EB3      		in r24,62-0x20
 125 0044 8823      		tst r24
 126 0046 01F4      		brne .L26
 127               	.LM17:
 128 0048 82E0      		ldi r24,lo8(2)
 129 004a 0E94 0000 		call MAIN_Delay10MS
 130               	.LM18:
 131 004e 8EB3      		in r24,62-0x20
 132 0050 8823      		tst r24
 133 0052 01F4      		brne .L26
 134               	/* epilogue: frame size=0 */
 135 0054 0895      		ret
 136               	/* epilogue end (size=1) */
 137               	/* function MAIN_WaitForJoyRelease size 10 (9) */
 138               	.LFE18:
 141               	MAIN_IntToStr:
 142               	.LFB19:
 143               	.LM19:
 144               	/* prologue: frame size=0 */
 145 0056 CF93      		push r28
 146 0058 DF93      		push r29
 147               	/* prologue end (size=2) */
 148               	.LVL8:
 149 005a FB01      		movw r30,r22
 150 005c 20E0      		ldi r18,lo8(0)
 151               	.LVL9:
 152 005e 00C0      		rjmp .L28
 153               	.LVL10:
 154               	.L29:
 155               	.LM20:
 156 0060 2F5F      		subi r18,lo8(-(1))
 157               	.LM21:
 158 0062 8456      		subi r24,lo8(-(-100))
 159 0064 9040      		sbci r25,hi8(-(-100))
 160               	.L28:
 161               	.LM22:
 162 0066 8436      		cpi r24,100
 163 0068 9105      		cpc r25,__zero_reg__
 164 006a 00F4      		brsh .L29
 165               	.LM23:
 166 006c 205D      		subi r18,lo8(-(48))
 167 006e 2193      		st Z+,r18
 168 0070 DF01      		movw r26,r30
 169               	.LVL11:
 170 0072 20E0      		ldi r18,lo8(0)
 171               	.LVL12:
 172 0074 00C0      		rjmp .L31
 173               	.L32:
 174               	.LM24:
 175 0076 2F5F      		subi r18,lo8(-(1))
 176               	.LM25:
 177 0078 0A97      		sbiw r24,10
 178               	.L31:
 179               	.LM26:
 180 007a 8A30      		cpi r24,10
 181 007c 9105      		cpc r25,__zero_reg__
 182 007e 00F4      		brsh .L32
 183               	.LM27:
 184 0080 205D      		subi r18,lo8(-(48))
 185 0082 FD01      		movw r30,r26
 186               	.LVL13:
 187 0084 2193      		st Z+,r18
 188               	.LM28:
 189 0086 805D      		subi r24,lo8(-(48))
 190               	.LVL14:
 191 0088 ED01      		movw r28,r26
 192 008a 8983      		std Y+1,r24
 193               	.LM29:
 194 008c 1182      		std Z+1,__zero_reg__
 195               	/* epilogue: frame size=0 */
 196 008e DF91      		pop r29
 197 0090 CF91      		pop r28
 198 0092 0895      		ret
 199               	/* epilogue end (size=3) */
 200               	/* function MAIN_IntToStr size 31 (26) */
 201               	.LFE19:
 203               	.global	__vector_3
 205               	__vector_3:
 206               	.LFB23:
 207               	.LM30:
 208               	/* prologue: frame size=0 */
 209 0094 7894      		sei
 210 0096 1F92      		push __zero_reg__
 211 0098 0F92      		push __tmp_reg__
 212 009a 0FB6      		in __tmp_reg__,__SREG__
 213 009c 0F92      		push __tmp_reg__
 214 009e 1124      		clr __zero_reg__
 215 00a0 8F93      		push r24
 216 00a2 9F93      		push r25
 217               	/* prologue end (size=8) */
 218               	.LM31:
 219 00a4 83B1      		in r24,35-0x20
 220 00a6 9CB1      		in r25,44-0x20
 221 00a8 8095      		com r24
 222 00aa 807D      		andi r24,lo8(-48)
 223 00ac 9095      		com r25
 224 00ae 9C70      		andi r25,lo8(12)
 225 00b0 892B      		or r24,r25
 226 00b2 8EBB      		out 62-0x20,r24
 227               	.LM32:
 228 00b4 1092 0000 		sts (SleepTimeOutTicks)+1,__zero_reg__
 229 00b8 1092 0000 		sts SleepTimeOutTicks,__zero_reg__
 230 00bc 1092 8500 		sts (132)+1,__zero_reg__
 231 00c0 1092 8400 		sts 132,__zero_reg__
 232               	/* epilogue: frame size=0 */
 233 00c4 9F91      		pop r25
 234 00c6 8F91      		pop r24
 235 00c8 0F90      		pop __tmp_reg__
 236 00ca 0FBE      		out __SREG__,__tmp_reg__
 237 00cc 0F90      		pop __tmp_reg__
 238 00ce 1F90      		pop __zero_reg__
 239 00d0 1895      		reti
 240               	/* epilogue end (size=7) */
 241               	/* function __vector_3 size 31 (16) */
 242               	.LFE23:
 245               	FUNCSleepMode:
 246               	.LFB36:
 247               	.LM33:
 248               	/* prologue: frame size=0 */
 249               	/* prologue end (size=0) */
 250               	.LM34:
 251 00d2 85E0      		ldi r24,lo8(5)
 252 00d4 83BF      		out 83-0x20,r24
 253               	.LM35:
 254 00d6 8091 E400 		lds r24,228
 255 00da 8F77      		andi r24,lo8(127)
 256 00dc 8093 E400 		sts 228,r24
 257               	.LM36:
 258 00e0 81B3      		in r24,49-0x20
 259 00e2 8F7C      		andi r24,lo8(-49)
 260 00e4 81BB      		out 49-0x20,r24
 261 00e6 00C0      		rjmp .L38
 262               	.L39:
 263               	.LM37:
 264               	/* #APP */
 265 00e8 8895      		sleep
 266               	/* #NOAPP */
 267               	.L38:
 268               	.LM38:
 269 00ea F69B      		sbis 62-0x20,6
 270 00ec 00C0      		rjmp .L39
 271               	.LM39:
 272 00ee 81B3      		in r24,49-0x20
 273 00f0 8F7C      		andi r24,lo8(-49)
 274 00f2 8061      		ori r24,lo8(16)
 275 00f4 81BB      		out 49-0x20,r24
 276               	.LM40:
 277 00f6 8091 E400 		lds r24,228
 278 00fa 8068      		ori r24,lo8(-128)
 279 00fc 8093 E400 		sts 228,r24
 280               	.LM41:
 281 0100 0E94 0000 		call MAIN_WaitForJoyRelease
 282               	/* epilogue: frame size=0 */
 283 0104 0895      		ret
 284               	/* epilogue end (size=1) */
 285               	/* function FUNCSleepMode size 27 (26) */
 286               	.LFE36:
 289               	FUNCGoBootloader:
 290               	.LFB38:
 291               	.LM42:
 292               	/* prologue: frame size=0 */
 293               	/* prologue end (size=0) */
 294               	.LM43:
 295 0106 85B7      		in r24,85-0x20
 296               	.LVL15:
 297 0108 8F77      		andi r24,lo8(127)
 298               	.LM44:
 299 010a 85BF      		out 85-0x20,r24
 300               	.LM45:
 301 010c 85BF      		out 85-0x20,r24
 302               	.LM46:
 303 010e 1092 8100 		sts 129,__zero_reg__
 304               	.LM47:
 305 0112 80E0      		ldi r24,lo8(__c.2465)
 306 0114 90E0      		ldi r25,hi8(__c.2465)
 307               	.LVL16:
 308 0116 0E94 0000 		call LCD_puts_f
 309               	.LM48:
 310 011a 0E94 0000 		call MAIN_WaitForJoyRelease
 311               	.LM49:
 312 011e 88E1      		ldi r24,lo8(24)
 313 0120 8093 6000 		sts 96,r24
 314               	.L43:
 315 0124 00C0      		rjmp .L43
 316               	/* epilogue: frame size=0 */
 317               	/* epilogue: noreturn */
 318               	/* epilogue end (size=0) */
 319               	/* function FUNCGoBootloader size 16 (16) */
 320               	.LFE38:
 323               	FUNCChangeSettings:
 324               	.LFB25:
 325               	.LM50:
 326               	/* prologue: frame size=0 */
 327 0126 1F93      		push r17
 328               	/* prologue end (size=1) */
 329               	.LM51:
 330 0128 81E0      		ldi r24,lo8(1)
 331 012a 8EBB      		out 62-0x20,r24
 332 012c 10E0      		ldi r17,lo8(0)
 333               	.LVL17:
 334               	.L66:
 335               	.LM52:
 336 012e 8EB3      		in r24,62-0x20
 337 0130 8823      		tst r24
 338 0132 01F0      		breq .L66
 339               	.LM53:
 340 0134 F69B      		sbis 62-0x20,6
 341 0136 00C0      		rjmp .L48
 342               	.LM54:
 343 0138 1123      		tst r17
 344 013a 01F4      		brne .L50
 345 013c 15E0      		ldi r17,lo8(5)
 346 013e 00C0      		rjmp .L52
 347               	.L50:
 348 0140 1150      		subi r17,lo8(-(-1))
 349 0142 00C0      		rjmp .L52
 350               	.L48:
 351               	.LM55:
 352 0144 F79B      		sbis 62-0x20,7
 353 0146 00C0      		rjmp .L53
 354               	.LM56:
 355 0148 1530      		cpi r17,lo8(5)
 356 014a 01F4      		brne .L55
 357 014c 10E0      		ldi r17,lo8(0)
 358 014e 00C0      		rjmp .L52
 359               	.L55:
 360 0150 1F5F      		subi r17,lo8(-(1))
 361 0152 00C0      		rjmp .L52
 362               	.L53:
 363               	.LM57:
 364 0154 F49B      		sbis 62-0x20,4
 365 0156 00C0      		rjmp .L57
 366               	.LBB18:
 367               	.LM58:
 368 0158 E12F      		mov r30,r17
 369 015a FF27      		clr r31
 370               	.LVL18:
 371 015c EE0F      		lsl r30
 372 015e FF1F      		rol r31
 373 0160 E050      		subi r30,lo8(-(SettingFunctionPtrs))
 374 0162 F040      		sbci r31,hi8(-(SettingFunctionPtrs))
 375               	/* #APP */
 376 0164 8591      		lpm r24, Z+
 377 0166 9491      		lpm r25, Z
 378               		
 379               	.LVL19:
 380               	/* #NOAPP */
 381               	.LBE18:
 382 0168 FC01      		movw r30,r24
 383 016a 0995      		icall
 384               	.LVL20:
 385 016c 00C0      		rjmp .L52
 386               	.L57:
 387               	.LM59:
 388 016e F299      		sbic 62-0x20,2
 389 0170 00C0      		rjmp .L60
 390               	.L52:
 391               	.LBB19:
 392               	.LM60:
 393 0172 E12F      		mov r30,r17
 394 0174 FF27      		clr r31
 395               	.LVL21:
 396 0176 EE0F      		lsl r30
 397 0178 FF1F      		rol r31
 398 017a E050      		subi r30,lo8(-(SettingFunctionNames))
 399 017c F040      		sbci r31,hi8(-(SettingFunctionNames))
 400               	.LBE19:
 401               	/* #APP */
 402 017e 8591      		lpm r24, Z+
 403 0180 9491      		lpm r25, Z
 404               		
 405               	.LVL22:
 406               	/* #NOAPP */
 407 0182 0E94 0000 		call LCD_puts_f
 408               	.LVL23:
 409               	.LM61:
 410 0186 0E94 0000 		call MAIN_WaitForJoyRelease
 411 018a 00C0      		rjmp .L66
 412               	.L60:
 413               	/* epilogue: frame size=0 */
 414 018c 1F91      		pop r17
 415 018e 0895      		ret
 416               	/* epilogue end (size=2) */
 417               	/* function FUNCChangeSettings size 61 (58) */
 418               	.LFE25:
 421               	FUNCSetAutoSleepTimeOut:
 422               	.LFB35:
 423               	.LM62:
 424               	/* prologue: frame size=8 */
 425 0190 EF92      		push r14
 426 0192 FF92      		push r15
 427 0194 0F93      		push r16
 428 0196 CF93      		push r28
 429 0198 DF93      		push r29
 430 019a CDB7      		in r28,__SP_L__
 431 019c DEB7      		in r29,__SP_H__
 432 019e 2897      		sbiw r28,8
 433 01a0 0FB6      		in __tmp_reg__,__SREG__
 434 01a2 F894      		cli
 435 01a4 DEBF      		out __SP_H__,r29
 436 01a6 0FBE      		out __SREG__,__tmp_reg__
 437 01a8 CDBF      		out __SP_L__,r28
 438               	/* prologue end (size=13) */
 439               	.LBB27:
 440               	.LBB28:
 441               	.LM63:
 442 01aa A0E0      		ldi r26,lo8(EEPROMVars+136)
 443 01ac B0E0      		ldi r27,hi8(EEPROMVars+136)
 444               	/* #APP */
 445 01ae 0E94 0000 		call __eeprom_read_byte_1F2021
 446 01b2 802D      		mov r24,__tmp_reg__
 447               	.LVL24:
 448               	/* #NOAPP */
 449               	.LBE28:
 450               	.LBE27:
 451               	.LM64:
 452 01b4 082F      		mov r16,r24
 453               	.LVL25:
 454 01b6 8530      		cpi r24,lo8(5)
 455 01b8 00F0      		brlo .L68
 456               	.LVL26:
 457               	.LM65:
 458 01ba 04E0      		ldi r16,lo8(4)
 459               	.L68:
 460               	.LM66:
 461 01bc 60E0      		ldi r22,lo8(__c.2378)
 462 01be 70E0      		ldi r23,hi8(__c.2378)
 463 01c0 CE01      		movw r24,r28
 464               	.LVL27:
 465 01c2 0196      		adiw r24,1
 466 01c4 0E94 0000 		call strcpy_P
 467               	.LVL28:
 468               	.LM67:
 469 01c8 81E0      		ldi r24,lo8(1)
 470 01ca 8EBB      		out 62-0x20,r24
 471               	.L91:
 472               	.LM68:
 473 01cc 8EB3      		in r24,62-0x20
 474 01ce 8823      		tst r24
 475 01d0 01F0      		breq .L91
 476               	.LM69:
 477 01d2 F69B      		sbis 62-0x20,6
 478 01d4 00C0      		rjmp .L71
 479               	.LM70:
 480 01d6 0023      		tst r16
 481 01d8 01F4      		brne .L73
 482 01da 04E0      		ldi r16,lo8(4)
 483 01dc 00C0      		rjmp .L71
 484               	.L73:
 485 01de 0150      		subi r16,lo8(-(-1))
 486               	.L71:
 487               	.LM71:
 488 01e0 F79B      		sbis 62-0x20,7
 489 01e2 00C0      		rjmp .L75
 490               	.LM72:
 491 01e4 0430      		cpi r16,lo8(4)
 492 01e6 01F4      		brne .L77
 493 01e8 00E0      		ldi r16,lo8(0)
 494 01ea 00C0      		rjmp .L79
 495               	.L77:
 496 01ec 0F5F      		subi r16,lo8(-(1))
 497 01ee 00C0      		rjmp .L80
 498               	.L75:
 499               	.LM73:
 500 01f0 F299      		sbic 62-0x20,2
 501 01f2 00C0      		rjmp .L90
 502               	.L80:
 503               	.LM74:
 504 01f4 0023      		tst r16
 505 01f6 01F4      		brne .L82
 506               	.L79:
 507               	.LM75:
 508 01f8 80E0      		ldi r24,lo8(__c.2380)
 509 01fa 90E0      		ldi r25,hi8(__c.2380)
 510 01fc 0E94 0000 		call LCD_puts_f
 511 0200 00C0      		rjmp .L83
 512               	.L82:
 513               	.LBB29:
 514               	.LM76:
 515 0202 E02F      		mov r30,r16
 516 0204 FF27      		clr r31
 517 0206 E050      		subi r30,lo8(-(AutoSleepTOValues))
 518 0208 F040      		sbci r31,hi8(-(AutoSleepTOValues))
 519               	/* #APP */
 520 020a E491      		lpm r30, Z
 521               		
 522               	.LVL29:
 523               	/* #NOAPP */
 524               	.LBE29:
 525 020c 7E01      		movw r14,r28
 526 020e 0894      		sec
 527 0210 E11C      		adc r14,__zero_reg__
 528 0212 F11C      		adc r15,__zero_reg__
 529 0214 B701      		movw r22,r14
 530 0216 8E2F      		mov r24,r30
 531 0218 9927      		clr r25
 532 021a 0E94 0000 		call MAIN_IntToStr
 533               	.LVL30:
 534               	.LM77:
 535 021e 80E2      		ldi r24,lo8(32)
 536 0220 8C83      		std Y+4,r24
 537               	.LM78:
 538 0222 C701      		movw r24,r14
 539 0224 0E94 0000 		call LCD_puts
 540               	.L83:
 541               	.LM79:
 542 0228 0E94 0000 		call MAIN_WaitForJoyRelease
 543 022c 00C0      		rjmp .L91
 544               	.L90:
 545               	.LBB30:
 546               	.LBB31:
 547               	.LM80:
 548 022e A0E0      		ldi r26,lo8(EEPROMVars+136)
 549 0230 B0E0      		ldi r27,hi8(EEPROMVars+136)
 550               	/* #APP */
 551 0232 002E      		mov __tmp_reg__,r16
 552 0234 0E94 0000 		call __eeprom_write_byte_1F2021
 553               	.LVL31:
 554               	/* #NOAPP */
 555               	.LBE31:
 556               	.LBE30:
 557               	.LM81:
 558 0238 0E94 0000 		call TOUT_SetupSleepTimer
 559               	.LVL32:
 560               	/* epilogue: frame size=8 */
 561 023c 2896      		adiw r28,8
 562 023e 0FB6      		in __tmp_reg__,__SREG__
 563 0240 F894      		cli
 564 0242 DEBF      		out __SP_H__,r29
 565 0244 0FBE      		out __SREG__,__tmp_reg__
 566 0246 CDBF      		out __SP_L__,r28
 567 0248 DF91      		pop r29
 568 024a CF91      		pop r28
 569 024c 0F91      		pop r16
 570 024e FF90      		pop r15
 571 0250 EF90      		pop r14
 572 0252 0895      		ret
 573               	/* epilogue end (size=12) */
 574               	/* function FUNCSetAutoSleepTimeOut size 103 (78) */
 575               	.LFE35:
 578               	MAIN_ShowError:
 579               	.LFB21:
 580               	.LM82:
 581               	/* prologue: frame size=20 */
 582 0254 CF93      		push r28
 583 0256 DF93      		push r29
 584 0258 CDB7      		in r28,__SP_L__
 585 025a DEB7      		in r29,__SP_H__
 586 025c 6497      		sbiw r28,20
 587 025e 0FB6      		in __tmp_reg__,__SREG__
 588 0260 F894      		cli
 589 0262 DEBF      		out __SP_H__,r29
 590 0264 0FBE      		out __SREG__,__tmp_reg__
 591 0266 CDBF      		out __SP_L__,r28
 592               	/* prologue end (size=10) */
 593               	.LVL33:
 594               	.LM83:
 595 0268 25E4      		ldi r18,lo8(69)
 596 026a 2983      		std Y+1,r18
 597               	.LM84:
 598 026c 2EE3      		ldi r18,lo8(62)
 599 026e 2A83      		std Y+2,r18
 600               	.LM85:
 601 0270 BC01      		movw r22,r24
 602 0272 CE01      		movw r24,r28
 603               	.LVL34:
 604 0274 0396      		adiw r24,3
 605 0276 0E94 0000 		call strcpy_P
 606               	.LVL35:
 607               	.LM86:
 608 027a CE01      		movw r24,r28
 609 027c 0196      		adiw r24,1
 610 027e 0E94 0000 		call LCD_puts
 611               	.LM87:
 612 0282 0E94 0000 		call MAIN_WaitForJoyRelease
 613               	.L93:
 614               	.LM88:
 615 0286 F49B      		sbis 62-0x20,4
 616 0288 00C0      		rjmp .L93
 617               	.LM89:
 618 028a 0E94 0000 		call MAIN_WaitForJoyRelease
 619               	/* epilogue: frame size=20 */
 620 028e 6496      		adiw r28,20
 621 0290 0FB6      		in __tmp_reg__,__SREG__
 622 0292 F894      		cli
 623 0294 DEBF      		out __SP_H__,r29
 624 0296 0FBE      		out __SREG__,__tmp_reg__
 625 0298 CDBF      		out __SP_L__,r28
 626 029a DF91      		pop r29
 627 029c CF91      		pop r28
 628 029e 0895      		ret
 629               	/* epilogue end (size=9) */
 630               	/* function MAIN_ShowError size 38 (19) */
 631               	.LFE21:
 634               	FUNCStorageInfo:
 635               	.LFB37:
 636               	.LM90:
 637               	/* prologue: frame size=0 */
 638 02a0 1F93      		push r17
 639               	/* prologue end (size=1) */
 640               	.LM91:
 641 02a2 0E94 0000 		call MAIN_WaitForJoyRelease
 642               	.LM92:
 643 02a6 81E0      		ldi r24,lo8(1)
 644 02a8 8EBB      		out 62-0x20,r24
 645 02aa 10E0      		ldi r17,lo8(0)
 646               	.LVL36:
 647               	.L118:
 648               	.LM93:
 649 02ac 8EB3      		in r24,62-0x20
 650 02ae 8823      		tst r24
 651 02b0 01F0      		breq .L118
 652               	.LM94:
 653 02b2 8EB3      		in r24,62-0x20
 654 02b4 807C      		andi r24,lo8(-64)
 655 02b6 01F0      		breq .L101
 656               	.LM95:
 657 02b8 81E0      		ldi r24,lo8(1)
 658 02ba 1827      		eor r17,r24
 659 02bc 00C0      		rjmp .L103
 660               	.L101:
 661               	.LM96:
 662 02be F299      		sbic 62-0x20,2
 663 02c0 00C0      		rjmp .L112
 664               	.LM97:
 665 02c2 F49B      		sbis 62-0x20,4
 666 02c4 00C0      		rjmp .L103
 667               	.LM98:
 668 02c6 1130      		cpi r17,lo8(1)
 669 02c8 01F4      		brne .L107
 670               	.LM99:
 671 02ca 80E0      		ldi r24,lo8(gs(SPI_SPITransmit))
 672 02cc 90E0      		ldi r25,hi8(gs(SPI_SPITransmit))
 673 02ce 9093 0000 		sts (DFSPIRoutinePointer)+1,r25
 674 02d2 8093 0000 		sts DFSPIRoutinePointer,r24
 675               	.LM100:
 676 02d6 0E94 0000 		call SPI_SPIInit
 677               	.LM101:
 678 02da 1092 0000 		sts DataflashInfo+10,__zero_reg__
 679               	.LM102:
 680 02de 81E0      		ldi r24,lo8(1)
 681 02e0 0E94 0000 		call DF_EnableDataflash
 682               	.LM103:
 683 02e4 0E94 0000 		call DF_CheckCorrectOnboardChip
 684 02e8 8823      		tst r24
 685 02ea 01F0      		breq .L109
 686               	.LM104:
 687 02ec 0E94 0000 		call TM_ShowTags
 688               	.LM105:
 689 02f0 8091 6400 		lds r24,100
 690 02f4 8460      		ori r24,lo8(4)
 691 02f6 8093 6400 		sts 100,r24
 692 02fa 00C0      		rjmp .L103
 693               	.L109:
 694               	.LM106:
 695 02fc 81E0      		ldi r24,lo8(1)
 696 02fe 0E94 0000 		call PM_GetStoredDataSize
 697 0302 6115      		cp r22,__zero_reg__
 698 0304 7105      		cpc r23,__zero_reg__
 699 0306 8105      		cpc r24,__zero_reg__
 700 0308 9105      		cpc r25,__zero_reg__
 701 030a 01F4      		brne .L103
 702               	.LM107:
 703 030c 80E0      		ldi r24,lo8(0)
 704 030e 0E94 0000 		call DF_EnableDataflash
 705               	.LM108:
 706 0312 8091 6400 		lds r24,100
 707 0316 8460      		ori r24,lo8(4)
 708 0318 8093 6400 		sts 100,r24
 709               	.LM109:
 710 031c 80E0      		ldi r24,lo8(__c.2434)
 711 031e 90E0      		ldi r25,hi8(__c.2434)
 712 0320 0E94 0000 		call MAIN_ShowError
 713 0324 00C0      		rjmp .L103
 714               	.L107:
 715               	.LM110:
 716 0326 0E94 0000 		call PM_ShowStoredItemSizes
 717               	.L103:
 718               	.LM111:
 719 032a 8FE0      		ldi r24,lo8(15)
 720 032c 189F      		mul r17,r24
 721 032e C001      		movw r24,r0
 722 0330 1124      		clr r1
 723 0332 8050      		subi r24,lo8(-(SIFONames))
 724 0334 9040      		sbci r25,hi8(-(SIFONames))
 725 0336 0E94 0000 		call LCD_puts_f
 726               	.LM112:
 727 033a 0E94 0000 		call MAIN_WaitForJoyRelease
 728 033e 00C0      		rjmp .L118
 729               	.L112:
 730               	/* epilogue: frame size=0 */
 731 0340 1F91      		pop r17
 732 0342 0895      		ret
 733               	/* epilogue end (size=2) */
 734               	/* function FUNCStorageInfo size 83 (80) */
 735               	.LFE37:
 738               	MAIN_ShowProgType:
 739               	.LFB20:
 740               	.LM113:
 741               	/* prologue: frame size=7 */
 742 0344 FF92      		push r15
 743 0346 0F93      		push r16
 744 0348 1F93      		push r17
 745 034a CF93      		push r28
 746 034c DF93      		push r29
 747 034e CDB7      		in r28,__SP_L__
 748 0350 DEB7      		in r29,__SP_H__
 749 0352 2797      		sbiw r28,7
 750 0354 0FB6      		in __tmp_reg__,__SREG__
 751 0356 F894      		cli
 752 0358 DEBF      		out __SP_H__,r29
 753 035a 0FBE      		out __SREG__,__tmp_reg__
 754 035c CDBF      		out __SP_L__,r28
 755               	/* prologue end (size=13) */
 756               	.LVL37:
 757 035e F82E      		mov r15,r24
 758               	.LM114:
 759 0360 8E01      		movw r16,r28
 760 0362 0F5F      		subi r16,lo8(-(1))
 761 0364 1F4F      		sbci r17,hi8(-(1))
 762 0366 60E0      		ldi r22,lo8(__c.2023)
 763 0368 70E0      		ldi r23,hi8(__c.2023)
 764 036a C801      		movw r24,r16
 765               	.LVL38:
 766 036c 0E94 0000 		call strcpy_P
 767               	.LM115:
 768 0370 FE82      		std Y+6,r15
 769               	.LM116:
 770 0372 C801      		movw r24,r16
 771 0374 0E94 0000 		call LCD_puts
 772               	/* epilogue: frame size=7 */
 773 0378 2796      		adiw r28,7
 774 037a 0FB6      		in __tmp_reg__,__SREG__
 775 037c F894      		cli
 776 037e DEBF      		out __SP_H__,r29
 777 0380 0FBE      		out __SREG__,__tmp_reg__
 778 0382 CDBF      		out __SP_L__,r28
 779 0384 DF91      		pop r29
 780 0386 CF91      		pop r28
 781 0388 1F91      		pop r17
 782 038a 0F91      		pop r16
 783 038c FF90      		pop r15
 784 038e 0895      		ret
 785               	/* epilogue end (size=12) */
 786               	/* function MAIN_ShowProgType size 38 (13) */
 787               	.LFE20:
 790               	FUNCStoreProgram:
 791               	.LFB30:
 792               	.LM117:
 793               	/* prologue: frame size=0 */
 794               	/* prologue end (size=0) */
 795               	.LM118:
 796 0390 80E0      		ldi r24,lo8(gs(SPI_SPITransmit))
 797 0392 90E0      		ldi r25,hi8(gs(SPI_SPITransmit))
 798 0394 9093 0000 		sts (DFSPIRoutinePointer)+1,r25
 799 0398 8093 0000 		sts DFSPIRoutinePointer,r24
 800               	.LM119:
 801 039c 0E94 0000 		call SPI_SPIInit
 802               	.LM120:
 803 03a0 1092 0000 		sts DataflashInfo+10,__zero_reg__
 804               	.LM121:
 805 03a4 81E0      		ldi r24,lo8(1)
 806 03a6 0E94 0000 		call DF_EnableDataflash
 807               	.LM122:
 808 03aa 0E94 0000 		call DF_CheckCorrectOnboardChip
 809 03ae 8823      		tst r24
 810 03b0 01F0      		breq .L124
 811               	.LM123:
 812 03b2 80E0      		ldi r24,lo8(WaitText)
 813 03b4 90E0      		ldi r25,hi8(WaitText)
 814 03b6 0E94 0000 		call LCD_puts_f
 815 03ba 0E94 0000 		call OSCCAL_Calibrate
 816 03be 8091 C100 		lds r24,193
 817 03c2 8078      		andi r24,lo8(-128)
 818 03c4 8861      		ori r24,lo8(24)
 819 03c6 8093 C100 		sts 193,r24
 820               	.LM124:
 821 03ca 80E0      		ldi r24,lo8(__c.2256)
 822 03cc 90E0      		ldi r25,hi8(__c.2256)
 823 03ce 0E94 0000 		call LCD_puts_f
 824               	.LM125:
 825 03d2 80E0      		ldi r24,lo8(gs(PM_InterpretAVRISPPacket))
 826 03d4 90E0      		ldi r25,hi8(gs(PM_InterpretAVRISPPacket))
 827 03d6 0E94 0000 		call V2P_RunStateMachine
 828               	.LM126:
 829 03da 80E0      		ldi r24,lo8(0)
 830 03dc 0E94 0000 		call DF_EnableDataflash
 831               	.LM127:
 832 03e0 8091 6400 		lds r24,100
 833 03e4 8460      		ori r24,lo8(4)
 834 03e6 8093 6400 		sts 100,r24
 835               	.L124:
 836 03ea 0895      		ret
 837               	/* epilogue: frame size=0 */
 838               	/* epilogue: noreturn */
 839               	/* epilogue end (size=0) */
 840               	/* function FUNCStoreProgram size 46 (46) */
 841               	.LFE30:
 844               	FUNCAVRISPMode:
 845               	.LFB27:
 846               	.LM128:
 847               	/* prologue: frame size=0 */
 848               	/* prologue end (size=0) */
 849               	.LM129:
 850 03ec 80E0      		ldi r24,lo8(WaitText)
 851 03ee 90E0      		ldi r25,hi8(WaitText)
 852 03f0 0E94 0000 		call LCD_puts_f
 853 03f4 0E94 0000 		call OSCCAL_Calibrate
 854 03f8 E1EC      		ldi r30,lo8(193)
 855 03fa F0E0      		ldi r31,hi8(193)
 856 03fc 8081      		ld r24,Z
 857 03fe 8078      		andi r24,lo8(-128)
 858 0400 8861      		ori r24,lo8(24)
 859 0402 8083      		st Z,r24
 860               	.LM130:
 861 0404 80E0      		ldi r24,lo8(AVRISPModeMessage)
 862 0406 90E0      		ldi r25,hi8(AVRISPModeMessage)
 863 0408 0E94 0000 		call LCD_puts_f
 864               	.LM131:
 865 040c 80E0      		ldi r24,lo8(gs(AICI_InterpretPacket))
 866 040e 90E0      		ldi r25,hi8(gs(AICI_InterpretPacket))
 867 0410 0E94 0000 		call V2P_RunStateMachine
 868               	/* epilogue: frame size=0 */
 869 0414 0895      		ret
 870               	/* epilogue end (size=1) */
 871               	/* function FUNCAVRISPMode size 21 (20) */
 872               	.LFE27:
 874               	.global	__vector_default
 876               	__vector_default:
 877               	.LFB24:
 878               	.LM132:
 879               	/* prologue: frame size=0 */
 880               	/* prologue: naked */
 881               	/* prologue end (size=0) */
 882               	.LBB37:
 883               	.LBB38:
 884               	.LM133:
 885 0416 80E0      		ldi r24,lo8(__c.2073)
 886 0418 90E0      		ldi r25,hi8(__c.2073)
 887               	.LVL39:
 888 041a 0E94 0000 		call LCD_puts
 889               	.LVL40:
 890               	.LM134:
 891 041e 8091 6400 		lds r24,100
 892 0422 8460      		ori r24,lo8(4)
 893 0424 8093 6400 		sts 100,r24
 894               	.LM135:
 895 0428 0E94 0000 		call USI_SPIOff
 896               	.LM136:
 897 042c 1092 B000 		sts 176,__zero_reg__
 898 0430 1092 7000 		sts 112,__zero_reg__
 899               	.LM137:
 900 0434 1092 8100 		sts 129,__zero_reg__
 901               	.L128:
 902 0438 00C0      		rjmp .L128
 903               	.LBE38:
 904               	.LBE37:
 905               	/* epilogue: frame size=0 */
 906               	/* epilogue: naked */
 907               	/* epilogue end (size=0) */
 908               	/* function __vector_default size 18 (18) */
 909               	.LFE24:
 912               	FUNCProgramDataflash:
 913               	.LFB28:
 914               	.LM138:
 915               	/* prologue: frame size=0 */
 916               	/* prologue end (size=0) */
 917               	.LBB41:
 918               	.LBB42:
 919               	.LM139:
 920 043a A0E0      		ldi r26,lo8(EEPROMVars+2)
 921 043c B0E0      		ldi r27,hi8(EEPROMVars+2)
 922               	/* #APP */
 923 043e 0E94 0000 		call __eeprom_read_byte_1F2021
 924 0442 802D      		mov r24,__tmp_reg__
 925               	.LVL41:
 926               	/* #NOAPP */
 927               	.LBE42:
 928               	.LBE41:
 929               	.LM140:
 930 0444 0E94 0000 		call USI_SPIInitMaster
 931               	.LVL42:
 932               	.LM141:
 933 0448 81E0      		ldi r24,lo8(1)
 934 044a 8093 0000 		sts DataflashInfo+10,r24
 935               	.LM142:
 936 044e 80E0      		ldi r24,lo8(gs(USI_SPITransmit))
 937 0450 90E0      		ldi r25,hi8(gs(USI_SPITransmit))
 938 0452 9093 0000 		sts (DFSPIRoutinePointer)+1,r25
 939 0456 8093 0000 		sts DFSPIRoutinePointer,r24
 940               	.LM143:
 941 045a 80E0      		ldi r24,lo8(WaitText)
 942 045c 90E0      		ldi r25,hi8(WaitText)
 943 045e 0E94 0000 		call LCD_puts_f
 944 0462 0E94 0000 		call OSCCAL_Calibrate
 945 0466 E1EC      		ldi r30,lo8(193)
 946 0468 F0E0      		ldi r31,hi8(193)
 947 046a 8081      		ld r24,Z
 948 046c 8078      		andi r24,lo8(-128)
 949 046e 8861      		ori r24,lo8(24)
 950 0470 8083      		st Z,r24
 951               	.LM144:
 952 0472 80E0      		ldi r24,lo8(DataFlashProgMode)
 953 0474 90E0      		ldi r25,hi8(DataFlashProgMode)
 954 0476 0E94 0000 		call LCD_puts_f
 955               	.LM145:
 956 047a 80E0      		ldi r24,lo8(gs(PD_InterpretAVRISPPacket))
 957 047c 90E0      		ldi r25,hi8(gs(PD_InterpretAVRISPPacket))
 958 047e 0E94 0000 		call V2P_RunStateMachine
 959               	.LM146:
 960 0482 80E0      		ldi r24,lo8(0)
 961 0484 0E94 0000 		call DF_EnableDataflash
 962               	.LM147:
 963 0488 E4E6      		ldi r30,lo8(100)
 964 048a F0E0      		ldi r31,hi8(100)
 965 048c 8081      		ld r24,Z
 966 048e 8460      		ori r24,lo8(4)
 967 0490 8083      		st Z,r24
 968               	/* epilogue: frame size=0 */
 969 0492 0895      		ret
 970               	/* epilogue end (size=1) */
 971               	/* function FUNCProgramDataflash size 46 (45) */
 972               	.LFE28:
 975               	FUNCProgramAVR:
 976               	.LFB29:
 977               	.LM148:
 978               	/* prologue: frame size=19 */
 979 0494 FF92      		push r15
 980 0496 0F93      		push r16
 981 0498 1F93      		push r17
 982 049a CF93      		push r28
 983 049c DF93      		push r29
 984 049e CDB7      		in r28,__SP_L__
 985 04a0 DEB7      		in r29,__SP_H__
 986 04a2 6397      		sbiw r28,19
 987 04a4 0FB6      		in __tmp_reg__,__SREG__
 988 04a6 F894      		cli
 989 04a8 DEBF      		out __SP_H__,r29
 990 04aa 0FBE      		out __SREG__,__tmp_reg__
 991 04ac CDBF      		out __SP_L__,r28
 992               	/* prologue end (size=13) */
 993               	.LM149:
 994 04ae 80E0      		ldi r24,lo8(gs(SPI_SPITransmit))
 995 04b0 90E0      		ldi r25,hi8(gs(SPI_SPITransmit))
 996 04b2 9093 0000 		sts (DFSPIRoutinePointer)+1,r25
 997 04b6 8093 0000 		sts DFSPIRoutinePointer,r24
 998               	.LM150:
 999 04ba 0E94 0000 		call SPI_SPIInit
 1000               	.LM151:
 1001 04be 1092 0000 		sts DataflashInfo+10,__zero_reg__
 1002               	.LM152:
 1003 04c2 0E94 0000 		call DF_CheckCorrectOnboardChip
 1004 04c6 8823      		tst r24
 1005 04c8 01F4      		brne .+2
 1006 04ca 00C0      		rjmp .L188
 1007               	.LM153:
 1008 04cc 0E94 0000 		call MAIN_WaitForJoyRelease
 1009               	.LM154:
 1010 04d0 81E0      		ldi r24,lo8(1)
 1011 04d2 8EBB      		out 62-0x20,r24
 1012 04d4 FF24      		clr r15
 1013               	.LVL43:
 1014               	.L197:
 1015               	.LM155:
 1016 04d6 8EB3      		in r24,62-0x20
 1017 04d8 8823      		tst r24
 1018 04da 01F0      		breq .L197
 1019               	.LM156:
 1020 04dc F299      		sbic 62-0x20,2
 1021 04de 00C0      		rjmp .L188
 1022               	.LM157:
 1023 04e0 F499      		sbic 62-0x20,4
 1024 04e2 00C0      		rjmp .L138
 1025               	.LM158:
 1026 04e4 F69B      		sbis 62-0x20,6
 1027 04e6 00C0      		rjmp .L140
 1028               	.LM159:
 1029 04e8 FF20      		tst r15
 1030 04ea 01F4      		brne .L142
 1031 04ec 37E0      		ldi r19,lo8(7)
 1032 04ee F32E      		mov r15,r19
 1033 04f0 00C0      		rjmp .L144
 1034               	.L142:
 1035 04f2 FA94      		dec r15
 1036 04f4 00C0      		rjmp .L144
 1037               	.L140:
 1038               	.LM160:
 1039 04f6 F79B      		sbis 62-0x20,7
 1040 04f8 00C0      		rjmp .L144
 1041               	.LM161:
 1042 04fa 87E0      		ldi r24,lo8(7)
 1043 04fc F816      		cp r15,r24
 1044 04fe 01F4      		brne .L146
 1045 0500 FF24      		clr r15
 1046 0502 00C0      		rjmp .L144
 1047               	.L146:
 1048 0504 F394      		inc r15
 1049               	.L144:
 1050               	.LBB62:
 1051               	.LM162:
 1052 0506 EF2D      		mov r30,r15
 1053 0508 FF27      		clr r31
 1054               	.LVL44:
 1055 050a EE0F      		lsl r30
 1056 050c FF1F      		rol r31
 1057 050e E050      		subi r30,lo8(-(ProgOptions))
 1058 0510 F040      		sbci r31,hi8(-(ProgOptions))
 1059               	.LBE62:
 1060               	/* #APP */
 1061 0512 8591      		lpm r24, Z+
 1062 0514 9491      		lpm r25, Z
 1063               		
 1064               	.LVL45:
 1065               	/* #NOAPP */
 1066 0516 0E94 0000 		call LCD_puts_f
 1067               	.LVL46:
 1068               	.LM163:
 1069 051a 0E94 0000 		call MAIN_WaitForJoyRelease
 1070 051e 00C0      		rjmp .L197
 1071               	.L138:
 1072               	.LM164:
 1073 0520 80E8      		ldi r24,lo8(-128)
 1074 0522 8093 6100 		sts 97,r24
 1075 0526 1092 6100 		sts 97,__zero_reg__
 1076               	.LM165:
 1077 052a 80E0      		ldi r24,lo8(WaitText)
 1078 052c 90E0      		ldi r25,hi8(WaitText)
 1079 052e 0E94 0000 		call LCD_puts_f
 1080               	.LBB63:
 1081               	.LBB64:
 1082               	.LM166:
 1083 0532 00E0      		ldi r16,lo8(EEPROMVars+2)
 1084 0534 10E0      		ldi r17,hi8(EEPROMVars+2)
 1085 0536 D801      		movw r26,r16
 1086               	.LVL47:
 1087               	/* #APP */
 1088 0538 0E94 0000 		call __eeprom_read_byte_1F2021
 1089 053c 802D      		mov r24,__tmp_reg__
 1090               	.LVL48:
 1091               	/* #NOAPP */
 1092               	.LBE64:
 1093               	.LBE63:
 1094               	.LM167:
 1095 053e 0E94 0000 		call USI_SPIInitMaster
 1096               	.LVL49:
 1097               	.LM168:
 1098 0542 80E0      		ldi r24,lo8(0)
 1099 0544 0E94 0000 		call MAIN_ResetCSLine
 1100 0548 9801      		movw r18,r16
 1101 054a 2E5D      		subi r18,lo8(-(34))
 1102 054c 3F4F      		sbci r19,hi8(-(34))
 1103 054e E0E0      		ldi r30,lo8(PacketBytes)
 1104 0550 F0E0      		ldi r31,hi8(PacketBytes)
 1105               	.L148:
 1106               	.LBB65:
 1107               	.LBB66:
 1108               	.LBB67:
 1109               	.LM169:
 1110 0552 D901      		movw r26,r18
 1111               	.LVL50:
 1112               	/* #APP */
 1113 0554 0E94 0000 		call __eeprom_read_byte_1F2021
 1114 0558 802D      		mov r24,__tmp_reg__
 1115               	.LVL51:
 1116               	/* #NOAPP */
 1117               	.LBE67:
 1118               	.LBE66:
 1119               	.LM170:
 1120 055a 8193      		st Z+,r24
 1121 055c 2F5F      		subi r18,lo8(-(1))
 1122 055e 3F4F      		sbci r19,hi8(-(1))
 1123               	.LM171:
 1124 0560 80E0      		ldi r24,hi8(EEPROMVars+48)
 1125 0562 2030      		cpi r18,lo8(EEPROMVars+48)
 1126 0564 3807      		cpc r19,r24
 1127               	.LVL52:
 1128 0566 01F4      		brne .L148
 1129               	.LBE65:
 1130               	.LM172:
 1131 0568 0E94 0000 		call ISPCC_EnterChipProgrammingMode
 1132               	.LVL53:
 1133               	.LM173:
 1134 056c 1092 0000 		sts CurrAddress,__zero_reg__
 1135 0570 1092 0000 		sts (CurrAddress)+1,__zero_reg__
 1136 0574 1092 0000 		sts (CurrAddress)+2,__zero_reg__
 1137 0578 1092 0000 		sts (CurrAddress)+3,__zero_reg__
 1138               	.LM174:
 1139 057c 8091 0000 		lds r24,PacketBytes+1
 1140 0580 8823      		tst r24
 1141 0582 01F0      		breq .+2
 1142 0584 00C0      		rjmp .L150
 1143               	.LM175:
 1144 0586 FF20      		tst r15
 1145 0588 01F0      		breq .L152
 1146 058a 87E0      		ldi r24,lo8(7)
 1147 058c F816      		cp r15,r24
 1148 058e 01F0      		breq .L152
 1149 0590 81E0      		ldi r24,lo8(1)
 1150 0592 F816      		cp r15,r24
 1151 0594 01F0      		breq .L152
 1152 0596 83E0      		ldi r24,lo8(3)
 1153 0598 F816      		cp r15,r24
 1154 059a 01F4      		brne .L196
 1155               	.L152:
 1156               	.LM176:
 1157 059c 83E4      		ldi r24,lo8(67)
 1158 059e 0E94 0000 		call MAIN_ShowProgType
 1159               	.LBB68:
 1160               	.LBB69:
 1161               	.LM177:
 1162 05a2 A0E0      		ldi r26,lo8(EEPROMVars+21)
 1163 05a4 B0E0      		ldi r27,hi8(EEPROMVars+21)
 1164               	/* #APP */
 1165 05a6 0E94 0000 		call __eeprom_read_byte_1F2021
 1166 05aa 802D      		mov r24,__tmp_reg__
 1167               	.LVL54:
 1168               	/* #NOAPP */
 1169               	.LBE69:
 1170               	.LBE68:
 1171               	.LM178:
 1172 05ac 8130      		cpi r24,lo8(1)
 1173 05ae 01F0      		breq .L158
 1174               	.LM179:
 1175 05b0 80E0      		ldi r24,lo8(__c.2177)
 1176 05b2 90E0      		ldi r25,hi8(__c.2177)
 1177               	.LVL55:
 1178 05b4 0E94 0000 		call MAIN_ShowError
 1179               	.LVL56:
 1180 05b8 02E0      		ldi r16,lo8(2)
 1181               	.LVL57:
 1182 05ba 00C0      		rjmp .L157
 1183               	.LVL58:
 1184               	.L158:
 1185               	.LM180:
 1186 05bc 0E94 0000 		call PM_SendEraseCommand
 1187               	.LVL59:
 1188               	.L196:
 1189 05c0 00E0      		ldi r16,lo8(0)
 1190               	.LVL60:
 1191               	.L157:
 1192               	.LM181:
 1193 05c2 81E0      		ldi r24,lo8(1)
 1194 05c4 8F15      		cp r24,r15
 1195 05c6 00F4      		brsh .L160
 1196 05c8 83E0      		ldi r24,lo8(3)
 1197 05ca F816      		cp r15,r24
 1198 05cc 01F4      		brne .L162
 1199               	.L160:
 1200 05ce 0023      		tst r16
 1201 05d0 01F4      		brne .L163
 1202               	.LM182:
 1203 05d2 84E4      		ldi r24,lo8(68)
 1204 05d4 0E94 0000 		call MAIN_ShowProgType
 1205               	.LM183:
 1206 05d8 81E0      		ldi r24,lo8(1)
 1207 05da 0E94 0000 		call PM_GetStoredDataSize
 1208 05de 6115      		cp r22,__zero_reg__
 1209 05e0 7105      		cpc r23,__zero_reg__
 1210 05e2 8105      		cpc r24,__zero_reg__
 1211 05e4 9105      		cpc r25,__zero_reg__
 1212 05e6 01F4      		brne .L165
 1213               	.LM184:
 1214 05e8 80E0      		ldi r24,lo8(__c.2179)
 1215 05ea 90E0      		ldi r25,hi8(__c.2179)
 1216 05ec 0E94 0000 		call MAIN_ShowError
 1217 05f0 03E0      		ldi r16,lo8(3)
 1218 05f2 00C0      		rjmp .L163
 1219               	.L165:
 1220               	.LM185:
 1221 05f4 81E0      		ldi r24,lo8(1)
 1222 05f6 0E94 0000 		call PM_CreateProgrammingPackets
 1223               	.L163:
 1224               	.LM186:
 1225 05fa FF20      		tst r15
 1226 05fc 01F0      		breq .L167
 1227               	.L162:
 1228 05fe 82E0      		ldi r24,lo8(2)
 1229 0600 F816      		cp r15,r24
 1230 0602 01F0      		breq .L167
 1231 0604 83E0      		ldi r24,lo8(3)
 1232 0606 F816      		cp r15,r24
 1233 0608 01F4      		brne .L169
 1234               	.L167:
 1235               	.LM187:
 1236 060a 85E4      		ldi r24,lo8(69)
 1237 060c 0E94 0000 		call MAIN_ShowProgType
 1238               	.LM188:
 1239 0610 80E0      		ldi r24,lo8(0)
 1240 0612 0E94 0000 		call PM_GetStoredDataSize
 1241 0616 6115      		cp r22,__zero_reg__
 1242 0618 7105      		cpc r23,__zero_reg__
 1243 061a 8105      		cpc r24,__zero_reg__
 1244 061c 9105      		cpc r25,__zero_reg__
 1245 061e 01F4      		brne .L170
 1246               	.LM189:
 1247 0620 80E0      		ldi r24,lo8(__c.2181)
 1248 0622 90E0      		ldi r25,hi8(__c.2181)
 1249 0624 0E94 0000 		call MAIN_ShowError
 1250 0628 03E0      		ldi r16,lo8(3)
 1251 062a 00C0      		rjmp .L172
 1252               	.L170:
 1253               	.LM190:
 1254 062c 80E0      		ldi r24,lo8(0)
 1255 062e 0E94 0000 		call PM_CreateProgrammingPackets
 1256               	.L172:
 1257               	.LM191:
 1258 0632 FF20      		tst r15
 1259 0634 01F0      		breq .L173
 1260               	.L169:
 1261 0636 84E0      		ldi r24,lo8(4)
 1262 0638 F816      		cp r15,r24
 1263 063a 01F0      		breq .L173
 1264 063c 86E0      		ldi r24,lo8(6)
 1265 063e F816      		cp r15,r24
 1266 0640 01F4      		brne .L175
 1267               	.L173:
 1268               	.LM192:
 1269 0642 86E4      		ldi r24,lo8(70)
 1270 0644 0E94 0000 		call MAIN_ShowProgType
 1271               	.LBB70:
 1272               	.LBB71:
 1273               	.LM193:
 1274 0648 A0E0      		ldi r26,lo8(EEPROMVars+48)
 1275 064a B0E0      		ldi r27,hi8(EEPROMVars+48)
 1276               	/* #APP */
 1277 064c 0E94 0000 		call __eeprom_read_byte_1F2021
 1278 0650 802D      		mov r24,__tmp_reg__
 1279               	.LVL61:
 1280               	/* #NOAPP */
 1281               	.LBE71:
 1282               	.LBE70:
 1283               	.LM194:
 1284 0652 8823      		tst r24
 1285 0654 01F4      		brne .L176
 1286               	.LM195:
 1287 0656 80E0      		ldi r24,lo8(__c.2183)
 1288 0658 90E0      		ldi r25,hi8(__c.2183)
 1289               	.LVL62:
 1290 065a 0E94 0000 		call MAIN_ShowError
 1291               	.LVL63:
 1292 065e 03E0      		ldi r16,lo8(3)
 1293 0660 00C0      		rjmp .L178
 1294               	.LVL64:
 1295               	.L176:
 1296               	.LM196:
 1297 0662 82E0      		ldi r24,lo8(2)
 1298               	.LVL65:
 1299 0664 0E94 0000 		call PM_SendFuseLockBytes
 1300               	.LVL66:
 1301               	.L178:
 1302               	.LM197:
 1303 0668 FF20      		tst r15
 1304 066a 01F0      		breq .L179
 1305               	.L175:
 1306 066c 85E0      		ldi r24,lo8(5)
 1307 066e F816      		cp r15,r24
 1308 0670 01F0      		breq .L179
 1309 0672 86E0      		ldi r24,lo8(6)
 1310 0674 F816      		cp r15,r24
 1311 0676 01F4      		brne .L181
 1312               	.LM198:
 1313 0678 81E0      		ldi r24,lo8(1)
 1314 067a 0E94 0000 		call MAIN_ResetCSLine
 1315               	.LM199:
 1316 067e 81E0      		ldi r24,lo8(1)
 1317 0680 0E94 0000 		call MAIN_Delay10MS
 1318               	.LM200:
 1319 0684 80E0      		ldi r24,lo8(0)
 1320 0686 0E94 0000 		call MAIN_ResetCSLine
 1321               	.LM201:
 1322 068a 0E94 0000 		call ISPCC_EnterChipProgrammingMode
 1323               	.L179:
 1324               	.LM202:
 1325 068e 8CE4      		ldi r24,lo8(76)
 1326 0690 0E94 0000 		call MAIN_ShowProgType
 1327               	.LBB72:
 1328               	.LBB73:
 1329               	.LM203:
 1330 0694 A0E0      		ldi r26,lo8(EEPROMVars+49)
 1331 0696 B0E0      		ldi r27,hi8(EEPROMVars+49)
 1332               	/* #APP */
 1333 0698 0E94 0000 		call __eeprom_read_byte_1F2021
 1334 069c 802D      		mov r24,__tmp_reg__
 1335               	.LVL67:
 1336               	/* #NOAPP */
 1337               	.LBE73:
 1338               	.LBE72:
 1339               	.LM204:
 1340 069e 8823      		tst r24
 1341 06a0 01F4      		brne .L183
 1342               	.LM205:
 1343 06a2 80E0      		ldi r24,lo8(__c.2185)
 1344 06a4 90E0      		ldi r25,hi8(__c.2185)
 1345               	.LVL68:
 1346 06a6 0E94 0000 		call MAIN_ShowError
 1347               	.LVL69:
 1348               	.LM206:
 1349 06aa 60E0      		ldi r22,lo8(__c.2187)
 1350 06ac 70E0      		ldi r23,hi8(__c.2187)
 1351 06ae CE01      		movw r24,r28
 1352 06b0 0196      		adiw r24,1
 1353 06b2 0E94 0000 		call strcpy_P
 1354 06b6 00C0      		rjmp .L185
 1355               	.LVL70:
 1356               	.L183:
 1357               	.LM207:
 1358 06b8 83E0      		ldi r24,lo8(3)
 1359               	.LVL71:
 1360 06ba 0E94 0000 		call PM_SendFuseLockBytes
 1361               	.LVL72:
 1362               	.L181:
 1363               	.LM208:
 1364 06be 60E0      		ldi r22,lo8(__c.2187)
 1365 06c0 70E0      		ldi r23,hi8(__c.2187)
 1366 06c2 CE01      		movw r24,r28
 1367 06c4 0196      		adiw r24,1
 1368 06c6 0E94 0000 		call strcpy_P
 1369               	.LM209:
 1370 06ca 0023      		tst r16
 1371 06cc 01F0      		breq .L186
 1372               	.L185:
 1373               	.LM210:
 1374 06ce 60E0      		ldi r22,lo8(__c.2189)
 1375 06d0 70E0      		ldi r23,hi8(__c.2189)
 1376 06d2 CE01      		movw r24,r28
 1377 06d4 0D96      		adiw r24,13
 1378 06d6 0E94 0000 		call strcpy_P
 1379               	.L186:
 1380               	.LM211:
 1381 06da CE01      		movw r24,r28
 1382 06dc 0196      		adiw r24,1
 1383 06de 0E94 0000 		call LCD_puts
 1384               	.LM212:
 1385 06e2 8FEF      		ldi r24,lo8(-1)
 1386 06e4 0E94 0000 		call MAIN_Delay10MS
 1387               	.LM213:
 1388 06e8 84E6      		ldi r24,lo8(100)
 1389 06ea 0E94 0000 		call MAIN_Delay10MS
 1390 06ee 00C0      		rjmp .L187
 1391               	.LVL73:
 1392               	.L150:
 1393               	.LM214:
 1394 06f0 80E0      		ldi r24,lo8(SyncErrorMessage)
 1395 06f2 90E0      		ldi r25,hi8(SyncErrorMessage)
 1396 06f4 0E94 0000 		call MAIN_ShowError
 1397               	.LVL74:
 1398               	.L187:
 1399               	.LM215:
 1400 06f8 80E8      		ldi r24,lo8(-128)
 1401 06fa 8093 6100 		sts 97,r24
 1402 06fe 83E0      		ldi r24,lo8(3)
 1403 0700 8093 6100 		sts 97,r24
 1404               	.LM216:
 1405 0704 81E0      		ldi r24,lo8(1)
 1406 0706 0E94 0000 		call MAIN_ResetCSLine
 1407               	.LM217:
 1408 070a 0E94 0000 		call USI_SPIOff
 1409               	.LM218:
 1410 070e 80E0      		ldi r24,lo8(0)
 1411 0710 0E94 0000 		call DF_EnableDataflash
 1412               	.LM219:
 1413 0714 8091 6400 		lds r24,100
 1414 0718 8460      		ori r24,lo8(4)
 1415 071a 8093 6400 		sts 100,r24
 1416               	.LM220:
 1417 071e 81B3      		in r24,49-0x20
 1418 0720 8F7C      		andi r24,lo8(-49)
 1419 0722 8061      		ori r24,lo8(16)
 1420 0724 81BB      		out 49-0x20,r24
 1421               	.L188:
 1422               	/* epilogue: frame size=19 */
 1423 0726 6396      		adiw r28,19
 1424 0728 0FB6      		in __tmp_reg__,__SREG__
 1425 072a F894      		cli
 1426 072c DEBF      		out __SP_H__,r29
 1427 072e 0FBE      		out __SREG__,__tmp_reg__
 1428 0730 CDBF      		out __SP_L__,r28
 1429 0732 DF91      		pop r29
 1430 0734 CF91      		pop r28
 1431 0736 1F91      		pop r17
 1432 0738 0F91      		pop r16
 1433 073a FF90      		pop r15
 1434 073c 0895      		ret
 1435               	/* epilogue end (size=12) */
 1436               	/* function FUNCProgramAVR size 350 (325) */
 1437               	.LFE29:
 1439               	.global	main
 1441               	main:
 1442               	.LFB14:
 1443               	.LM221:
 1444               	/* prologue: frame size=0 */
 1445 073e 0F93      		push r16
 1446 0740 1F93      		push r17
 1447               	/* prologue end (size=2) */
 1448               	.LM222:
 1449 0742 80E8      		ldi r24,lo8(-128)
 1450 0744 85BF      		out 85-0x20,r24
 1451               	.LM223:
 1452 0746 85BF      		out 85-0x20,r24
 1453               	.LM224:
 1454 0748 80BF      		out 80-0x20,r24
 1455               	.LM225:
 1456 074a 85E0      		ldi r24,lo8(5)
 1457 074c 8093 6400 		sts 100,r24
 1458               	.LM226:
 1459 0750 80E3      		ldi r24,lo8(48)
 1460 0752 80BB      		out 48-0x20,r24
 1461               	.LM227:
 1462 0754 87E2      		ldi r24,lo8(39)
 1463 0756 84B9      		out 36-0x20,r24
 1464               	.LM228:
 1465 0758 8FED      		ldi r24,lo8(-33)
 1466 075a 85B9      		out 37-0x20,r24
 1467               	.LM229:
 1468 075c 8CE0      		ldi r24,lo8(12)
 1469 075e 8EB9      		out 46-0x20,r24
 1470               	.LM230:
 1471 0760 8093 6B00 		sts 107,r24
 1472               	.LM231:
 1473 0764 80ED      		ldi r24,lo8(-48)
 1474 0766 8093 6C00 		sts 108,r24
 1475               	.LM232:
 1476 076a 80EC      		ldi r24,lo8(-64)
 1477 076c 8DBB      		out 61-0x20,r24
 1478               	.LM233:
 1479 076e 8CBB      		out 60-0x20,r24
 1480               	.LM234:
 1481 0770 81B3      		in r24,49-0x20
 1482 0772 8F7C      		andi r24,lo8(-49)
 1483 0774 8063      		ori r24,lo8(48)
 1484 0776 81BB      		out 49-0x20,r24
 1485               	.LM235:
 1486 0778 0E94 0000 		call LCD_Init
 1487               	.LM236:
 1488 077c 8FE0      		ldi r24,lo8(15)
 1489 077e 8093 E700 		sts 231,r24
 1490               	.LM237:
 1491 0782 80E0      		ldi r24,lo8(WaitText)
 1492 0784 90E0      		ldi r25,hi8(WaitText)
 1493 0786 0E94 0000 		call LCD_puts_f
 1494               	.LM238:
 1495               	/* #APP */
 1496 078a 7894      		sei
 1497               	/* #NOAPP */
 1498               	.LBB88:
 1499               	.LBB89:
 1500               	.LM239:
 1501 078c A0E0      		ldi r26,lo8(EEPROMVars+137)
 1502 078e B0E0      		ldi r27,hi8(EEPROMVars+137)
 1503               	/* #APP */
 1504 0790 0E94 0000 		call __eeprom_read_byte_1F2021
 1505 0794 802D      		mov r24,__tmp_reg__
 1506               	.LVL75:
 1507               	/* #NOAPP */
 1508               	.LBE89:
 1509               	.LBE88:
 1510               	.LM240:
 1511 0796 8A37      		cpi r24,lo8(122)
 1512 0798 01F0      		breq .L199
 1513               	.LM241:
 1514 079a 80E0      		ldi r24,lo8(0)
 1515 079c 90E0      		ldi r25,hi8(0)
 1516               	.LVL76:
 1517 079e 2FEF      		ldi r18,lo8(-1)
 1518               	.L201:
 1519               	.LBB90:
 1520               	.LBB91:
 1521               	.LBB92:
 1522               	.LM242:
 1523 07a0 DC01      		movw r26,r24
 1524               	.LVL77:
 1525               	/* #APP */
 1526 07a2 022E      		mov __tmp_reg__,r18
 1527 07a4 0E94 0000 		call __eeprom_write_byte_1F2021
 1528               	/* #NOAPP */
 1529               	.LBE92:
 1530               	.LBE91:
 1531               	.LM243:
 1532 07a8 0196      		adiw r24,1
 1533 07aa 8A38      		cpi r24,138
 1534 07ac 9105      		cpc r25,__zero_reg__
 1535 07ae 01F4      		brne .L201
 1536               	.LBE90:
 1537               	.LBB93:
 1538               	.LBB94:
 1539               	.LM244:
 1540 07b0 8AE7      		ldi r24,lo8(122)
 1541               	.LVL78:
 1542 07b2 A0E0      		ldi r26,lo8(EEPROMVars+137)
 1543 07b4 B0E0      		ldi r27,hi8(EEPROMVars+137)
 1544               	.LVL79:
 1545               	/* #APP */
 1546 07b6 082E      		mov __tmp_reg__,r24
 1547 07b8 0E94 0000 		call __eeprom_write_byte_1F2021
 1548               	.LVL80:
 1549               	/* #NOAPP */
 1550               	.L199:
 1551               	.LBE94:
 1552               	.LBE93:
 1553               	.LBB95:
 1554               	.LBB96:
 1555               	.LM245:
 1556 07bc A0E0      		ldi r26,lo8(EEPROMVars+134)
 1557 07be B0E0      		ldi r27,hi8(EEPROMVars+134)
 1558               	.LVL81:
 1559               	/* #APP */
 1560 07c0 0E94 0000 		call __eeprom_read_byte_1F2021
 1561 07c4 802D      		mov r24,__tmp_reg__
 1562               	.LVL82:
 1563               	/* #NOAPP */
 1564               	.LBE96:
 1565               	.LBE95:
 1566               	.LM246:
 1567 07c6 8F70      		andi r24,lo8(15)
 1568 07c8 8093 E700 		sts 231,r24
 1569               	.LM247:
 1570 07cc 80E0      		ldi r24,lo8(0)
 1571               	.LVL83:
 1572 07ce 0E94 0000 		call DF_EnableDataflash
 1573               	.LVL84:
 1574               	.LM248:
 1575 07d2 0E94 0000 		call USART_Init
 1576               	.LM249:
 1577 07d6 0E94 0000 		call OSCCAL_Calibrate
 1578               	.LM250:
 1579 07da 0E94 0000 		call TOUT_SetupSleepTimer
 1580               	.LM251:
 1581 07de 81B3      		in r24,49-0x20
 1582 07e0 8F7C      		andi r24,lo8(-49)
 1583 07e2 8061      		ori r24,lo8(16)
 1584 07e4 81BB      		out 49-0x20,r24
 1585               	.LM252:
 1586 07e6 81E0      		ldi r24,lo8(1)
 1587 07e8 8EBB      		out 62-0x20,r24
 1588               	.LM253:
 1589 07ea 80E8      		ldi r24,lo8(-128)
 1590 07ec 8093 6100 		sts 97,r24
 1591 07f0 83E0      		ldi r24,lo8(3)
 1592 07f2 8093 6100 		sts 97,r24
 1593 07f6 00E0      		ldi r16,lo8(0)
 1594               	.LVL85:
 1595               	.LVL86:
 1596               	.L241:
 1597               	.LM254:
 1598 07f8 8EB3      		in r24,62-0x20
 1599 07fa 8823      		tst r24
 1600 07fc 01F0      		breq .L241
 1601               	.LM255:
 1602 07fe F69B      		sbis 62-0x20,6
 1603 0800 00C0      		rjmp .L205
 1604               	.LM256:
 1605 0802 0023      		tst r16
 1606 0804 01F4      		brne .L207
 1607 0806 06E0      		ldi r16,lo8(6)
 1608 0808 00C0      		rjmp .L209
 1609               	.L207:
 1610 080a 0150      		subi r16,lo8(-(-1))
 1611 080c 00C0      		rjmp .L209
 1612               	.L205:
 1613               	.LM257:
 1614 080e F79B      		sbis 62-0x20,7
 1615 0810 00C0      		rjmp .L210
 1616               	.LM258:
 1617 0812 0630      		cpi r16,lo8(6)
 1618 0814 01F0      		breq .L212
 1619 0816 0F5F      		subi r16,lo8(-(1))
 1620 0818 00C0      		rjmp .L209
 1621               	.L210:
 1622               	.LM259:
 1623 081a F49B      		sbis 62-0x20,4
 1624 081c 00C0      		rjmp .L214
 1625               	.LBB97:
 1626               	.LM260:
 1627 081e E02F      		mov r30,r16
 1628 0820 FF27      		clr r31
 1629               	.LVL87:
 1630 0822 EE0F      		lsl r30
 1631 0824 FF1F      		rol r31
 1632 0826 E050      		subi r30,lo8(-(MainFunctionPtrs))
 1633 0828 F040      		sbci r31,hi8(-(MainFunctionPtrs))
 1634               	/* #APP */
 1635 082a 8591      		lpm r24, Z+
 1636 082c 9491      		lpm r25, Z
 1637               		
 1638               	.LVL88:
 1639               	/* #NOAPP */
 1640               	.LBE97:
 1641 082e FC01      		movw r30,r24
 1642 0830 0995      		icall
 1643               	.LVL89:
 1644 0832 00C0      		rjmp .L209
 1645               	.L214:
 1646               	.LM261:
 1647 0834 F39B      		sbis 62-0x20,3
 1648 0836 00C0      		rjmp .L209
 1649               	.LBB98:
 1650               	.LBB99:
 1651               	.LM262:
 1652 0838 81E0      		ldi r24,lo8(1)
 1653 083a 8EBB      		out 62-0x20,r24
 1654 083c 10E0      		ldi r17,lo8(0)
 1655               	.L242:
 1656               	.LM263:
 1657 083e 8EB3      		in r24,62-0x20
 1658 0840 8823      		tst r24
 1659 0842 01F0      		breq .L242
 1660               	.LM264:
 1661 0844 F69B      		sbis 62-0x20,6
 1662 0846 00C0      		rjmp .L219
 1663               	.LM265:
 1664 0848 1123      		tst r17
 1665 084a 01F4      		brne .L221
 1666 084c 13E0      		ldi r17,lo8(3)
 1667 084e 00C0      		rjmp .L223
 1668               	.L221:
 1669 0850 1150      		subi r17,lo8(-(-1))
 1670 0852 00C0      		rjmp .L223
 1671               	.L219:
 1672               	.LM266:
 1673 0854 F79B      		sbis 62-0x20,7
 1674 0856 00C0      		rjmp .L224
 1675               	.LM267:
 1676 0858 1330      		cpi r17,lo8(3)
 1677 085a 01F4      		brne .L226
 1678 085c 10E0      		ldi r17,lo8(0)
 1679 085e 00C0      		rjmp .L223
 1680               	.L226:
 1681 0860 1F5F      		subi r17,lo8(-(1))
 1682 0862 00C0      		rjmp .L223
 1683               	.L224:
 1684               	.LM268:
 1685 0864 F299      		sbic 62-0x20,2
 1686 0866 00C0      		rjmp .L209
 1687               	.L223:
 1688               	.LBB100:
 1689               	.LM269:
 1690 0868 E12F      		mov r30,r17
 1691 086a FF27      		clr r31
 1692               	.LVL90:
 1693 086c EE0F      		lsl r30
 1694 086e FF1F      		rol r31
 1695 0870 E050      		subi r30,lo8(-(AboutTextPtrs))
 1696 0872 F040      		sbci r31,hi8(-(AboutTextPtrs))
 1697               	.LBE100:
 1698               	/* #APP */
 1699 0874 8591      		lpm r24, Z+
 1700 0876 9491      		lpm r25, Z
 1701               		
 1702               	.LVL91:
 1703               	/* #NOAPP */
 1704 0878 0E94 0000 		call LCD_puts_f
 1705               	.LVL92:
 1706               	.LM270:
 1707 087c 0E94 0000 		call MAIN_WaitForJoyRelease
 1708 0880 00C0      		rjmp .L242
 1709               	.L212:
 1710 0882 00E0      		ldi r16,lo8(0)
 1711               	.L209:
 1712               	.LBE99:
 1713               	.LBE98:
 1714               	.LBB101:
 1715               	.LM271:
 1716 0884 E02F      		mov r30,r16
 1717 0886 FF27      		clr r31
 1718               	.LVL93:
 1719 0888 EE0F      		lsl r30
 1720 088a FF1F      		rol r31
 1721 088c E050      		subi r30,lo8(-(MainFunctionNames))
 1722 088e F040      		sbci r31,hi8(-(MainFunctionNames))
 1723               	.LBE101:
 1724               	/* #APP */
 1725 0890 8591      		lpm r24, Z+
 1726 0892 9491      		lpm r25, Z
 1727               		
 1728               	.LVL94:
 1729               	/* #NOAPP */
 1730 0894 0E94 0000 		call LCD_puts_f
 1731               	.LVL95:
 1732               	.LM272:
 1733 0898 0E94 0000 		call MAIN_WaitForJoyRelease
 1734 089c 00C0      		rjmp .L241
 1735               	/* epilogue: frame size=0 */
 1736               	/* epilogue: noreturn */
 1737               	/* epilogue end (size=0) */
 1738               	/* function main size 193 (191) */
 1739               	.LFE14:
 1742               	FUNCClearMem:
 1743               	.LFB31:
 1744               	.LM273:
 1745               	/* prologue: frame size=0 */
 1746               	/* prologue end (size=0) */
 1747               	.LM274:
 1748 089e 80E0      		ldi r24,lo8(__c.2273)
 1749 08a0 90E0      		ldi r25,hi8(__c.2273)
 1750 08a2 0E94 0000 		call LCD_puts_f
 1751               	.LM275:
 1752 08a6 84EB      		ldi r24,lo8(-76)
 1753 08a8 0E94 0000 		call MAIN_Delay10MS
 1754               	.LM276:
 1755 08ac 80E0      		ldi r24,lo8(__c.2275)
 1756 08ae 90E0      		ldi r25,hi8(__c.2275)
 1757 08b0 0E94 0000 		call LCD_puts_f
 1758               	.L259:
 1759               	.LM277:
 1760 08b4 8EB3      		in r24,62-0x20
 1761 08b6 8823      		tst r24
 1762 08b8 01F0      		breq .L259
 1763               	.LM278:
 1764 08ba F299      		sbic 62-0x20,2
 1765 08bc 00C0      		rjmp .L251
 1766               	.LM279:
 1767 08be F39B      		sbis 62-0x20,3
 1768 08c0 00C0      		rjmp .L259
 1769               	.LM280:
 1770 08c2 0E94 0000 		call MAIN_WaitForJoyRelease
 1771               	.LM281:
 1772 08c6 80E0      		ldi r24,lo8(WaitText)
 1773 08c8 90E0      		ldi r25,hi8(WaitText)
 1774 08ca 0E94 0000 		call LCD_puts_f
 1775               	.LM282:
 1776 08ce 81B3      		in r24,49-0x20
 1777 08d0 8F7C      		andi r24,lo8(-49)
 1778 08d2 8063      		ori r24,lo8(48)
 1779 08d4 81BB      		out 49-0x20,r24
 1780 08d6 80E0      		ldi r24,lo8(0)
 1781 08d8 90E0      		ldi r25,hi8(0)
 1782               	.LVL96:
 1783 08da 2FEF      		ldi r18,lo8(-1)
 1784               	.L249:
 1785               	.LBB108:
 1786               	.LBB109:
 1787               	.LBB110:
 1788               	.LM283:
 1789 08dc DC01      		movw r26,r24
 1790               	.LVL97:
 1791               	/* #APP */
 1792 08de 022E      		mov __tmp_reg__,r18
 1793 08e0 0E94 0000 		call __eeprom_write_byte_1F2021
 1794               	/* #NOAPP */
 1795               	.LBE110:
 1796               	.LBE109:
 1797               	.LM284:
 1798 08e4 0196      		adiw r24,1
 1799 08e6 8A38      		cpi r24,138
 1800 08e8 9105      		cpc r25,__zero_reg__
 1801 08ea 01F4      		brne .L249
 1802               	.LBE108:
 1803               	.LM285:
 1804 08ec 81B3      		in r24,49-0x20
 1805               	.LVL98:
 1806 08ee 8F7C      		andi r24,lo8(-49)
 1807 08f0 8061      		ori r24,lo8(16)
 1808 08f2 81BB      		out 49-0x20,r24
 1809               	.LM286:
 1810 08f4 80E0      		ldi r24,lo8(__c.2283)
 1811 08f6 90E0      		ldi r25,hi8(__c.2283)
 1812 08f8 0E94 0000 		call LCD_puts_f
 1813               	.LVL99:
 1814               	.LM287:
 1815 08fc 8FEF      		ldi r24,lo8(-1)
 1816 08fe 0E94 0000 		call MAIN_Delay10MS
 1817               	.L251:
 1818 0902 0895      		ret
 1819               	/* epilogue: frame size=0 */
 1820               	/* epilogue: noreturn */
 1821               	/* epilogue end (size=0) */
 1822               	/* function FUNCClearMem size 52 (52) */
 1823               	.LFE31:
 1826               	FUNCSetContrast:
 1827               	.LFB32:
 1828               	.LM288:
 1829               	/* prologue: frame size=6 */
 1830 0904 1F93      		push r17
 1831 0906 CF93      		push r28
 1832 0908 DF93      		push r29
 1833 090a CDB7      		in r28,__SP_L__
 1834 090c DEB7      		in r29,__SP_H__
 1835 090e 2697      		sbiw r28,6
 1836 0910 0FB6      		in __tmp_reg__,__SREG__
 1837 0912 F894      		cli
 1838 0914 DEBF      		out __SP_H__,r29
 1839 0916 0FBE      		out __SREG__,__tmp_reg__
 1840 0918 CDBF      		out __SP_L__,r28
 1841               	/* prologue end (size=11) */
 1842               	.LBB115:
 1843               	.LBB116:
 1844               	.LM289:
 1845 091a A0E0      		ldi r26,lo8(EEPROMVars+134)
 1846 091c B0E0      		ldi r27,hi8(EEPROMVars+134)
 1847               	/* #APP */
 1848 091e 0E94 0000 		call __eeprom_read_byte_1F2021
 1849 0922 802D      		mov r24,__tmp_reg__
 1850               	.LVL100:
 1851               	/* #NOAPP */
 1852               	.LBE116:
 1853               	.LBE115:
 1854               	.LM290:
 1855 0924 182F      		mov r17,r24
 1856               	.LVL101:
 1857 0926 1F70      		andi r17,lo8(15)
 1858               	.LM291:
 1859 0928 81E0      		ldi r24,lo8(1)
 1860               	.LVL102:
 1861 092a 8EBB      		out 62-0x20,r24
 1862               	.L278:
 1863               	.LM292:
 1864 092c 8EB3      		in r24,62-0x20
 1865 092e 8823      		tst r24
 1866 0930 01F0      		breq .L278
 1867               	.LM293:
 1868 0932 F69B      		sbis 62-0x20,6
 1869 0934 00C0      		rjmp .L263
 1870               	.LM294:
 1871 0936 1F30      		cpi r17,lo8(15)
 1872 0938 00F4      		brsh .L265
 1873               	.LM295:
 1874 093a 1F5F      		subi r17,lo8(-(1))
 1875 093c 00C0      		rjmp .L265
 1876               	.L263:
 1877               	.LM296:
 1878 093e F79B      		sbis 62-0x20,7
 1879 0940 00C0      		rjmp .L267
 1880               	.LM297:
 1881 0942 1230      		cpi r17,lo8(2)
 1882 0944 00F0      		brlo .L265
 1883               	.LM298:
 1884 0946 1150      		subi r17,lo8(-(-1))
 1885 0948 00C0      		rjmp .L265
 1886               	.L267:
 1887               	.LM299:
 1888 094a F299      		sbic 62-0x20,2
 1889 094c 00C0      		rjmp .L277
 1890               	.L265:
 1891               	.LM300:
 1892 094e 83E4      		ldi r24,lo8(67)
 1893 0950 8983      		std Y+1,r24
 1894               	.LM301:
 1895 0952 84E5      		ldi r24,lo8(84)
 1896 0954 8A83      		std Y+2,r24
 1897               	.LM302:
 1898 0956 80E2      		ldi r24,lo8(32)
 1899 0958 8B83      		std Y+3,r24
 1900               	.LM303:
 1901 095a BE01      		movw r22,r28
 1902 095c 6C5F      		subi r22,lo8(-(4))
 1903 095e 7F4F      		sbci r23,hi8(-(4))
 1904 0960 812F      		mov r24,r17
 1905 0962 9927      		clr r25
 1906 0964 0E94 0000 		call MAIN_IntToStr
 1907               	.LVL103:
 1908               	.LM304:
 1909 0968 CE01      		movw r24,r28
 1910 096a 0196      		adiw r24,1
 1911 096c 0E94 0000 		call LCD_puts
 1912               	.LM305:
 1913 0970 812F      		mov r24,r17
 1914 0972 8F70      		andi r24,lo8(15)
 1915 0974 8093 E700 		sts 231,r24
 1916               	.LM306:
 1917 0978 0E94 0000 		call MAIN_WaitForJoyRelease
 1918 097c 00C0      		rjmp .L278
 1919               	.LVL104:
 1920               	.L277:
 1921               	.LBB117:
 1922               	.LBB118:
 1923               	.LM307:
 1924 097e A0E0      		ldi r26,lo8(EEPROMVars+134)
 1925 0980 B0E0      		ldi r27,hi8(EEPROMVars+134)
 1926               	.LVL105:
 1927               	/* #APP */
 1928 0982 012E      		mov __tmp_reg__,r17
 1929 0984 0E94 0000 		call __eeprom_write_byte_1F2021
 1930               	.LVL106:
 1931               	/* #NOAPP */
 1932               	.LBE118:
 1933               	.LBE117:
 1934               	/* epilogue: frame size=6 */
 1935 0988 2696      		adiw r28,6
 1936 098a 0FB6      		in __tmp_reg__,__SREG__
 1937 098c F894      		cli
 1938 098e DEBF      		out __SP_H__,r29
 1939 0990 0FBE      		out __SREG__,__tmp_reg__
 1940 0992 CDBF      		out __SP_L__,r28
 1941 0994 DF91      		pop r29
 1942 0996 CF91      		pop r28
 1943 0998 1F91      		pop r17
 1944 099a 0895      		ret
 1945               	/* epilogue end (size=10) */
 1946               	/* function FUNCSetContrast size 78 (57) */
 1947               	.LFE32:
 1950               	FUNCSetISPSpeed:
 1951               	.LFB33:
 1952               	.LM308:
 1953               	/* prologue: frame size=0 */
 1954 099c 1F93      		push r17
 1955               	/* prologue end (size=1) */
 1956               	.LBB123:
 1957               	.LBB124:
 1958               	.LM309:
 1959 099e A0E0      		ldi r26,lo8(EEPROMVars+2)
 1960 09a0 B0E0      		ldi r27,hi8(EEPROMVars+2)
 1961               	/* #APP */
 1962 09a2 0E94 0000 		call __eeprom_read_byte_1F2021
 1963 09a6 802D      		mov r24,__tmp_reg__
 1964               	.LVL107:
 1965               	/* #NOAPP */
 1966               	.LBE124:
 1967               	.LBE123:
 1968               	.LM310:
 1969 09a8 182F      		mov r17,r24
 1970               	.LVL108:
 1971 09aa 8430      		cpi r24,lo8(4)
 1972 09ac 00F0      		brlo .L280
 1973               	.LVL109:
 1974               	.LM311:
 1975 09ae 13E0      		ldi r17,lo8(3)
 1976               	.L280:
 1977               	.LM312:
 1978 09b0 81E0      		ldi r24,lo8(1)
 1979               	.LVL110:
 1980 09b2 8EBB      		out 62-0x20,r24
 1981               	.L300:
 1982               	.LM313:
 1983 09b4 8EB3      		in r24,62-0x20
 1984 09b6 8823      		tst r24
 1985 09b8 01F0      		breq .L300
 1986               	.LM314:
 1987 09ba F69B      		sbis 62-0x20,6
 1988 09bc 00C0      		rjmp .L283
 1989               	.LM315:
 1990 09be 1123      		tst r17
 1991 09c0 01F4      		brne .L285
 1992 09c2 13E0      		ldi r17,lo8(3)
 1993 09c4 00C0      		rjmp .L287
 1994               	.L285:
 1995 09c6 1150      		subi r17,lo8(-(-1))
 1996 09c8 00C0      		rjmp .L287
 1997               	.L283:
 1998               	.LM316:
 1999 09ca F79B      		sbis 62-0x20,7
 2000 09cc 00C0      		rjmp .L288
 2001               	.LM317:
 2002 09ce 1330      		cpi r17,lo8(3)
 2003 09d0 01F0      		breq .L290
 2004 09d2 1F5F      		subi r17,lo8(-(1))
 2005 09d4 00C0      		rjmp .L287
 2006               	.L288:
 2007               	.LM318:
 2008 09d6 F29B      		sbis 62-0x20,2
 2009 09d8 00C0      		rjmp .L287
 2010 09da 00C0      		rjmp .L299
 2011               	.L290:
 2012               	.LBB125:
 2013               	.LBB126:
 2014               	.LM319:
 2015 09dc 10E0      		ldi r17,lo8(0)
 2016               	.L287:
 2017               	.LBE126:
 2018               	.LBE125:
 2019               	.LM320:
 2020 09de 8AE0      		ldi r24,lo8(10)
 2021 09e0 189F      		mul r17,r24
 2022 09e2 C001      		movw r24,r0
 2023 09e4 1124      		clr r1
 2024 09e6 8050      		subi r24,lo8(-(USISpeeds))
 2025 09e8 9040      		sbci r25,hi8(-(USISpeeds))
 2026 09ea 0E94 0000 		call LCD_puts_f
 2027               	.LVL111:
 2028               	.LM321:
 2029 09ee 0E94 0000 		call MAIN_WaitForJoyRelease
 2030 09f2 00C0      		rjmp .L300
 2031               	.LVL112:
 2032               	.L299:
 2033               	.LBB127:
 2034               	.LBB128:
 2035               	.LM322:
 2036 09f4 A0E0      		ldi r26,lo8(EEPROMVars+2)
 2037 09f6 B0E0      		ldi r27,hi8(EEPROMVars+2)
 2038               	.LVL113:
 2039               	/* #APP */
 2040 09f8 012E      		mov __tmp_reg__,r17
 2041 09fa 0E94 0000 		call __eeprom_write_byte_1F2021
 2042               	.LVL114:
 2043               	/* #NOAPP */
 2044               	.LBE128:
 2045               	.LBE127:
 2046               	/* epilogue: frame size=0 */
 2047 09fe 1F91      		pop r17
 2048 0a00 0895      		ret
 2049               	/* epilogue end (size=2) */
 2050               	/* function FUNCSetISPSpeed size 53 (50) */
 2051               	.LFE33:
 2054               	FUNCSetFirmMinorVer:
 2055               	.LFB34:
 2056               	.LM323:
 2057               	/* prologue: frame size=5 */
 2058 0a02 1F93      		push r17
 2059 0a04 CF93      		push r28
 2060 0a06 DF93      		push r29
 2061 0a08 CDB7      		in r28,__SP_L__
 2062 0a0a DEB7      		in r29,__SP_H__
 2063 0a0c 2597      		sbiw r28,5
 2064 0a0e 0FB6      		in __tmp_reg__,__SREG__
 2065 0a10 F894      		cli
 2066 0a12 DEBF      		out __SP_H__,r29
 2067 0a14 0FBE      		out __SREG__,__tmp_reg__
 2068 0a16 CDBF      		out __SP_L__,r28
 2069               	/* prologue end (size=11) */
 2070               	.LBB134:
 2071               	.LBB135:
 2072               	.LM324:
 2073 0a18 A0E0      		ldi r26,lo8(EEPROMVars+135)
 2074 0a1a B0E0      		ldi r27,hi8(EEPROMVars+135)
 2075               	/* #APP */
 2076 0a1c 0E94 0000 		call __eeprom_read_byte_1F2021
 2077 0a20 802D      		mov r24,__tmp_reg__
 2078               	.LVL115:
 2079               	/* #NOAPP */
 2080               	.LBE135:
 2081               	.LBE134:
 2082               	.LM325:
 2083 0a22 182F      		mov r17,r24
 2084               	.LVL116:
 2085               	.LVL117:
 2086               	.LM326:
 2087 0a24 8A30      		cpi r24,lo8(10)
 2088 0a26 00F0      		brlo .L302
 2089               	.LVL118:
 2090               	.LM327:
 2091 0a28 14E0      		ldi r17,lo8(4)
 2092               	.L302:
 2093               	.LM328:
 2094 0a2a 60E0      		ldi r22,lo8(__c.2357)
 2095 0a2c 70E0      		ldi r23,hi8(__c.2357)
 2096 0a2e CE01      		movw r24,r28
 2097               	.LVL119:
 2098 0a30 0196      		adiw r24,1
 2099 0a32 0E94 0000 		call strcpy_P
 2100               	.LVL120:
 2101               	.LM329:
 2102 0a36 81E0      		ldi r24,lo8(1)
 2103 0a38 8EBB      		out 62-0x20,r24
 2104               	.L321:
 2105               	.LM330:
 2106 0a3a 8EB3      		in r24,62-0x20
 2107 0a3c 8823      		tst r24
 2108 0a3e 01F0      		breq .L321
 2109               	.LM331:
 2110 0a40 F69B      		sbis 62-0x20,6
 2111 0a42 00C0      		rjmp .L306
 2112               	.LM332:
 2113 0a44 1930      		cpi r17,lo8(9)
 2114 0a46 00F4      		brsh .L306
 2115               	.LM333:
 2116 0a48 1F5F      		subi r17,lo8(-(1))
 2117               	.L306:
 2118               	.LM334:
 2119 0a4a F79B      		sbis 62-0x20,7
 2120 0a4c 00C0      		rjmp .L309
 2121               	.LM335:
 2122 0a4e 1123      		tst r17
 2123 0a50 01F0      		breq .L311
 2124               	.LM336:
 2125 0a52 1150      		subi r17,lo8(-(-1))
 2126 0a54 00C0      		rjmp .L311
 2127               	.L309:
 2128               	.LM337:
 2129 0a56 F299      		sbic 62-0x20,2
 2130 0a58 00C0      		rjmp .L320
 2131               	.L311:
 2132               	.LM338:
 2133 0a5a 105D      		subi r17,lo8(-(48))
 2134 0a5c 1C83      		std Y+4,r17
 2135 0a5e 1053      		subi r17,lo8(-(-48))
 2136               	.LM339:
 2137 0a60 CE01      		movw r24,r28
 2138 0a62 0196      		adiw r24,1
 2139 0a64 0E94 0000 		call LCD_puts
 2140               	.LM340:
 2141 0a68 0E94 0000 		call MAIN_WaitForJoyRelease
 2142 0a6c 00C0      		rjmp .L321
 2143               	.L320:
 2144               	.LBB136:
 2145               	.LBB137:
 2146               	.LM341:
 2147 0a6e A0E0      		ldi r26,lo8(EEPROMVars+135)
 2148 0a70 B0E0      		ldi r27,hi8(EEPROMVars+135)
 2149               	/* #APP */
 2150 0a72 012E      		mov __tmp_reg__,r17
 2151 0a74 0E94 0000 		call __eeprom_write_byte_1F2021
 2152               	.LVL121:
 2153               	/* #NOAPP */
 2154               	.LBE137:
 2155               	.LBE136:
 2156               	/* epilogue: frame size=5 */
 2157 0a78 2596      		adiw r28,5
 2158 0a7a 0FB6      		in __tmp_reg__,__SREG__
 2159 0a7c F894      		cli
 2160 0a7e DEBF      		out __SP_H__,r29
 2161 0a80 0FBE      		out __SREG__,__tmp_reg__
 2162 0a82 CDBF      		out __SP_L__,r28
 2163 0a84 DF91      		pop r29
 2164 0a86 CF91      		pop r28
 2165 0a88 1F91      		pop r17
 2166 0a8a 0895      		ret
 2167               	/* epilogue end (size=10) */
 2168               	/* function FUNCSetFirmMinorVer size 71 (50) */
 2169               	.LFE34:
 2171               		.section	.progmem.data,"a",@progbits
 2174               	BUTTTAG_Title:
 2175 0000 40        		.byte	64
 2176 0001 28        		.byte	40
 2177 0002 23        		.byte	35
 2178 0003 29        		.byte	41
 2179 0004 4255 5454 		.string	"BUTTLOAD AVRISP"
 2179      4C4F 4144 
 2179      2041 5652 
 2179      4953 5000 
 2182               	AboutTextPtrs:
 2183 0014 0000      		.word	BUTTTAG_Title+4
 2184 0016 0000      		.word	BUTTTAG_Version+4
 2185 0018 0000      		.word	BUTTTAG_Author+4
 2186 001a 0000      		.word	BUTTTAG_Copyright+4
 2189               	WaitText:
 2190 001c 2A57 4149 		.string	"*WAIT*"
 2190      542A 00
 2193               	MainFunctionNames:
 2194 0023 0000      		.word	Func_ISPPRGM
 2195 0025 0000      		.word	Func_STOREPRGM
 2196 0027 0000      		.word	Func_PRGMAVR
 2197 0029 0000      		.word	Func_PRGMDATAFLASH
 2198 002b 0000      		.word	Func_PRGMSTOREINFO
 2199 002d 0000      		.word	Func_SETTINGS
 2200 002f 0000      		.word	Func_SLEEP
 2203               	MainFunctionPtrs:
 2204 0031 0000      		.word	gs(FUNCAVRISPMode)
 2205 0033 0000      		.word	gs(FUNCStoreProgram)
 2206 0035 0000      		.word	gs(FUNCProgramAVR)
 2207 0037 0000      		.word	gs(FUNCProgramDataflash)
 2208 0039 0000      		.word	gs(FUNCStorageInfo)
 2209 003b 0000      		.word	gs(FUNCChangeSettings)
 2210 003d 0000      		.word	gs(FUNCSleepMode)
 2213               	SettingFunctionNames:
 2214 003f 0000      		.word	SFunc_SETCONTRAST
 2215 0041 0000      		.word	SFunc_SETSPISPEED
 2216 0043 0000      		.word	SFunc_SETFIRMMINOR
 2217 0045 0000      		.word	SFunc_SETAUTOSLEEPTO
 2218 0047 0000      		.word	SFunc_CLEARMEM
 2219 0049 0000      		.word	SFunc_GOBOOTLOADER
 2222               	SettingFunctionPtrs:
 2223 004b 0000      		.word	gs(FUNCSetContrast)
 2224 004d 0000      		.word	gs(FUNCSetISPSpeed)
 2225 004f 0000      		.word	gs(FUNCSetFirmMinorVer)
 2226 0051 0000      		.word	gs(FUNCSetAutoSleepTimeOut)
 2227 0053 0000      		.word	gs(FUNCClearMem)
 2228 0055 0000      		.word	gs(FUNCGoBootloader)
 2231               	ProgOptions:
 2232 0057 0000      		.word	PRG_A
 2233 0059 0000      		.word	PRG_D
 2234 005b 0000      		.word	PRG_E
 2235 005d 0000      		.word	PRG_DE
 2236 005f 0000      		.word	PRG_F
 2237 0061 0000      		.word	PRG_L
 2238 0063 0000      		.word	PRG_FL
 2239 0065 0000      		.word	PRG_C
 2242               	USISpeeds:
 2243 0067 2035 3731 		.string	" 57153 HZ"
 2243      3533 2048 
 2243      5A00 
 2244 0071 2038 3637 		.string	" 86738 HZ"
 2244      3338 2048 
 2244      5A00 
 2245 007b 3131 3334 		.string	"113427 HZ"
 2245      3237 2048 
 2245      5A00 
 2246 0085 3231 3036 		.string	"210651 HZ"
 2246      3531 2048 
 2246      5A00 
 2249               	SIFONames:
 2250 008f 5354 4F52 		.string	"STORAGE SIZES"
 2250      4147 4520 
 2250      5349 5A45 
 2250      5300 
 2251 009d 00        		.skip 1,0
 2252 009e 5649 4557 		.string	"VIEW DATA TAGS"
 2252      2044 4154 
 2252      4120 5441 
 2252      4753 00
 2255               	__c.2465:
 2256 00ad 2A4A 5441 		.string	"*JTAG ON*"
 2256      4720 4F4E 
 2256      2A00 
 2259               	__c.2434:
 2260 00b7 4E4F 2053 		.string	"NO STORED PRGM"
 2260      544F 5245 
 2260      4420 5052 
 2260      474D 00
 2263               	__c.2380:
 2264 00c6 4F46 4600 		.string	"OFF"
 2267               	__c.2378:
 2268 00ca 2020 2020 		.string	"    SEC"
 2268      5345 4300 
 2271               	__c.2357:
 2272 00d2 5632 2D20 		.string	"V2- "
 2272      00
 2275               	__c.2283:
 2276 00d7 4D45 4D20 		.string	"MEM CLEARED"
 2276      434C 4541 
 2276      5245 4400 
 2279               	__c.2275:
 2280 00e3 3C4E 2059 		.string	"<N Y>"
 2280      3E00 
 2283               	__c.2273:
 2284 00e9 434F 4E46 		.string	"CONFIRM"
 2284      4952 4D00 
 2287               	__c.2256:
 2288 00f1 2A53 544F 		.string	"*STORAGE MODE*"
 2288      5241 4745 
 2288      204D 4F44 
 2288      452A 00
 2291               	__c.2189:
 2292 0100 4641 494C 		.string	"FAILED"
 2292      4544 00
 2295               	__c.2187:
 2296 0107 5052 4F47 		.string	"PROGRAMMING DONE"
 2296      5241 4D4D 
 2296      494E 4720 
 2296      444F 4E45 
 2296      00
 2299               	__c.2185:
 2300 0118 4E4F 204C 		.string	"NO LOCK BYTES"
 2300      4F43 4B20 
 2300      4259 5445 
 2300      5300 
 2303               	__c.2183:
 2304 0126 4E4F 2046 		.string	"NO FUSE BYTES"
 2304      5553 4520 
 2304      4259 5445 
 2304      5300 
 2307               	__c.2181:
 2308 0134 4E4F 2045 		.string	"NO EEPROM"
 2308      4550 524F 
 2308      4D00 
 2311               	__c.2179:
 2312 013e 4E4F 2044 		.string	"NO DATA"
 2312      4154 4100 
 2315               	__c.2177:
 2316 0146 4E4F 2045 		.string	"NO ERASE CMD"
 2316      5241 5345 
 2316      2043 4D44 
 2316      00
 2319               	__c.2073:
 2320 0153 4241 4449 		.string	"BADISR"
 2320      5352 00
 2323               	__c.2023:
 2324 015a 5052 473E 		.string	"PRG>  "
 2324      2020 00
 2325               		.section	.eeprom,"aw",@progbits
 2328               	EEPROMVars:
 2329 0000 0000 0000 		.skip 138,0
 2329      0000 0000 
 2329      0000 0000 
 2329      0000 0000 
 2329      0000 0000 
 2330               		.section	.progmem.data
 2333               	BUTTTAG_Version:
 2334 0161 40        		.byte	64
 2335 0162 28        		.byte	40
 2336 0163 23        		.byte	35
 2337 0164 29        		.byte	41
 2338 0165 56        		.byte	86
 2339 0166 31        		.byte	49
 2340 0167 2D        		.byte	45
 2341 0168 34        		.byte	52
 2342 0169 00        		.byte	0
 2345               	BUTTTAG_Author:
 2346 016a 40        		.byte	64
 2347 016b 28        		.byte	40
 2348 016c 23        		.byte	35
 2349 016d 29        		.byte	41
 2350 016e 4259 2044 		.string	"BY DEAN CAMERA"
 2350      4541 4E20 
 2350      4341 4D45 
 2350      5241 00
 2353               	BUTTTAG_Copyright:
 2354 017d 40        		.byte	64
 2355 017e 28        		.byte	40
 2356 017f 23        		.byte	35
 2357 0180 29        		.byte	41
 2358 0181 3C43 3E20 		.string	"<C> 2006 - GPL"
 2358      3230 3036 
 2358      202D 2047 
 2358      504C 00
 2361               	Func_ISPPRGM:
 2362 0190 4156 5249 		.string	"AVRISP MODE"
 2362      5350 204D 
 2362      4F44 4500 
 2365               	Func_STOREPRGM:
 2366 019c 5354 4F52 		.string	"STORE PRGM"
 2366      4520 5052 
 2366      474D 00
 2369               	Func_PRGMAVR:
 2370 01a7 5052 4F47 		.string	"PROGRAM AVR"
 2370      5241 4D20 
 2370      4156 5200 
 2373               	Func_PRGMDATAFLASH:
 2374 01b3 4441 5441 		.string	"DATAFLASH PRGM"
 2374      464C 4153 
 2374      4820 5052 
 2374      474D 00
 2377               	Func_PRGMSTOREINFO:
 2378 01c2 4441 5441 		.string	"DATASTORE INFO"
 2378      5354 4F52 
 2378      4520 494E 
 2378      464F 00
 2381               	Func_SETTINGS:
 2382 01d1 5345 5454 		.string	"SETTINGS"
 2382      494E 4753 
 2382      00
 2385               	Func_SLEEP:
 2386 01da 534C 4545 		.string	"SLEEP MODE"
 2386      5020 4D4F 
 2386      4445 00
 2389               	SFunc_SETCONTRAST:
 2390 01e5 5345 5420 		.string	"SET CONTRAST"
 2390      434F 4E54 
 2390      5241 5354 
 2390      00
 2393               	SFunc_SETSPISPEED:
 2394 01f2 5345 5420 		.string	"SET SPI SPEED"
 2394      5350 4920 
 2394      5350 4545 
 2394      4400 
 2397               	SFunc_SETFIRMMINOR:
 2398 0200 5345 5420 		.string	"SET FIRM VERSION"
 2398      4649 524D 
 2398      2056 4552 
 2398      5349 4F4E 
 2398      00
 2401               	SFunc_SETAUTOSLEEPTO:
 2402 0211 5345 5420 		.string	"SET SLEEP TIMEOUT"
 2402      534C 4545 
 2402      5020 5449 
 2402      4D45 4F55 
 2402      5400 
 2405               	SFunc_CLEARMEM:
 2406 0223 434C 4541 		.string	"CLEAR MEMORY"
 2406      5220 4D45 
 2406      4D4F 5259 
 2406      00
 2409               	SFunc_GOBOOTLOADER:
 2410 0230 4A55 4D50 		.string	"JUMP TO BOOTLOADER"
 2410      2054 4F20 
 2410      424F 4F54 
 2410      4C4F 4144 
 2410      4552 00
 2413               	PRG_A:
 2414 0243 5052 474D 		.string	"PRGM ALL"
 2414      2041 4C4C 
 2414      00
 2417               	PRG_D:
 2418 024c 4441 5441 		.string	"DATA ONLY"
 2418      204F 4E4C 
 2418      5900 
 2421               	PRG_E:
 2422 0256 4545 5052 		.string	"EEPROM ONLY"
 2422      4F4D 204F 
 2422      4E4C 5900 
 2425               	PRG_DE:
 2426 0262 4441 5441 		.string	"DATA AND EEPROM"
 2426      2041 4E44 
 2426      2045 4550 
 2426      524F 4D00 
 2429               	PRG_F:
 2430 0272 4655 5345 		.string	"FUSE BYTES ONLY"
 2430      2042 5954 
 2430      4553 204F 
 2430      4E4C 5900 
 2433               	PRG_L:
 2434 0282 4C4F 434B 		.string	"LOCK BYTES ONLY"
 2434      2042 5954 
 2434      4553 204F 
 2434      4E4C 5900 
 2437               	PRG_FL:
 2438 0292 4655 5345 		.string	"FUSE AND LOCK BYTES"
 2438      2041 4E44 
 2438      204C 4F43 
 2438      4B20 4259 
 2438      5445 5300 
 2441               	PRG_C:
 2442 02a6 4552 4153 		.string	"ERASE ONLY"
 2442      4520 4F4E 
 2442      4C59 00
 2612               	.Letext0:
DEFINED SYMBOLS
                            *ABS*:00000000 Main.c
C:\DOCUME~1\Dean\LOCALS~1\Temp/ccYtaaaa.s:3      *ABS*:0000003f __SREG__
C:\DOCUME~1\Dean\LOCALS~1\Temp/ccYtaaaa.s:4      *ABS*:0000003e __SP_H__
C:\DOCUME~1\Dean\LOCALS~1\Temp/ccYtaaaa.s:5      *ABS*:0000003d __SP_L__
C:\DOCUME~1\Dean\LOCALS~1\Temp/ccYtaaaa.s:6      *ABS*:00000000 __tmp_reg__
C:\DOCUME~1\Dean\LOCALS~1\Temp/ccYtaaaa.s:7      *ABS*:00000001 __zero_reg__
C:\DOCUME~1\Dean\LOCALS~1\Temp/ccYtaaaa.s:19     .text:00000000 MAIN_Delay10MS
C:\DOCUME~1\Dean\LOCALS~1\Temp/ccYtaaaa.s:57     .text:00000014 MAIN_ResetCSLine
C:\DOCUME~1\Dean\LOCALS~1\Temp/ccYtaaaa.s:2328   .eeprom:00000000 EEPROMVars
C:\DOCUME~1\Dean\LOCALS~1\Temp/ccYtaaaa.s:117    .text:00000042 MAIN_WaitForJoyRelease
C:\DOCUME~1\Dean\LOCALS~1\Temp/ccYtaaaa.s:141    .text:00000056 MAIN_IntToStr
C:\DOCUME~1\Dean\LOCALS~1\Temp/ccYtaaaa.s:205    .text:00000094 __vector_3
C:\DOCUME~1\Dean\LOCALS~1\Temp/ccYtaaaa.s:245    .text:000000d2 FUNCSleepMode
C:\DOCUME~1\Dean\LOCALS~1\Temp/ccYtaaaa.s:289    .text:00000106 FUNCGoBootloader
C:\DOCUME~1\Dean\LOCALS~1\Temp/ccYtaaaa.s:2255   .progmem.data:000000ad __c.2465
C:\DOCUME~1\Dean\LOCALS~1\Temp/ccYtaaaa.s:323    .text:00000126 FUNCChangeSettings
C:\DOCUME~1\Dean\LOCALS~1\Temp/ccYtaaaa.s:2222   .progmem.data:0000004b SettingFunctionPtrs
C:\DOCUME~1\Dean\LOCALS~1\Temp/ccYtaaaa.s:2213   .progmem.data:0000003f SettingFunctionNames
C:\DOCUME~1\Dean\LOCALS~1\Temp/ccYtaaaa.s:421    .text:00000190 FUNCSetAutoSleepTimeOut
C:\DOCUME~1\Dean\LOCALS~1\Temp/ccYtaaaa.s:2267   .progmem.data:000000ca __c.2378
C:\DOCUME~1\Dean\LOCALS~1\Temp/ccYtaaaa.s:2263   .progmem.data:000000c6 __c.2380
C:\DOCUME~1\Dean\LOCALS~1\Temp/ccYtaaaa.s:578    .text:00000254 MAIN_ShowError
C:\DOCUME~1\Dean\LOCALS~1\Temp/ccYtaaaa.s:634    .text:000002a0 FUNCStorageInfo
C:\DOCUME~1\Dean\LOCALS~1\Temp/ccYtaaaa.s:2259   .progmem.data:000000b7 __c.2434
C:\DOCUME~1\Dean\LOCALS~1\Temp/ccYtaaaa.s:2249   .progmem.data:0000008f SIFONames
C:\DOCUME~1\Dean\LOCALS~1\Temp/ccYtaaaa.s:738    .text:00000344 MAIN_ShowProgType
C:\DOCUME~1\Dean\LOCALS~1\Temp/ccYtaaaa.s:2323   .progmem.data:0000015a __c.2023
C:\DOCUME~1\Dean\LOCALS~1\Temp/ccYtaaaa.s:790    .text:00000390 FUNCStoreProgram
C:\DOCUME~1\Dean\LOCALS~1\Temp/ccYtaaaa.s:2189   .progmem.data:0000001c WaitText
C:\DOCUME~1\Dean\LOCALS~1\Temp/ccYtaaaa.s:2287   .progmem.data:000000f1 __c.2256
C:\DOCUME~1\Dean\LOCALS~1\Temp/ccYtaaaa.s:844    .text:000003ec FUNCAVRISPMode
C:\DOCUME~1\Dean\LOCALS~1\Temp/ccYtaaaa.s:876    .text:00000416 __vector_default
C:\DOCUME~1\Dean\LOCALS~1\Temp/ccYtaaaa.s:2319   .progmem.data:00000153 __c.2073
C:\DOCUME~1\Dean\LOCALS~1\Temp/ccYtaaaa.s:912    .text:0000043a FUNCProgramDataflash
C:\DOCUME~1\Dean\LOCALS~1\Temp/ccYtaaaa.s:975    .text:00000494 FUNCProgramAVR
C:\DOCUME~1\Dean\LOCALS~1\Temp/ccYtaaaa.s:2231   .progmem.data:00000057 ProgOptions
C:\DOCUME~1\Dean\LOCALS~1\Temp/ccYtaaaa.s:2315   .progmem.data:00000146 __c.2177
C:\DOCUME~1\Dean\LOCALS~1\Temp/ccYtaaaa.s:2311   .progmem.data:0000013e __c.2179
C:\DOCUME~1\Dean\LOCALS~1\Temp/ccYtaaaa.s:2307   .progmem.data:00000134 __c.2181
C:\DOCUME~1\Dean\LOCALS~1\Temp/ccYtaaaa.s:2303   .progmem.data:00000126 __c.2183
C:\DOCUME~1\Dean\LOCALS~1\Temp/ccYtaaaa.s:2299   .progmem.data:00000118 __c.2185
C:\DOCUME~1\Dean\LOCALS~1\Temp/ccYtaaaa.s:2295   .progmem.data:00000107 __c.2187
C:\DOCUME~1\Dean\LOCALS~1\Temp/ccYtaaaa.s:2291   .progmem.data:00000100 __c.2189
C:\DOCUME~1\Dean\LOCALS~1\Temp/ccYtaaaa.s:1441   .text:0000073e main
C:\DOCUME~1\Dean\LOCALS~1\Temp/ccYtaaaa.s:2203   .progmem.data:00000031 MainFunctionPtrs
C:\DOCUME~1\Dean\LOCALS~1\Temp/ccYtaaaa.s:2182   .progmem.data:00000014 AboutTextPtrs
C:\DOCUME~1\Dean\LOCALS~1\Temp/ccYtaaaa.s:2193   .progmem.data:00000023 MainFunctionNames
C:\DOCUME~1\Dean\LOCALS~1\Temp/ccYtaaaa.s:1742   .text:0000089e FUNCClearMem
C:\DOCUME~1\Dean\LOCALS~1\Temp/ccYtaaaa.s:2283   .progmem.data:000000e9 __c.2273
C:\DOCUME~1\Dean\LOCALS~1\Temp/ccYtaaaa.s:2279   .progmem.data:000000e3 __c.2275
C:\DOCUME~1\Dean\LOCALS~1\Temp/ccYtaaaa.s:2275   .progmem.data:000000d7 __c.2283
C:\DOCUME~1\Dean\LOCALS~1\Temp/ccYtaaaa.s:1826   .text:00000904 FUNCSetContrast
C:\DOCUME~1\Dean\LOCALS~1\Temp/ccYtaaaa.s:1950   .text:0000099c FUNCSetISPSpeed
C:\DOCUME~1\Dean\LOCALS~1\Temp/ccYtaaaa.s:2242   .progmem.data:00000067 USISpeeds
C:\DOCUME~1\Dean\LOCALS~1\Temp/ccYtaaaa.s:2054   .text:00000a02 FUNCSetFirmMinorVer
C:\DOCUME~1\Dean\LOCALS~1\Temp/ccYtaaaa.s:2271   .progmem.data:000000d2 __c.2357
C:\DOCUME~1\Dean\LOCALS~1\Temp/ccYtaaaa.s:2174   .progmem.data:00000000 BUTTTAG_Title
C:\DOCUME~1\Dean\LOCALS~1\Temp/ccYtaaaa.s:2333   .progmem.data:00000161 BUTTTAG_Version
C:\DOCUME~1\Dean\LOCALS~1\Temp/ccYtaaaa.s:2345   .progmem.data:0000016a BUTTTAG_Author
C:\DOCUME~1\Dean\LOCALS~1\Temp/ccYtaaaa.s:2353   .progmem.data:0000017d BUTTTAG_Copyright
C:\DOCUME~1\Dean\LOCALS~1\Temp/ccYtaaaa.s:2361   .progmem.data:00000190 Func_ISPPRGM
C:\DOCUME~1\Dean\LOCALS~1\Temp/ccYtaaaa.s:2365   .progmem.data:0000019c Func_STOREPRGM
C:\DOCUME~1\Dean\LOCALS~1\Temp/ccYtaaaa.s:2369   .progmem.data:000001a7 Func_PRGMAVR
C:\DOCUME~1\Dean\LOCALS~1\Temp/ccYtaaaa.s:2373   .progmem.data:000001b3 Func_PRGMDATAFLASH
C:\DOCUME~1\Dean\LOCALS~1\Temp/ccYtaaaa.s:2377   .progmem.data:000001c2 Func_PRGMSTOREINFO
C:\DOCUME~1\Dean\LOCALS~1\Temp/ccYtaaaa.s:2381   .progmem.data:000001d1 Func_SETTINGS
C:\DOCUME~1\Dean\LOCALS~1\Temp/ccYtaaaa.s:2385   .progmem.data:000001da Func_SLEEP
C:\DOCUME~1\Dean\LOCALS~1\Temp/ccYtaaaa.s:2389   .progmem.data:000001e5 SFunc_SETCONTRAST
C:\DOCUME~1\Dean\LOCALS~1\Temp/ccYtaaaa.s:2393   .progmem.data:000001f2 SFunc_SETSPISPEED
C:\DOCUME~1\Dean\LOCALS~1\Temp/ccYtaaaa.s:2397   .progmem.data:00000200 SFunc_SETFIRMMINOR
C:\DOCUME~1\Dean\LOCALS~1\Temp/ccYtaaaa.s:2401   .progmem.data:00000211 SFunc_SETAUTOSLEEPTO
C:\DOCUME~1\Dean\LOCALS~1\Temp/ccYtaaaa.s:2405   .progmem.data:00000223 SFunc_CLEARMEM
C:\DOCUME~1\Dean\LOCALS~1\Temp/ccYtaaaa.s:2409   .progmem.data:00000230 SFunc_GOBOOTLOADER
C:\DOCUME~1\Dean\LOCALS~1\Temp/ccYtaaaa.s:2413   .progmem.data:00000243 PRG_A
C:\DOCUME~1\Dean\LOCALS~1\Temp/ccYtaaaa.s:2417   .progmem.data:0000024c PRG_D
C:\DOCUME~1\Dean\LOCALS~1\Temp/ccYtaaaa.s:2421   .progmem.data:00000256 PRG_E
C:\DOCUME~1\Dean\LOCALS~1\Temp/ccYtaaaa.s:2425   .progmem.data:00000262 PRG_DE
C:\DOCUME~1\Dean\LOCALS~1\Temp/ccYtaaaa.s:2429   .progmem.data:00000272 PRG_F
C:\DOCUME~1\Dean\LOCALS~1\Temp/ccYtaaaa.s:2433   .progmem.data:00000282 PRG_L
C:\DOCUME~1\Dean\LOCALS~1\Temp/ccYtaaaa.s:2437   .progmem.data:00000292 PRG_FL
C:\DOCUME~1\Dean\LOCALS~1\Temp/ccYtaaaa.s:2441   .progmem.data:000002a6 PRG_C

UNDEFINED SYMBOLS
__do_copy_data
__do_clear_bss
__eeprom_read_byte_1F2021
SleepTimeOutTicks
LCD_puts_f
strcpy_P
AutoSleepTOValues
LCD_puts
__eeprom_write_byte_1F2021
TOUT_SetupSleepTimer
SPI_SPITransmit
DFSPIRoutinePointer
SPI_SPIInit
DataflashInfo
DF_EnableDataflash
DF_CheckCorrectOnboardChip
TM_ShowTags
PM_GetStoredDataSize
PM_ShowStoredItemSizes
OSCCAL_Calibrate
PM_InterpretAVRISPPacket
V2P_RunStateMachine
AVRISPModeMessage
AICI_InterpretPacket
USI_SPIOff
USI_SPIInitMaster
USI_SPITransmit
DataFlashProgMode
PD_InterpretAVRISPPacket
PacketBytes
ISPCC_EnterChipProgrammingMode
CurrAddress
PM_SendEraseCommand
PM_CreateProgrammingPackets
PM_SendFuseLockBytes
SyncErrorMessage
LCD_Init
USART_Init
