   1               		.file	"Main.c"
   2               		.arch atmega169
   3               	__SREG__ = 0x3f
   4               	__SP_H__ = 0x3e
   5               	__SP_L__ = 0x3d
   6               	__tmp_reg__ = 0
   7               	__zero_reg__ = 1
   8               		.global __do_copy_data
   9               		.global __do_clear_bss
  17               	.Ltext0:
  18               	.global	MAIN_Delay10MS
  20               	MAIN_Delay10MS:
  21               	.LFB15:
  22               	.LM1:
  23               	/* prologue: frame size=0 */
  24               	/* prologue end (size=0) */
  25               	.LVL0:
  26 0000 282F      		mov r18,r24
  27 0002 E0E0      		ldi r30,lo8(18432)
  28 0004 F8E4      		ldi r31,hi8(18432)
  29 0006 00C0      		rjmp .L2
  30               	.LVL1:
  31               	.L3:
  32               	.LBB14:
  33               	.LBB15:
  34               	.LBB16:
  35               	.LBB17:
  36               	.LM2:
  37 0008 CF01      		movw r24,r30
  38               	/* #APP */
  39 000a 0197      		1: sbiw r24,1
  40 000c 01F4      		brne 1b
  41               	.LVL2:
  42               	/* #NOAPP */
  43               	.L2:
  44               	.LBE17:
  45               	.LBE16:
  46               	.LBE15:
  47               	.LBE14:
  48               	.LM3:
  49 000e 2150      		subi r18,1
  50 0010 00F4      		brcc .L3
  51               	/* epilogue: frame size=0 */
  52 0012 0895      		ret
  53               	/* epilogue end (size=1) */
  54               	/* function MAIN_Delay10MS size 11 (10) */
  55               	.LFE15:
  57               	.global	MAIN_Delay1MS
  59               	MAIN_Delay1MS:
  60               	.LFB16:
  61               	.LM4:
  62               	/* prologue: frame size=0 */
  63               	/* prologue end (size=0) */
  64               	.LVL3:
  65 0014 282F      		mov r18,r24
  66 0016 E3E3      		ldi r30,lo8(1843)
  67 0018 F7E0      		ldi r31,hi8(1843)
  68 001a 00C0      		rjmp .L7
  69               	.LVL4:
  70               	.L8:
  71               	.LBB22:
  72               	.LBB23:
  73               	.LBB24:
  74               	.LBB25:
  75               	.LM5:
  76 001c CF01      		movw r24,r30
  77               	/* #APP */
  78 001e 0197      		1: sbiw r24,1
  79 0020 01F4      		brne 1b
  80               	.LVL5:
  81               	/* #NOAPP */
  82               	.L7:
  83               	.LBE25:
  84               	.LBE24:
  85               	.LBE23:
  86               	.LBE22:
  87               	.LM6:
  88 0022 2150      		subi r18,1
  89 0024 00F4      		brcc .L8
  90               	/* epilogue: frame size=0 */
  91 0026 0895      		ret
  92               	/* epilogue end (size=1) */
  93               	/* function MAIN_Delay1MS size 11 (10) */
  94               	.LFE16:
  96               	.global	MAIN_ResetCSLine
  98               	MAIN_ResetCSLine:
  99               	.LFB17:
 100               	.LM7:
 101               	/* prologue: frame size=0 */
 102               	/* prologue end (size=0) */
 103               	.LVL6:
 104               	.LM8:
 105 0028 8130      		cpi r24,lo8(1)
 106 002a 01F0      		breq .L14
 107               	.LM9:
 108 002c 8130      		cpi r24,lo8(1)
 109 002e 00F0      		brlo .L13
 110 0030 8230      		cpi r24,lo8(2)
 111 0032 01F4      		brne .L22
 112 0034 00C0      		rjmp .L15
 113               	.L13:
 114               	.LM10:
 115 0036 869A      		sbi 48-0x20,6
 116               	.LBB26:
 117               	.LBB27:
 118               	.LM11:
 119 0038 A0E0      		ldi r26,lo8(EEPROMVars+1)
 120 003a B0E0      		ldi r27,hi8(EEPROMVars+1)
 121               	/* #APP */
 122 003c 0E94 0000 		call __eeprom_read_byte_1F2021
 123 0040 802D      		mov r24,__tmp_reg__
 124               	.LVL7:
 125               	/* #NOAPP */
 126               	.LBE27:
 127               	.LBE26:
 128               	.LM12:
 129 0042 8823      		tst r24
 130 0044 01F4      		brne .L23
 131 0046 00C0      		rjmp .L24
 132               	.LVL8:
 133               	.L15:
 134               	.LM13:
 135 0048 869A      		sbi 48-0x20,6
 136 004a 00C0      		rjmp .L23
 137               	.L14:
 138               	.LBB28:
 139               	.LBB29:
 140               	.LM14:
 141 004c A0E0      		ldi r26,lo8(EEPROMVars+140)
 142 004e B0E0      		ldi r27,hi8(EEPROMVars+140)
 143               	/* #APP */
 144 0050 0E94 0000 		call __eeprom_read_byte_1F2021
 145 0054 802D      		mov r24,__tmp_reg__
 146               	.LVL9:
 147               	/* #NOAPP */
 148               	.LBE29:
 149               	.LBE28:
 150               	.LM15:
 151 0056 8823      		tst r24
 152 0058 01F0      		breq .L18
 153               	.LM16:
 154 005a 8698      		cbi 48-0x20,6
 155               	.LVL10:
 156               	.L23:
 157               	.LM17:
 158 005c 8E98      		cbi 49-0x20,6
 159 005e 0895      		ret
 160               	.LVL11:
 161               	.L18:
 162               	.LBB30:
 163               	.LBB31:
 164               	.LM18:
 165 0060 A0E0      		ldi r26,lo8(EEPROMVars+1)
 166 0062 B0E0      		ldi r27,hi8(EEPROMVars+1)
 167               	.LVL12:
 168               	/* #APP */
 169 0064 0E94 0000 		call __eeprom_read_byte_1F2021
 170 0068 802D      		mov r24,__tmp_reg__
 171               	.LVL13:
 172               	/* #NOAPP */
 173               	.LBE31:
 174               	.LBE30:
 175               	.LM19:
 176 006a 8823      		tst r24
 177 006c 01F0      		breq .L20
 178               	.LVL14:
 179               	.L24:
 180               	.LM20:
 181 006e 8E9A      		sbi 49-0x20,6
 182 0070 0895      		ret
 183               	.LVL15:
 184               	.L20:
 185               	.LM21:
 186 0072 8E98      		cbi 49-0x20,6
 187               	.LVL16:
 188               	.L22:
 189 0074 0895      		ret
 190               	/* epilogue: frame size=0 */
 191               	/* epilogue: noreturn */
 192               	/* epilogue end (size=0) */
 193               	/* function MAIN_ResetCSLine size 42 (42) */
 194               	.LFE17:
 196               	.global	MAIN_WaitForJoyRelease
 198               	MAIN_WaitForJoyRelease:
 199               	.LFB18:
 200               	.LM22:
 201               	/* prologue: frame size=0 */
 202               	/* prologue end (size=0) */
 203               	.LM23:
 204 0076 8EB3      		in r24,62-0x20
 205 0078 8130      		cpi r24,lo8(1)
 206 007a 01F4      		brne .L37
 207               	.LM24:
 208 007c 1EBA      		out 62-0x20,__zero_reg__
 209 007e 0895      		ret
 210               	.L37:
 211               	.LM25:
 212 0080 8EB3      		in r24,62-0x20
 213 0082 8823      		tst r24
 214 0084 01F4      		brne .L37
 215               	.LM26:
 216 0086 82E0      		ldi r24,lo8(2)
 217 0088 0E94 0000 		call MAIN_Delay10MS
 218               	.LM27:
 219 008c 8EB3      		in r24,62-0x20
 220 008e 8823      		tst r24
 221 0090 01F4      		brne .L37
 222 0092 0895      		ret
 223               	/* epilogue: frame size=0 */
 224               	/* epilogue: noreturn */
 225               	/* epilogue end (size=0) */
 226               	/* function MAIN_WaitForJoyRelease size 15 (15) */
 227               	.LFE18:
 229               	.global	MAIN_IntToStr
 231               	MAIN_IntToStr:
 232               	.LFB19:
 233               	.LM28:
 234               	/* prologue: frame size=0 */
 235 0094 CF93      		push r28
 236 0096 DF93      		push r29
 237               	/* prologue end (size=2) */
 238               	.LVL17:
 239 0098 FB01      		movw r30,r22
 240 009a 20E0      		ldi r18,lo8(0)
 241               	.LVL18:
 242 009c 00C0      		rjmp .L39
 243               	.LVL19:
 244               	.L40:
 245               	.LM29:
 246 009e 2F5F      		subi r18,lo8(-(1))
 247               	.LM30:
 248 00a0 8456      		subi r24,lo8(-(-100))
 249 00a2 9040      		sbci r25,hi8(-(-100))
 250               	.L39:
 251               	.LM31:
 252 00a4 8436      		cpi r24,100
 253 00a6 9105      		cpc r25,__zero_reg__
 254 00a8 00F4      		brsh .L40
 255               	.LM32:
 256 00aa 205D      		subi r18,lo8(-(48))
 257 00ac 2193      		st Z+,r18
 258 00ae DF01      		movw r26,r30
 259               	.LVL20:
 260 00b0 20E0      		ldi r18,lo8(0)
 261               	.LVL21:
 262 00b2 00C0      		rjmp .L42
 263               	.L43:
 264               	.LM33:
 265 00b4 2F5F      		subi r18,lo8(-(1))
 266               	.LM34:
 267 00b6 0A97      		sbiw r24,10
 268               	.L42:
 269               	.LM35:
 270 00b8 8A30      		cpi r24,10
 271 00ba 9105      		cpc r25,__zero_reg__
 272 00bc 00F4      		brsh .L43
 273               	.LM36:
 274 00be 205D      		subi r18,lo8(-(48))
 275 00c0 FD01      		movw r30,r26
 276               	.LVL22:
 277 00c2 2193      		st Z+,r18
 278               	.LM37:
 279 00c4 805D      		subi r24,lo8(-(48))
 280               	.LVL23:
 281 00c6 ED01      		movw r28,r26
 282 00c8 8983      		std Y+1,r24
 283               	.LM38:
 284 00ca 1182      		std Z+1,__zero_reg__
 285               	/* epilogue: frame size=0 */
 286 00cc DF91      		pop r29
 287 00ce CF91      		pop r28
 288 00d0 0895      		ret
 289               	/* epilogue end (size=3) */
 290               	/* function MAIN_IntToStr size 31 (26) */
 291               	.LFE19:
 293               	.global	__vector_3
 295               	__vector_3:
 296               	.LFB23:
 297               	.LM39:
 298               	/* prologue: frame size=0 */
 299 00d2 7894      		sei
 300 00d4 1F92      		push __zero_reg__
 301 00d6 0F92      		push __tmp_reg__
 302 00d8 0FB6      		in __tmp_reg__,__SREG__
 303 00da 0F92      		push __tmp_reg__
 304 00dc 1124      		clr __zero_reg__
 305 00de 8F93      		push r24
 306 00e0 9F93      		push r25
 307               	/* prologue end (size=8) */
 308               	.LM40:
 309 00e2 83B1      		in r24,35-0x20
 310 00e4 9CB1      		in r25,44-0x20
 311 00e6 8095      		com r24
 312 00e8 807D      		andi r24,lo8(-48)
 313 00ea 9095      		com r25
 314 00ec 9C70      		andi r25,lo8(12)
 315 00ee 892B      		or r24,r25
 316 00f0 8EBB      		out 62-0x20,r24
 317               	.LM41:
 318 00f2 1092 0000 		sts (SleepTimeOutTicks)+1,__zero_reg__
 319 00f6 1092 0000 		sts SleepTimeOutTicks,__zero_reg__
 320 00fa 1092 8500 		sts (132)+1,__zero_reg__
 321 00fe 1092 8400 		sts 132,__zero_reg__
 322               	/* epilogue: frame size=0 */
 323 0102 9F91      		pop r25
 324 0104 8F91      		pop r24
 325 0106 0F90      		pop __tmp_reg__
 326 0108 0FBE      		out __SREG__,__tmp_reg__
 327 010a 0F90      		pop __tmp_reg__
 328 010c 1F90      		pop __zero_reg__
 329 010e 1895      		reti
 330               	/* epilogue end (size=7) */
 331               	/* function __vector_3 size 31 (16) */
 332               	.LFE23:
 334               	.global	FUNCSleepMode
 336               	FUNCSleepMode:
 337               	.LFB37:
 338               	.LM42:
 339               	/* prologue: frame size=0 */
 340               	/* prologue end (size=0) */
 341               	.LM43:
 342 0110 85E0      		ldi r24,lo8(5)
 343 0112 83BF      		out 83-0x20,r24
 344               	.LM44:
 345 0114 8091 E400 		lds r24,228
 346 0118 8F77      		andi r24,lo8(127)
 347 011a 8093 E400 		sts 228,r24
 348               	.LM45:
 349 011e 81B3      		in r24,49-0x20
 350 0120 8F7C      		andi r24,lo8(-49)
 351 0122 81BB      		out 49-0x20,r24
 352 0124 00C0      		rjmp .L49
 353               	.L50:
 354               	.LM46:
 355               	/* #APP */
 356 0126 8895      		sleep
 357               	/* #NOAPP */
 358               	.L49:
 359               	.LM47:
 360 0128 F69B      		sbis 62-0x20,6
 361 012a 00C0      		rjmp .L50
 362               	.LM48:
 363 012c 81B3      		in r24,49-0x20
 364 012e 8F7C      		andi r24,lo8(-49)
 365 0130 8061      		ori r24,lo8(16)
 366 0132 81BB      		out 49-0x20,r24
 367               	.LM49:
 368 0134 8091 E400 		lds r24,228
 369 0138 8068      		ori r24,lo8(-128)
 370 013a 8093 E400 		sts 228,r24
 371               	.LM50:
 372 013e 0E94 0000 		call MAIN_WaitForJoyRelease
 373               	/* epilogue: frame size=0 */
 374 0142 0895      		ret
 375               	/* epilogue end (size=1) */
 376               	/* function FUNCSleepMode size 27 (26) */
 377               	.LFE37:
 379               	.global	FUNCGoBootloader
 381               	FUNCGoBootloader:
 382               	.LFB39:
 383               	.LM51:
 384               	/* prologue: frame size=0 */
 385               	/* prologue end (size=0) */
 386               	.LM52:
 387 0144 85B7      		in r24,85-0x20
 388               	.LVL24:
 389 0146 8F77      		andi r24,lo8(127)
 390               	.LM53:
 391 0148 85BF      		out 85-0x20,r24
 392               	.LM54:
 393 014a 85BF      		out 85-0x20,r24
 394               	.LM55:
 395 014c 1092 8100 		sts 129,__zero_reg__
 396               	.LM56:
 397 0150 80E0      		ldi r24,lo8(__c.2510)
 398 0152 90E0      		ldi r25,hi8(__c.2510)
 399               	.LVL25:
 400 0154 0E94 0000 		call LCD_puts_f
 401               	.LM57:
 402 0158 0E94 0000 		call MAIN_WaitForJoyRelease
 403               	.LM58:
 404 015c 88E1      		ldi r24,lo8(24)
 405 015e 8093 6000 		sts 96,r24
 406               	.L54:
 407 0162 00C0      		rjmp .L54
 408               	/* epilogue: frame size=0 */
 409               	/* epilogue: noreturn */
 410               	/* epilogue end (size=0) */
 411               	/* function FUNCGoBootloader size 16 (16) */
 412               	.LFE39:
 414               	.global	FUNCShowAbout
 416               	FUNCShowAbout:
 417               	.LFB26:
 418               	.LM59:
 419               	/* prologue: frame size=0 */
 420 0164 1F93      		push r17
 421               	/* prologue end (size=1) */
 422               	.LM60:
 423 0166 81E0      		ldi r24,lo8(1)
 424 0168 8EBB      		out 62-0x20,r24
 425 016a 10E0      		ldi r17,lo8(0)
 426               	.LVL26:
 427               	.L75:
 428               	.LM61:
 429 016c 8EB3      		in r24,62-0x20
 430 016e 8823      		tst r24
 431 0170 01F0      		breq .L75
 432               	.LM62:
 433 0172 F69B      		sbis 62-0x20,6
 434 0174 00C0      		rjmp .L59
 435               	.LM63:
 436 0176 1123      		tst r17
 437 0178 01F4      		brne .L61
 438 017a 13E0      		ldi r17,lo8(3)
 439 017c 00C0      		rjmp .L63
 440               	.L61:
 441 017e 1150      		subi r17,lo8(-(-1))
 442 0180 00C0      		rjmp .L63
 443               	.L59:
 444               	.LM64:
 445 0182 F79B      		sbis 62-0x20,7
 446 0184 00C0      		rjmp .L64
 447               	.LM65:
 448 0186 1330      		cpi r17,lo8(3)
 449 0188 01F4      		brne .L66
 450 018a 10E0      		ldi r17,lo8(0)
 451 018c 00C0      		rjmp .L63
 452               	.L66:
 453 018e 1F5F      		subi r17,lo8(-(1))
 454 0190 00C0      		rjmp .L63
 455               	.L64:
 456               	.LM66:
 457 0192 F299      		sbic 62-0x20,2
 458 0194 00C0      		rjmp .L69
 459               	.L63:
 460               	.LBB32:
 461               	.LM67:
 462 0196 E12F      		mov r30,r17
 463 0198 FF27      		clr r31
 464               	.LVL27:
 465 019a EE0F      		lsl r30
 466 019c FF1F      		rol r31
 467 019e E050      		subi r30,lo8(-(AboutTextPtrs))
 468 01a0 F040      		sbci r31,hi8(-(AboutTextPtrs))
 469               	.LBE32:
 470               	/* #APP */
 471 01a2 8591      		lpm r24, Z+
 472 01a4 9491      		lpm r25, Z
 473               		
 474               	.LVL28:
 475               	/* #NOAPP */
 476 01a6 0E94 0000 		call LCD_puts_f
 477               	.LVL29:
 478               	.LM68:
 479 01aa 0E94 0000 		call MAIN_WaitForJoyRelease
 480 01ae 00C0      		rjmp .L75
 481               	.L69:
 482               	/* epilogue: frame size=0 */
 483 01b0 1F91      		pop r17
 484 01b2 0895      		ret
 485               	/* epilogue end (size=2) */
 486               	/* function FUNCShowAbout size 44 (41) */
 487               	.LFE26:
 489               	.global	FUNCChangeSettings
 491               	FUNCChangeSettings:
 492               	.LFB25:
 493               	.LM69:
 494               	/* prologue: frame size=0 */
 495 01b4 1F93      		push r17
 496               	/* prologue end (size=1) */
 497               	.LM70:
 498 01b6 81E0      		ldi r24,lo8(1)
 499 01b8 8EBB      		out 62-0x20,r24
 500 01ba 10E0      		ldi r17,lo8(0)
 501               	.LVL30:
 502               	.L97:
 503               	.LM71:
 504 01bc 8EB3      		in r24,62-0x20
 505 01be 8823      		tst r24
 506 01c0 01F0      		breq .L97
 507               	.LM72:
 508 01c2 F69B      		sbis 62-0x20,6
 509 01c4 00C0      		rjmp .L79
 510               	.LM73:
 511 01c6 1123      		tst r17
 512 01c8 01F4      		brne .L81
 513 01ca 16E0      		ldi r17,lo8(6)
 514 01cc 00C0      		rjmp .L83
 515               	.L81:
 516 01ce 1150      		subi r17,lo8(-(-1))
 517 01d0 00C0      		rjmp .L83
 518               	.L79:
 519               	.LM74:
 520 01d2 F79B      		sbis 62-0x20,7
 521 01d4 00C0      		rjmp .L84
 522               	.LM75:
 523 01d6 1630      		cpi r17,lo8(6)
 524 01d8 01F4      		brne .L86
 525 01da 10E0      		ldi r17,lo8(0)
 526 01dc 00C0      		rjmp .L83
 527               	.L86:
 528 01de 1F5F      		subi r17,lo8(-(1))
 529 01e0 00C0      		rjmp .L83
 530               	.L84:
 531               	.LM76:
 532 01e2 F49B      		sbis 62-0x20,4
 533 01e4 00C0      		rjmp .L88
 534               	.LBB33:
 535               	.LM77:
 536 01e6 E12F      		mov r30,r17
 537 01e8 FF27      		clr r31
 538               	.LVL31:
 539 01ea EE0F      		lsl r30
 540 01ec FF1F      		rol r31
 541 01ee E050      		subi r30,lo8(-(SettingFunctionPtrs))
 542 01f0 F040      		sbci r31,hi8(-(SettingFunctionPtrs))
 543               	/* #APP */
 544 01f2 8591      		lpm r24, Z+
 545 01f4 9491      		lpm r25, Z
 546               		
 547               	.LVL32:
 548               	/* #NOAPP */
 549               	.LBE33:
 550 01f6 FC01      		movw r30,r24
 551 01f8 0995      		icall
 552               	.LVL33:
 553 01fa 00C0      		rjmp .L83
 554               	.L88:
 555               	.LM78:
 556 01fc F299      		sbic 62-0x20,2
 557 01fe 00C0      		rjmp .L91
 558               	.L83:
 559               	.LBB34:
 560               	.LM79:
 561 0200 E12F      		mov r30,r17
 562 0202 FF27      		clr r31
 563               	.LVL34:
 564 0204 EE0F      		lsl r30
 565 0206 FF1F      		rol r31
 566 0208 E050      		subi r30,lo8(-(SettingFunctionNames))
 567 020a F040      		sbci r31,hi8(-(SettingFunctionNames))
 568               	.LBE34:
 569               	/* #APP */
 570 020c 8591      		lpm r24, Z+
 571 020e 9491      		lpm r25, Z
 572               		
 573               	.LVL35:
 574               	/* #NOAPP */
 575 0210 0E94 0000 		call LCD_puts_f
 576               	.LVL36:
 577               	.LM80:
 578 0214 0E94 0000 		call MAIN_WaitForJoyRelease
 579 0218 00C0      		rjmp .L97
 580               	.L91:
 581               	/* epilogue: frame size=0 */
 582 021a 1F91      		pop r17
 583 021c 0895      		ret
 584               	/* epilogue end (size=2) */
 585               	/* function FUNCChangeSettings size 61 (58) */
 586               	.LFE25:
 588               	.global	FUNCSetAutoSleepTimeOut
 590               	FUNCSetAutoSleepTimeOut:
 591               	.LFB36:
 592               	.LM81:
 593               	/* prologue: frame size=8 */
 594 021e EF92      		push r14
 595 0220 FF92      		push r15
 596 0222 0F93      		push r16
 597 0224 CF93      		push r28
 598 0226 DF93      		push r29
 599 0228 CDB7      		in r28,__SP_L__
 600 022a DEB7      		in r29,__SP_H__
 601 022c 2897      		sbiw r28,8
 602 022e 0FB6      		in __tmp_reg__,__SREG__
 603 0230 F894      		cli
 604 0232 DEBF      		out __SP_H__,r29
 605 0234 0FBE      		out __SREG__,__tmp_reg__
 606 0236 CDBF      		out __SP_L__,r28
 607               	/* prologue end (size=13) */
 608               	.LBB42:
 609               	.LBB43:
 610               	.LM82:
 611 0238 A0E0      		ldi r26,lo8(EEPROMVars+139)
 612 023a B0E0      		ldi r27,hi8(EEPROMVars+139)
 613               	/* #APP */
 614 023c 0E94 0000 		call __eeprom_read_byte_1F2021
 615 0240 802D      		mov r24,__tmp_reg__
 616               	.LVL37:
 617               	/* #NOAPP */
 618               	.LBE43:
 619               	.LBE42:
 620               	.LM83:
 621 0242 082F      		mov r16,r24
 622               	.LVL38:
 623 0244 8530      		cpi r24,lo8(5)
 624 0246 00F0      		brlo .L99
 625               	.LVL39:
 626               	.LM84:
 627 0248 04E0      		ldi r16,lo8(4)
 628               	.L99:
 629               	.LM85:
 630 024a 60E0      		ldi r22,lo8(__c.2423)
 631 024c 70E0      		ldi r23,hi8(__c.2423)
 632 024e CE01      		movw r24,r28
 633               	.LVL40:
 634 0250 0196      		adiw r24,1
 635 0252 0E94 0000 		call strcpy_P
 636               	.LVL41:
 637               	.LM86:
 638 0256 81E0      		ldi r24,lo8(1)
 639 0258 8EBB      		out 62-0x20,r24
 640               	.L122:
 641               	.LM87:
 642 025a 8EB3      		in r24,62-0x20
 643 025c 8823      		tst r24
 644 025e 01F0      		breq .L122
 645               	.LM88:
 646 0260 F69B      		sbis 62-0x20,6
 647 0262 00C0      		rjmp .L102
 648               	.LM89:
 649 0264 0023      		tst r16
 650 0266 01F4      		brne .L104
 651 0268 04E0      		ldi r16,lo8(4)
 652 026a 00C0      		rjmp .L102
 653               	.L104:
 654 026c 0150      		subi r16,lo8(-(-1))
 655               	.L102:
 656               	.LM90:
 657 026e F79B      		sbis 62-0x20,7
 658 0270 00C0      		rjmp .L106
 659               	.LM91:
 660 0272 0430      		cpi r16,lo8(4)
 661 0274 01F4      		brne .L108
 662 0276 00E0      		ldi r16,lo8(0)
 663 0278 00C0      		rjmp .L110
 664               	.L108:
 665 027a 0F5F      		subi r16,lo8(-(1))
 666 027c 00C0      		rjmp .L111
 667               	.L106:
 668               	.LM92:
 669 027e F299      		sbic 62-0x20,2
 670 0280 00C0      		rjmp .L121
 671               	.L111:
 672               	.LM93:
 673 0282 0023      		tst r16
 674 0284 01F4      		brne .L113
 675               	.L110:
 676               	.LM94:
 677 0286 80E0      		ldi r24,lo8(__c.2425)
 678 0288 90E0      		ldi r25,hi8(__c.2425)
 679 028a 0E94 0000 		call LCD_puts_f
 680 028e 00C0      		rjmp .L114
 681               	.L113:
 682               	.LBB44:
 683               	.LM95:
 684 0290 E02F      		mov r30,r16
 685 0292 FF27      		clr r31
 686 0294 E050      		subi r30,lo8(-(AutoSleepTOValues))
 687 0296 F040      		sbci r31,hi8(-(AutoSleepTOValues))
 688               	/* #APP */
 689 0298 E491      		lpm r30, Z
 690               		
 691               	.LVL42:
 692               	/* #NOAPP */
 693               	.LBE44:
 694 029a 7E01      		movw r14,r28
 695 029c 0894      		sec
 696 029e E11C      		adc r14,__zero_reg__
 697 02a0 F11C      		adc r15,__zero_reg__
 698 02a2 B701      		movw r22,r14
 699 02a4 8E2F      		mov r24,r30
 700 02a6 9927      		clr r25
 701 02a8 0E94 0000 		call MAIN_IntToStr
 702               	.LVL43:
 703               	.LM96:
 704 02ac 80E2      		ldi r24,lo8(32)
 705 02ae 8C83      		std Y+4,r24
 706               	.LM97:
 707 02b0 C701      		movw r24,r14
 708 02b2 0E94 0000 		call LCD_puts
 709               	.L114:
 710               	.LM98:
 711 02b6 0E94 0000 		call MAIN_WaitForJoyRelease
 712 02ba 00C0      		rjmp .L122
 713               	.L121:
 714               	.LBB45:
 715               	.LBB46:
 716               	.LM99:
 717 02bc A0E0      		ldi r26,lo8(EEPROMVars+139)
 718 02be B0E0      		ldi r27,hi8(EEPROMVars+139)
 719               	/* #APP */
 720 02c0 002E      		mov __tmp_reg__,r16
 721 02c2 0E94 0000 		call __eeprom_write_byte_1F2021
 722               	.LVL44:
 723               	/* #NOAPP */
 724               	.LBE46:
 725               	.LBE45:
 726               	.LM100:
 727 02c6 0E94 0000 		call TOUT_SetupSleepTimer
 728               	.LVL45:
 729               	/* epilogue: frame size=8 */
 730 02ca 2896      		adiw r28,8
 731 02cc 0FB6      		in __tmp_reg__,__SREG__
 732 02ce F894      		cli
 733 02d0 DEBF      		out __SP_H__,r29
 734 02d2 0FBE      		out __SREG__,__tmp_reg__
 735 02d4 CDBF      		out __SP_L__,r28
 736 02d6 DF91      		pop r29
 737 02d8 CF91      		pop r28
 738 02da 0F91      		pop r16
 739 02dc FF90      		pop r15
 740 02de EF90      		pop r14
 741 02e0 0895      		ret
 742               	/* epilogue end (size=12) */
 743               	/* function FUNCSetAutoSleepTimeOut size 103 (78) */
 744               	.LFE36:
 746               	.global	MAIN_ShowError
 748               	MAIN_ShowError:
 749               	.LFB21:
 750               	.LM101:
 751               	/* prologue: frame size=20 */
 752 02e2 CF93      		push r28
 753 02e4 DF93      		push r29
 754 02e6 CDB7      		in r28,__SP_L__
 755 02e8 DEB7      		in r29,__SP_H__
 756 02ea 6497      		sbiw r28,20
 757 02ec 0FB6      		in __tmp_reg__,__SREG__
 758 02ee F894      		cli
 759 02f0 DEBF      		out __SP_H__,r29
 760 02f2 0FBE      		out __SREG__,__tmp_reg__
 761 02f4 CDBF      		out __SP_L__,r28
 762               	/* prologue end (size=10) */
 763               	.LVL46:
 764               	.LM102:
 765 02f6 25E4      		ldi r18,lo8(69)
 766 02f8 2983      		std Y+1,r18
 767               	.LM103:
 768 02fa 2EE3      		ldi r18,lo8(62)
 769 02fc 2A83      		std Y+2,r18
 770               	.LM104:
 771 02fe BC01      		movw r22,r24
 772 0300 CE01      		movw r24,r28
 773               	.LVL47:
 774 0302 0396      		adiw r24,3
 775 0304 0E94 0000 		call strcpy_P
 776               	.LVL48:
 777               	.LM105:
 778 0308 CE01      		movw r24,r28
 779 030a 0196      		adiw r24,1
 780 030c 0E94 0000 		call LCD_puts
 781               	.LM106:
 782 0310 0E94 0000 		call MAIN_WaitForJoyRelease
 783               	.L124:
 784               	.LM107:
 785 0314 F49B      		sbis 62-0x20,4
 786 0316 00C0      		rjmp .L124
 787               	.LM108:
 788 0318 0E94 0000 		call MAIN_WaitForJoyRelease
 789               	/* epilogue: frame size=20 */
 790 031c 6496      		adiw r28,20
 791 031e 0FB6      		in __tmp_reg__,__SREG__
 792 0320 F894      		cli
 793 0322 DEBF      		out __SP_H__,r29
 794 0324 0FBE      		out __SREG__,__tmp_reg__
 795 0326 CDBF      		out __SP_L__,r28
 796 0328 DF91      		pop r29
 797 032a CF91      		pop r28
 798 032c 0895      		ret
 799               	/* epilogue end (size=9) */
 800               	/* function MAIN_ShowError size 38 (19) */
 801               	.LFE21:
 803               	.global	FUNCStorageInfo
 805               	FUNCStorageInfo:
 806               	.LFB38:
 807               	.LM109:
 808               	/* prologue: frame size=0 */
 809 032e 1F93      		push r17
 810               	/* prologue end (size=1) */
 811               	.LM110:
 812 0330 0E94 0000 		call MAIN_WaitForJoyRelease
 813               	.LM111:
 814 0334 81E0      		ldi r24,lo8(1)
 815 0336 8EBB      		out 62-0x20,r24
 816 0338 10E0      		ldi r17,lo8(0)
 817               	.LVL49:
 818               	.L149:
 819               	.LM112:
 820 033a 8EB3      		in r24,62-0x20
 821 033c 8823      		tst r24
 822 033e 01F0      		breq .L149
 823               	.LM113:
 824 0340 8EB3      		in r24,62-0x20
 825 0342 807C      		andi r24,lo8(-64)
 826 0344 01F0      		breq .L132
 827               	.LM114:
 828 0346 81E0      		ldi r24,lo8(1)
 829 0348 1827      		eor r17,r24
 830 034a 00C0      		rjmp .L134
 831               	.L132:
 832               	.LM115:
 833 034c F299      		sbic 62-0x20,2
 834 034e 00C0      		rjmp .L143
 835               	.LM116:
 836 0350 F49B      		sbis 62-0x20,4
 837 0352 00C0      		rjmp .L134
 838               	.LM117:
 839 0354 1130      		cpi r17,lo8(1)
 840 0356 01F4      		brne .L138
 841               	.LM118:
 842 0358 80E0      		ldi r24,lo8(gs(SPI_SPITransmit))
 843 035a 90E0      		ldi r25,hi8(gs(SPI_SPITransmit))
 844 035c 9093 0000 		sts (DFSPIRoutinePointer)+1,r25
 845 0360 8093 0000 		sts DFSPIRoutinePointer,r24
 846               	.LM119:
 847 0364 0E94 0000 		call SPI_SPIInit
 848               	.LM120:
 849 0368 1092 0000 		sts DataflashInfo+10,__zero_reg__
 850               	.LM121:
 851 036c 81E0      		ldi r24,lo8(1)
 852 036e 0E94 0000 		call DF_EnableDataflash
 853               	.LM122:
 854 0372 0E94 0000 		call DF_CheckCorrectOnboardChip
 855 0376 8823      		tst r24
 856 0378 01F0      		breq .L140
 857               	.LM123:
 858 037a 0E94 0000 		call TM_ShowTags
 859               	.LM124:
 860 037e 8091 6400 		lds r24,100
 861 0382 8460      		ori r24,lo8(4)
 862 0384 8093 6400 		sts 100,r24
 863 0388 00C0      		rjmp .L134
 864               	.L140:
 865               	.LM125:
 866 038a 81E0      		ldi r24,lo8(1)
 867 038c 0E94 0000 		call PM_GetStoredDataSize
 868 0390 6115      		cp r22,__zero_reg__
 869 0392 7105      		cpc r23,__zero_reg__
 870 0394 8105      		cpc r24,__zero_reg__
 871 0396 9105      		cpc r25,__zero_reg__
 872 0398 01F4      		brne .L134
 873               	.LM126:
 874 039a 80E0      		ldi r24,lo8(0)
 875 039c 0E94 0000 		call DF_EnableDataflash
 876               	.LM127:
 877 03a0 8091 6400 		lds r24,100
 878 03a4 8460      		ori r24,lo8(4)
 879 03a6 8093 6400 		sts 100,r24
 880               	.LM128:
 881 03aa 80E0      		ldi r24,lo8(__c.2479)
 882 03ac 90E0      		ldi r25,hi8(__c.2479)
 883 03ae 0E94 0000 		call MAIN_ShowError
 884 03b2 00C0      		rjmp .L134
 885               	.L138:
 886               	.LM129:
 887 03b4 0E94 0000 		call PM_ShowStoredItemSizes
 888               	.L134:
 889               	.LM130:
 890 03b8 8FE0      		ldi r24,lo8(15)
 891 03ba 189F      		mul r17,r24
 892 03bc C001      		movw r24,r0
 893 03be 1124      		clr r1
 894 03c0 8050      		subi r24,lo8(-(SIFONames))
 895 03c2 9040      		sbci r25,hi8(-(SIFONames))
 896 03c4 0E94 0000 		call LCD_puts_f
 897               	.LM131:
 898 03c8 0E94 0000 		call MAIN_WaitForJoyRelease
 899 03cc 00C0      		rjmp .L149
 900               	.L143:
 901               	/* epilogue: frame size=0 */
 902 03ce 1F91      		pop r17
 903 03d0 0895      		ret
 904               	/* epilogue end (size=2) */
 905               	/* function FUNCStorageInfo size 83 (80) */
 906               	.LFE38:
 908               	.global	MAIN_ShowProgType
 910               	MAIN_ShowProgType:
 911               	.LFB20:
 912               	.LM132:
 913               	/* prologue: frame size=7 */
 914 03d2 FF92      		push r15
 915 03d4 0F93      		push r16
 916 03d6 1F93      		push r17
 917 03d8 CF93      		push r28
 918 03da DF93      		push r29
 919 03dc CDB7      		in r28,__SP_L__
 920 03de DEB7      		in r29,__SP_H__
 921 03e0 2797      		sbiw r28,7
 922 03e2 0FB6      		in __tmp_reg__,__SREG__
 923 03e4 F894      		cli
 924 03e6 DEBF      		out __SP_H__,r29
 925 03e8 0FBE      		out __SREG__,__tmp_reg__
 926 03ea CDBF      		out __SP_L__,r28
 927               	/* prologue end (size=13) */
 928               	.LVL50:
 929 03ec F82E      		mov r15,r24
 930               	.LM133:
 931 03ee 8E01      		movw r16,r28
 932 03f0 0F5F      		subi r16,lo8(-(1))
 933 03f2 1F4F      		sbci r17,hi8(-(1))
 934 03f4 60E0      		ldi r22,lo8(__c.2032)
 935 03f6 70E0      		ldi r23,hi8(__c.2032)
 936 03f8 C801      		movw r24,r16
 937               	.LVL51:
 938 03fa 0E94 0000 		call strcpy_P
 939               	.LM134:
 940 03fe FE82      		std Y+6,r15
 941               	.LM135:
 942 0400 C801      		movw r24,r16
 943 0402 0E94 0000 		call LCD_puts
 944               	/* epilogue: frame size=7 */
 945 0406 2796      		adiw r28,7
 946 0408 0FB6      		in __tmp_reg__,__SREG__
 947 040a F894      		cli
 948 040c DEBF      		out __SP_H__,r29
 949 040e 0FBE      		out __SREG__,__tmp_reg__
 950 0410 CDBF      		out __SP_L__,r28
 951 0412 DF91      		pop r29
 952 0414 CF91      		pop r28
 953 0416 1F91      		pop r17
 954 0418 0F91      		pop r16
 955 041a FF90      		pop r15
 956 041c 0895      		ret
 957               	/* epilogue end (size=12) */
 958               	/* function MAIN_ShowProgType size 38 (13) */
 959               	.LFE20:
 961               	.global	FUNCStoreProgram
 963               	FUNCStoreProgram:
 964               	.LFB30:
 965               	.LM136:
 966               	/* prologue: frame size=0 */
 967               	/* prologue end (size=0) */
 968               	.LM137:
 969 041e 80E0      		ldi r24,lo8(gs(SPI_SPITransmit))
 970 0420 90E0      		ldi r25,hi8(gs(SPI_SPITransmit))
 971 0422 9093 0000 		sts (DFSPIRoutinePointer)+1,r25
 972 0426 8093 0000 		sts DFSPIRoutinePointer,r24
 973               	.LM138:
 974 042a 0E94 0000 		call SPI_SPIInit
 975               	.LM139:
 976 042e 1092 0000 		sts DataflashInfo+10,__zero_reg__
 977               	.LM140:
 978 0432 81E0      		ldi r24,lo8(1)
 979 0434 0E94 0000 		call DF_EnableDataflash
 980               	.LM141:
 981 0438 0E94 0000 		call DF_CheckCorrectOnboardChip
 982 043c 8823      		tst r24
 983 043e 01F0      		breq .L155
 984               	.LM142:
 985 0440 80E0      		ldi r24,lo8(WaitText)
 986 0442 90E0      		ldi r25,hi8(WaitText)
 987 0444 0E94 0000 		call LCD_puts_f
 988 0448 0E94 0000 		call OSCCAL_Calibrate
 989 044c 8091 C100 		lds r24,193
 990 0450 8078      		andi r24,lo8(-128)
 991 0452 8861      		ori r24,lo8(24)
 992 0454 8093 C100 		sts 193,r24
 993               	.LM143:
 994 0458 80E0      		ldi r24,lo8(__c.2277)
 995 045a 90E0      		ldi r25,hi8(__c.2277)
 996 045c 0E94 0000 		call LCD_puts_f
 997               	.LM144:
 998 0460 80E0      		ldi r24,lo8(gs(PM_InterpretAVRISPPacket))
 999 0462 90E0      		ldi r25,hi8(gs(PM_InterpretAVRISPPacket))
 1000 0464 0E94 0000 		call V2P_RunStateMachine
 1001               	.LM145:
 1002 0468 80E0      		ldi r24,lo8(0)
 1003 046a 0E94 0000 		call DF_EnableDataflash
 1004               	.LM146:
 1005 046e 8091 6400 		lds r24,100
 1006 0472 8460      		ori r24,lo8(4)
 1007 0474 8093 6400 		sts 100,r24
 1008               	.L155:
 1009 0478 0895      		ret
 1010               	/* epilogue: frame size=0 */
 1011               	/* epilogue: noreturn */
 1012               	/* epilogue end (size=0) */
 1013               	/* function FUNCStoreProgram size 46 (46) */
 1014               	.LFE30:
 1016               	.global	FUNCAVRISPMode
 1018               	FUNCAVRISPMode:
 1019               	.LFB27:
 1020               	.LM147:
 1021               	/* prologue: frame size=0 */
 1022               	/* prologue end (size=0) */
 1023               	.LM148:
 1024 047a 80E0      		ldi r24,lo8(WaitText)
 1025 047c 90E0      		ldi r25,hi8(WaitText)
 1026 047e 0E94 0000 		call LCD_puts_f
 1027 0482 0E94 0000 		call OSCCAL_Calibrate
 1028 0486 E1EC      		ldi r30,lo8(193)
 1029 0488 F0E0      		ldi r31,hi8(193)
 1030 048a 8081      		ld r24,Z
 1031 048c 8078      		andi r24,lo8(-128)
 1032 048e 8861      		ori r24,lo8(24)
 1033 0490 8083      		st Z,r24
 1034               	.LM149:
 1035 0492 80E0      		ldi r24,lo8(AVRISPModeMessage)
 1036 0494 90E0      		ldi r25,hi8(AVRISPModeMessage)
 1037 0496 0E94 0000 		call LCD_puts_f
 1038               	.LM150:
 1039 049a 80E0      		ldi r24,lo8(gs(AICI_InterpretPacket))
 1040 049c 90E0      		ldi r25,hi8(gs(AICI_InterpretPacket))
 1041 049e 0E94 0000 		call V2P_RunStateMachine
 1042               	/* epilogue: frame size=0 */
 1043 04a2 0895      		ret
 1044               	/* epilogue end (size=1) */
 1045               	/* function FUNCAVRISPMode size 21 (20) */
 1046               	.LFE27:
 1048               	.global	FUNCProgramDataflash
 1050               	FUNCProgramDataflash:
 1051               	.LFB28:
 1052               	.LM151:
 1053               	/* prologue: frame size=0 */
 1054               	/* prologue end (size=0) */
 1055               	.LM152:
 1056 04a4 0E94 0000 		call USI_SPIInitMaster
 1057               	.LM153:
 1058 04a8 81E0      		ldi r24,lo8(1)
 1059 04aa 8093 0000 		sts DataflashInfo+10,r24
 1060               	.LM154:
 1061 04ae 80E0      		ldi r24,lo8(gs(USI_SPITransmit))
 1062 04b0 90E0      		ldi r25,hi8(gs(USI_SPITransmit))
 1063 04b2 9093 0000 		sts (DFSPIRoutinePointer)+1,r25
 1064 04b6 8093 0000 		sts DFSPIRoutinePointer,r24
 1065               	.LM155:
 1066 04ba 80E0      		ldi r24,lo8(WaitText)
 1067 04bc 90E0      		ldi r25,hi8(WaitText)
 1068 04be 0E94 0000 		call LCD_puts_f
 1069 04c2 0E94 0000 		call OSCCAL_Calibrate
 1070 04c6 E1EC      		ldi r30,lo8(193)
 1071 04c8 F0E0      		ldi r31,hi8(193)
 1072 04ca 8081      		ld r24,Z
 1073 04cc 8078      		andi r24,lo8(-128)
 1074 04ce 8861      		ori r24,lo8(24)
 1075 04d0 8083      		st Z,r24
 1076               	.LM156:
 1077 04d2 80E0      		ldi r24,lo8(DataFlashProgMode)
 1078 04d4 90E0      		ldi r25,hi8(DataFlashProgMode)
 1079 04d6 0E94 0000 		call LCD_puts_f
 1080               	.LM157:
 1081 04da 80E0      		ldi r24,lo8(gs(PD_InterpretAVRISPPacket))
 1082 04dc 90E0      		ldi r25,hi8(gs(PD_InterpretAVRISPPacket))
 1083 04de 0E94 0000 		call V2P_RunStateMachine
 1084               	.LM158:
 1085 04e2 80E0      		ldi r24,lo8(0)
 1086 04e4 0E94 0000 		call DF_EnableDataflash
 1087               	.LM159:
 1088 04e8 E4E6      		ldi r30,lo8(100)
 1089 04ea F0E0      		ldi r31,hi8(100)
 1090 04ec 8081      		ld r24,Z
 1091 04ee 8460      		ori r24,lo8(4)
 1092 04f0 8083      		st Z,r24
 1093               	/* epilogue: frame size=0 */
 1094 04f2 0895      		ret
 1095               	/* epilogue end (size=1) */
 1096               	/* function FUNCProgramDataflash size 40 (39) */
 1097               	.LFE28:
 1099               	.global	MAIN_CrashProgram
 1101               	MAIN_CrashProgram:
 1102               	.LFB22:
 1103               	.LM160:
 1104               	/* prologue: frame size=0 */
 1105               	/* prologue end (size=0) */
 1106               	.LVL52:
 1107 04f4 8C01      		movw r16,r24
 1108               	.LM161:
 1109 04f6 8091 6400 		lds r24,100
 1110               	.LVL53:
 1111 04fa 8460      		ori r24,lo8(4)
 1112 04fc 8093 6400 		sts 100,r24
 1113               	.LM162:
 1114 0500 0E94 0000 		call USI_SPIOff
 1115               	.LM163:
 1116 0504 1092 B000 		sts 176,__zero_reg__
 1117 0508 1092 7000 		sts 112,__zero_reg__
 1118               	.LM164:
 1119 050c 1092 8100 		sts 129,__zero_reg__
 1120               	.LM165:
 1121 0510 80E8      		ldi r24,lo8(-128)
 1122 0512 8093 6100 		sts 97,r24
 1123 0516 83E0      		ldi r24,lo8(3)
 1124 0518 8093 6100 		sts 97,r24
 1125 051c 1092 C100 		sts 193,__zero_reg__
 1126               	.LM166:
 1127 0520 C801      		movw r24,r16
 1128 0522 0E94 0000 		call LCD_puts_f
 1129               	.LM167:
 1130 0526 81B3      		in r24,49-0x20
 1131 0528 8F7C      		andi r24,lo8(-49)
 1132 052a 8063      		ori r24,lo8(48)
 1133               	.L163:
 1134               	.LM168:
 1135 052c 81BB      		out 49-0x20,r24
 1136               	.LM169:
 1137 052e 82E3      		ldi r24,lo8(50)
 1138 0530 0E94 0000 		call MAIN_Delay10MS
 1139               	.LM170:
 1140 0534 81B3      		in r24,49-0x20
 1141 0536 90E1      		ldi r25,lo8(16)
 1142 0538 8927      		eor r24,r25
 1143 053a 00C0      		rjmp .L163
 1144               	/* epilogue: frame size=0 */
 1145               	/* epilogue: noreturn */
 1146               	/* epilogue end (size=0) */
 1147               	/* function MAIN_CrashProgram size 36 (36) */
 1148               	.LFE22:
 1150               	.global	__vector_default
 1152               	__vector_default:
 1153               	.LFB24:
 1154               	.LM171:
 1155               	/* prologue: frame size=0 */
 1156               	/* prologue: naked */
 1157               	/* prologue end (size=0) */
 1158               	.LM172:
 1159 053c 80E0      		ldi r24,lo8(__c.2095)
 1160 053e 90E0      		ldi r25,hi8(__c.2095)
 1161 0540 0E94 0000 		call MAIN_CrashProgram
 1162               	/* epilogue: frame size=0 */
 1163               	/* epilogue: naked */
 1164               	/* epilogue end (size=0) */
 1165               	/* function __vector_default size 4 (4) */
 1166               	.LFE24:
 1168               	.global	FUNCProgramAVR
 1170               	FUNCProgramAVR:
 1171               	.LFB29:
 1172               	.LM173:
 1173               	/* prologue: frame size=19 */
 1174 0544 0F93      		push r16
 1175 0546 1F93      		push r17
 1176 0548 CF93      		push r28
 1177 054a DF93      		push r29
 1178 054c CDB7      		in r28,__SP_L__
 1179 054e DEB7      		in r29,__SP_H__
 1180 0550 6397      		sbiw r28,19
 1181 0552 0FB6      		in __tmp_reg__,__SREG__
 1182 0554 F894      		cli
 1183 0556 DEBF      		out __SP_H__,r29
 1184 0558 0FBE      		out __SREG__,__tmp_reg__
 1185 055a CDBF      		out __SP_L__,r28
 1186               	/* prologue end (size=12) */
 1187               	.LM174:
 1188 055c 80E0      		ldi r24,lo8(gs(SPI_SPITransmit))
 1189 055e 90E0      		ldi r25,hi8(gs(SPI_SPITransmit))
 1190 0560 9093 0000 		sts (DFSPIRoutinePointer)+1,r25
 1191 0564 8093 0000 		sts DFSPIRoutinePointer,r24
 1192               	.LM175:
 1193 0568 0E94 0000 		call SPI_SPIInit
 1194               	.LM176:
 1195 056c 1092 0000 		sts DataflashInfo+10,__zero_reg__
 1196               	.LM177:
 1197 0570 0E94 0000 		call DF_CheckCorrectOnboardChip
 1198 0574 8823      		tst r24
 1199 0576 01F4      		brne .+2
 1200 0578 00C0      		rjmp .L222
 1201               	.LM178:
 1202 057a 0E94 0000 		call MAIN_WaitForJoyRelease
 1203               	.LM179:
 1204 057e 81E0      		ldi r24,lo8(1)
 1205 0580 8EBB      		out 62-0x20,r24
 1206 0582 10E0      		ldi r17,lo8(0)
 1207               	.LVL54:
 1208               	.L231:
 1209               	.LM180:
 1210 0584 8EB3      		in r24,62-0x20
 1211 0586 8823      		tst r24
 1212 0588 01F0      		breq .L231
 1213               	.LM181:
 1214 058a F299      		sbic 62-0x20,2
 1215 058c 00C0      		rjmp .L222
 1216               	.LM182:
 1217 058e F499      		sbic 62-0x20,4
 1218 0590 00C0      		rjmp .L172
 1219               	.LM183:
 1220 0592 F69B      		sbis 62-0x20,6
 1221 0594 00C0      		rjmp .L174
 1222               	.LM184:
 1223 0596 1123      		tst r17
 1224 0598 01F4      		brne .L176
 1225 059a 17E0      		ldi r17,lo8(7)
 1226 059c 00C0      		rjmp .L178
 1227               	.L176:
 1228 059e 1150      		subi r17,lo8(-(-1))
 1229 05a0 00C0      		rjmp .L178
 1230               	.L174:
 1231               	.LM185:
 1232 05a2 F79B      		sbis 62-0x20,7
 1233 05a4 00C0      		rjmp .L178
 1234               	.LM186:
 1235 05a6 1730      		cpi r17,lo8(7)
 1236 05a8 01F4      		brne .L180
 1237 05aa 10E0      		ldi r17,lo8(0)
 1238 05ac 00C0      		rjmp .L178
 1239               	.L180:
 1240 05ae 1F5F      		subi r17,lo8(-(1))
 1241               	.L178:
 1242               	.LBB64:
 1243               	.LM187:
 1244 05b0 E12F      		mov r30,r17
 1245 05b2 FF27      		clr r31
 1246               	.LVL55:
 1247 05b4 EE0F      		lsl r30
 1248 05b6 FF1F      		rol r31
 1249 05b8 E050      		subi r30,lo8(-(ProgOptions))
 1250 05ba F040      		sbci r31,hi8(-(ProgOptions))
 1251               	.LBE64:
 1252               	/* #APP */
 1253 05bc 8591      		lpm r24, Z+
 1254 05be 9491      		lpm r25, Z
 1255               		
 1256               	.LVL56:
 1257               	/* #NOAPP */
 1258 05c0 0E94 0000 		call LCD_puts_f
 1259               	.LVL57:
 1260               	.LM188:
 1261 05c4 0E94 0000 		call MAIN_WaitForJoyRelease
 1262 05c8 00C0      		rjmp .L231
 1263               	.L172:
 1264               	.LM189:
 1265 05ca 80E8      		ldi r24,lo8(-128)
 1266 05cc 8093 6100 		sts 97,r24
 1267 05d0 1092 6100 		sts 97,__zero_reg__
 1268               	.LM190:
 1269 05d4 80E0      		ldi r24,lo8(WaitText)
 1270 05d6 90E0      		ldi r25,hi8(WaitText)
 1271 05d8 0E94 0000 		call LCD_puts_f
 1272               	.LM191:
 1273 05dc 1092 8100 		sts 129,__zero_reg__
 1274               	.LM192:
 1275 05e0 0E94 0000 		call USI_SPIInitMaster
 1276               	.LM193:
 1277 05e4 80E0      		ldi r24,lo8(0)
 1278 05e6 0E94 0000 		call MAIN_ResetCSLine
 1279 05ea 20E0      		ldi r18,lo8(EEPROMVars+39)
 1280 05ec 30E0      		ldi r19,hi8(EEPROMVars+39)
 1281 05ee E0E0      		ldi r30,lo8(PacketBytes)
 1282 05f0 F0E0      		ldi r31,hi8(PacketBytes)
 1283               	.L182:
 1284               	.LBB65:
 1285               	.LBB66:
 1286               	.LBB67:
 1287               	.LM194:
 1288 05f2 D901      		movw r26,r18
 1289               	.LVL58:
 1290               	/* #APP */
 1291 05f4 0E94 0000 		call __eeprom_read_byte_1F2021
 1292 05f8 802D      		mov r24,__tmp_reg__
 1293               	.LVL59:
 1294               	/* #NOAPP */
 1295               	.LBE67:
 1296               	.LBE66:
 1297               	.LM195:
 1298 05fa 8193      		st Z+,r24
 1299 05fc 2F5F      		subi r18,lo8(-(1))
 1300 05fe 3F4F      		sbci r19,hi8(-(1))
 1301               	.LM196:
 1302 0600 80E0      		ldi r24,hi8(EEPROMVars+51)
 1303 0602 2030      		cpi r18,lo8(EEPROMVars+51)
 1304 0604 3807      		cpc r19,r24
 1305               	.LVL60:
 1306 0606 01F4      		brne .L182
 1307               	.LBE65:
 1308               	.LM197:
 1309 0608 0E94 0000 		call ISPCC_EnterChipProgrammingMode
 1310               	.LVL61:
 1311               	.LM198:
 1312 060c 1092 0000 		sts CurrAddress,__zero_reg__
 1313 0610 1092 0000 		sts (CurrAddress)+1,__zero_reg__
 1314 0614 1092 0000 		sts (CurrAddress)+2,__zero_reg__
 1315 0618 1092 0000 		sts (CurrAddress)+3,__zero_reg__
 1316               	.LM199:
 1317 061c 8091 0000 		lds r24,PacketBytes+1
 1318 0620 8823      		tst r24
 1319 0622 01F0      		breq .+2
 1320 0624 00C0      		rjmp .L184
 1321               	.LM200:
 1322 0626 1123      		tst r17
 1323 0628 01F0      		breq .L186
 1324 062a 1730      		cpi r17,lo8(7)
 1325 062c 01F0      		breq .L186
 1326 062e 1130      		cpi r17,lo8(1)
 1327 0630 01F0      		breq .L186
 1328 0632 1330      		cpi r17,lo8(3)
 1329 0634 01F4      		brne .L230
 1330               	.L186:
 1331               	.LM201:
 1332 0636 83E4      		ldi r24,lo8(67)
 1333 0638 0E94 0000 		call MAIN_ShowProgType
 1334               	.LBB68:
 1335               	.LBB69:
 1336               	.LM202:
 1337 063c A0E0      		ldi r26,lo8(EEPROMVars+23)
 1338 063e B0E0      		ldi r27,hi8(EEPROMVars+23)
 1339               	/* #APP */
 1340 0640 0E94 0000 		call __eeprom_read_byte_1F2021
 1341 0644 802D      		mov r24,__tmp_reg__
 1342               	.LVL62:
 1343               	/* #NOAPP */
 1344               	.LBE69:
 1345               	.LBE68:
 1346               	.LM203:
 1347 0646 8130      		cpi r24,lo8(1)
 1348 0648 01F0      		breq .L192
 1349               	.LM204:
 1350 064a 80E0      		ldi r24,lo8(__c.2198)
 1351 064c 90E0      		ldi r25,hi8(__c.2198)
 1352               	.LVL63:
 1353 064e 0E94 0000 		call MAIN_ShowError
 1354               	.LVL64:
 1355 0652 02E0      		ldi r16,lo8(2)
 1356               	.LVL65:
 1357 0654 00C0      		rjmp .L191
 1358               	.LVL66:
 1359               	.L192:
 1360               	.LM205:
 1361 0656 0E94 0000 		call PM_SendEraseCommand
 1362               	.LVL67:
 1363               	.L230:
 1364 065a 00E0      		ldi r16,lo8(0)
 1365               	.LVL68:
 1366               	.L191:
 1367               	.LM206:
 1368 065c 1230      		cpi r17,lo8(2)
 1369 065e 00F0      		brlo .L194
 1370 0660 1330      		cpi r17,lo8(3)
 1371 0662 01F4      		brne .L196
 1372               	.L194:
 1373 0664 0023      		tst r16
 1374 0666 01F4      		brne .L197
 1375               	.LM207:
 1376 0668 84E4      		ldi r24,lo8(68)
 1377 066a 0E94 0000 		call MAIN_ShowProgType
 1378               	.LM208:
 1379 066e 81E0      		ldi r24,lo8(1)
 1380 0670 0E94 0000 		call PM_GetStoredDataSize
 1381 0674 6115      		cp r22,__zero_reg__
 1382 0676 7105      		cpc r23,__zero_reg__
 1383 0678 8105      		cpc r24,__zero_reg__
 1384 067a 9105      		cpc r25,__zero_reg__
 1385 067c 01F4      		brne .L199
 1386               	.LM209:
 1387 067e 80E0      		ldi r24,lo8(__c.2200)
 1388 0680 90E0      		ldi r25,hi8(__c.2200)
 1389 0682 0E94 0000 		call MAIN_ShowError
 1390 0686 03E0      		ldi r16,lo8(3)
 1391 0688 00C0      		rjmp .L197
 1392               	.L199:
 1393               	.LM210:
 1394 068a 81E0      		ldi r24,lo8(1)
 1395 068c 0E94 0000 		call PM_CreateProgrammingPackets
 1396               	.L197:
 1397               	.LM211:
 1398 0690 1123      		tst r17
 1399 0692 01F0      		breq .L201
 1400               	.L196:
 1401 0694 1230      		cpi r17,lo8(2)
 1402 0696 01F0      		breq .L201
 1403 0698 1330      		cpi r17,lo8(3)
 1404 069a 01F4      		brne .L203
 1405               	.L201:
 1406               	.LM212:
 1407 069c 85E4      		ldi r24,lo8(69)
 1408 069e 0E94 0000 		call MAIN_ShowProgType
 1409               	.LM213:
 1410 06a2 80E0      		ldi r24,lo8(0)
 1411 06a4 0E94 0000 		call PM_GetStoredDataSize
 1412 06a8 6115      		cp r22,__zero_reg__
 1413 06aa 7105      		cpc r23,__zero_reg__
 1414 06ac 8105      		cpc r24,__zero_reg__
 1415 06ae 9105      		cpc r25,__zero_reg__
 1416 06b0 01F4      		brne .L204
 1417               	.LM214:
 1418 06b2 80E0      		ldi r24,lo8(__c.2202)
 1419 06b4 90E0      		ldi r25,hi8(__c.2202)
 1420 06b6 0E94 0000 		call MAIN_ShowError
 1421 06ba 03E0      		ldi r16,lo8(3)
 1422 06bc 00C0      		rjmp .L206
 1423               	.L204:
 1424               	.LM215:
 1425 06be 80E0      		ldi r24,lo8(0)
 1426 06c0 0E94 0000 		call PM_CreateProgrammingPackets
 1427               	.L206:
 1428               	.LM216:
 1429 06c4 1123      		tst r17
 1430 06c6 01F0      		breq .L207
 1431               	.L203:
 1432 06c8 1430      		cpi r17,lo8(4)
 1433 06ca 01F0      		breq .L207
 1434 06cc 1630      		cpi r17,lo8(6)
 1435 06ce 01F4      		brne .L209
 1436               	.L207:
 1437               	.LM217:
 1438 06d0 86E4      		ldi r24,lo8(70)
 1439 06d2 0E94 0000 		call MAIN_ShowProgType
 1440               	.LBB70:
 1441               	.LBB71:
 1442               	.LM218:
 1443 06d6 A0E0      		ldi r26,lo8(EEPROMVars+51)
 1444 06d8 B0E0      		ldi r27,hi8(EEPROMVars+51)
 1445               	/* #APP */
 1446 06da 0E94 0000 		call __eeprom_read_byte_1F2021
 1447 06de 802D      		mov r24,__tmp_reg__
 1448               	.LVL69:
 1449               	/* #NOAPP */
 1450               	.LBE71:
 1451               	.LBE70:
 1452               	.LM219:
 1453 06e0 8823      		tst r24
 1454 06e2 01F4      		brne .L210
 1455               	.LM220:
 1456 06e4 80E0      		ldi r24,lo8(__c.2204)
 1457 06e6 90E0      		ldi r25,hi8(__c.2204)
 1458               	.LVL70:
 1459 06e8 0E94 0000 		call MAIN_ShowError
 1460               	.LVL71:
 1461 06ec 03E0      		ldi r16,lo8(3)
 1462 06ee 00C0      		rjmp .L212
 1463               	.LVL72:
 1464               	.L210:
 1465               	.LM221:
 1466 06f0 82E0      		ldi r24,lo8(2)
 1467               	.LVL73:
 1468 06f2 0E94 0000 		call PM_SendFuseLockBytes
 1469               	.LVL74:
 1470               	.L212:
 1471               	.LM222:
 1472 06f6 1123      		tst r17
 1473 06f8 01F0      		breq .L213
 1474               	.L209:
 1475 06fa 1530      		cpi r17,lo8(5)
 1476 06fc 01F0      		breq .L213
 1477 06fe 1630      		cpi r17,lo8(6)
 1478 0700 01F4      		brne .L215
 1479               	.LM223:
 1480 0702 81E0      		ldi r24,lo8(1)
 1481 0704 0E94 0000 		call MAIN_ResetCSLine
 1482               	.LM224:
 1483 0708 81E0      		ldi r24,lo8(1)
 1484 070a 0E94 0000 		call MAIN_Delay10MS
 1485               	.LM225:
 1486 070e 80E0      		ldi r24,lo8(0)
 1487 0710 0E94 0000 		call MAIN_ResetCSLine
 1488               	.LM226:
 1489 0714 0E94 0000 		call ISPCC_EnterChipProgrammingMode
 1490               	.L213:
 1491               	.LM227:
 1492 0718 8CE4      		ldi r24,lo8(76)
 1493 071a 0E94 0000 		call MAIN_ShowProgType
 1494               	.LBB72:
 1495               	.LBB73:
 1496               	.LM228:
 1497 071e A0E0      		ldi r26,lo8(EEPROMVars+52)
 1498 0720 B0E0      		ldi r27,hi8(EEPROMVars+52)
 1499               	/* #APP */
 1500 0722 0E94 0000 		call __eeprom_read_byte_1F2021
 1501 0726 802D      		mov r24,__tmp_reg__
 1502               	.LVL75:
 1503               	/* #NOAPP */
 1504               	.LBE73:
 1505               	.LBE72:
 1506               	.LM229:
 1507 0728 8823      		tst r24
 1508 072a 01F4      		brne .L217
 1509               	.LM230:
 1510 072c 80E0      		ldi r24,lo8(__c.2206)
 1511 072e 90E0      		ldi r25,hi8(__c.2206)
 1512               	.LVL76:
 1513 0730 0E94 0000 		call MAIN_ShowError
 1514               	.LVL77:
 1515               	.LM231:
 1516 0734 60E0      		ldi r22,lo8(__c.2208)
 1517 0736 70E0      		ldi r23,hi8(__c.2208)
 1518 0738 CE01      		movw r24,r28
 1519 073a 0196      		adiw r24,1
 1520 073c 0E94 0000 		call strcpy_P
 1521 0740 00C0      		rjmp .L219
 1522               	.LVL78:
 1523               	.L217:
 1524               	.LM232:
 1525 0742 83E0      		ldi r24,lo8(3)
 1526               	.LVL79:
 1527 0744 0E94 0000 		call PM_SendFuseLockBytes
 1528               	.LVL80:
 1529               	.L215:
 1530               	.LM233:
 1531 0748 60E0      		ldi r22,lo8(__c.2208)
 1532 074a 70E0      		ldi r23,hi8(__c.2208)
 1533 074c CE01      		movw r24,r28
 1534 074e 0196      		adiw r24,1
 1535 0750 0E94 0000 		call strcpy_P
 1536               	.LM234:
 1537 0754 0023      		tst r16
 1538 0756 01F0      		breq .L220
 1539               	.L219:
 1540               	.LM235:
 1541 0758 60E0      		ldi r22,lo8(__c.2210)
 1542 075a 70E0      		ldi r23,hi8(__c.2210)
 1543 075c CE01      		movw r24,r28
 1544 075e 0D96      		adiw r24,13
 1545 0760 0E94 0000 		call strcpy_P
 1546               	.L220:
 1547               	.LM236:
 1548 0764 CE01      		movw r24,r28
 1549 0766 0196      		adiw r24,1
 1550 0768 0E94 0000 		call LCD_puts
 1551               	.LM237:
 1552 076c 8AEF      		ldi r24,lo8(-6)
 1553 076e 0E94 0000 		call MAIN_Delay10MS
 1554               	.LM238:
 1555 0772 88EC      		ldi r24,lo8(-56)
 1556 0774 0E94 0000 		call MAIN_Delay10MS
 1557 0778 00C0      		rjmp .L221
 1558               	.LVL81:
 1559               	.L184:
 1560               	.LM239:
 1561 077a 80E0      		ldi r24,lo8(SyncErrorMessage)
 1562 077c 90E0      		ldi r25,hi8(SyncErrorMessage)
 1563 077e 0E94 0000 		call MAIN_ShowError
 1564               	.LVL82:
 1565               	.L221:
 1566               	.LM240:
 1567 0782 0E94 0000 		call TOUT_SetupSleepTimer
 1568               	.LM241:
 1569 0786 80E8      		ldi r24,lo8(-128)
 1570 0788 8093 6100 		sts 97,r24
 1571 078c 83E0      		ldi r24,lo8(3)
 1572 078e 8093 6100 		sts 97,r24
 1573               	.LM242:
 1574 0792 81E0      		ldi r24,lo8(1)
 1575 0794 0E94 0000 		call MAIN_ResetCSLine
 1576               	.LM243:
 1577 0798 0E94 0000 		call USI_SPIOff
 1578               	.LM244:
 1579 079c 80E0      		ldi r24,lo8(0)
 1580 079e 0E94 0000 		call DF_EnableDataflash
 1581               	.LM245:
 1582 07a2 8091 6400 		lds r24,100
 1583 07a6 8460      		ori r24,lo8(4)
 1584 07a8 8093 6400 		sts 100,r24
 1585               	.LM246:
 1586 07ac 81B3      		in r24,49-0x20
 1587 07ae 8F7C      		andi r24,lo8(-49)
 1588 07b0 8061      		ori r24,lo8(16)
 1589 07b2 81BB      		out 49-0x20,r24
 1590               	.L222:
 1591               	/* epilogue: frame size=19 */
 1592 07b4 6396      		adiw r28,19
 1593 07b6 0FB6      		in __tmp_reg__,__SREG__
 1594 07b8 F894      		cli
 1595 07ba DEBF      		out __SP_H__,r29
 1596 07bc 0FBE      		out __SREG__,__tmp_reg__
 1597 07be CDBF      		out __SP_L__,r28
 1598 07c0 DF91      		pop r29
 1599 07c2 CF91      		pop r28
 1600 07c4 1F91      		pop r17
 1601 07c6 0F91      		pop r16
 1602 07c8 0895      		ret
 1603               	/* epilogue end (size=11) */
 1604               	/* function FUNCProgramAVR size 331 (308) */
 1605               	.LFE29:
 1607               	.global	main
 1609               	main:
 1610               	.LFB14:
 1611               	.LM247:
 1612               	/* prologue: frame size=0 */
 1613 07ca 1F93      		push r17
 1614               	/* prologue end (size=1) */
 1615               	.LM248:
 1616 07cc 80E8      		ldi r24,lo8(-128)
 1617 07ce 85BF      		out 85-0x20,r24
 1618               	.LM249:
 1619 07d0 85BF      		out 85-0x20,r24
 1620               	.LM250:
 1621 07d2 80BF      		out 80-0x20,r24
 1622               	.LM251:
 1623 07d4 85E0      		ldi r24,lo8(5)
 1624 07d6 8093 6400 		sts 100,r24
 1625               	.LM252:
 1626 07da 80E3      		ldi r24,lo8(48)
 1627 07dc 80BB      		out 48-0x20,r24
 1628               	.LM253:
 1629 07de 87E2      		ldi r24,lo8(39)
 1630 07e0 84B9      		out 36-0x20,r24
 1631               	.LM254:
 1632 07e2 8FED      		ldi r24,lo8(-33)
 1633 07e4 85B9      		out 37-0x20,r24
 1634               	.LM255:
 1635 07e6 8CE0      		ldi r24,lo8(12)
 1636 07e8 8EB9      		out 46-0x20,r24
 1637               	.LM256:
 1638 07ea 8093 6B00 		sts 107,r24
 1639               	.LM257:
 1640 07ee 80ED      		ldi r24,lo8(-48)
 1641 07f0 8093 6C00 		sts 108,r24
 1642               	.LM258:
 1643 07f4 80EC      		ldi r24,lo8(-64)
 1644 07f6 8DBB      		out 61-0x20,r24
 1645               	.LM259:
 1646 07f8 8CBB      		out 60-0x20,r24
 1647               	.LM260:
 1648 07fa 81B3      		in r24,49-0x20
 1649 07fc 8F7C      		andi r24,lo8(-49)
 1650 07fe 8063      		ori r24,lo8(48)
 1651 0800 81BB      		out 49-0x20,r24
 1652               	.LM261:
 1653 0802 81E0      		ldi r24,lo8(1)
 1654 0804 0E94 0000 		call MAIN_ResetCSLine
 1655               	.LM262:
 1656 0808 0E94 0000 		call LCD_Init
 1657               	.LM263:
 1658 080c 8FE0      		ldi r24,lo8(15)
 1659 080e 8093 E700 		sts 231,r24
 1660               	.LM264:
 1661 0812 80E0      		ldi r24,lo8(WaitText)
 1662 0814 90E0      		ldi r25,hi8(WaitText)
 1663 0816 0E94 0000 		call LCD_puts_f
 1664               	.LM265:
 1665               	/* #APP */
 1666 081a 7894      		sei
 1667               	/* #NOAPP */
 1668               	.LBB85:
 1669               	.LBB86:
 1670               	.LM266:
 1671 081c A0E0      		ldi r26,lo8(EEPROMVars+141)
 1672 081e B0E0      		ldi r27,hi8(EEPROMVars+141)
 1673               	/* #APP */
 1674 0820 0E94 0000 		call __eeprom_read_byte_1F2021
 1675 0824 802D      		mov r24,__tmp_reg__
 1676               	.LVL83:
 1677               	/* #NOAPP */
 1678               	.LBE86:
 1679               	.LBE85:
 1680               	.LM267:
 1681 0826 8A37      		cpi r24,lo8(122)
 1682 0828 01F0      		breq .L233
 1683               	.LM268:
 1684 082a 80E0      		ldi r24,lo8(0)
 1685 082c 90E0      		ldi r25,hi8(0)
 1686               	.LVL84:
 1687 082e 2FEF      		ldi r18,lo8(-1)
 1688               	.L235:
 1689               	.LBB87:
 1690               	.LBB88:
 1691               	.LBB89:
 1692               	.LM269:
 1693 0830 DC01      		movw r26,r24
 1694               	.LVL85:
 1695               	/* #APP */
 1696 0832 022E      		mov __tmp_reg__,r18
 1697 0834 0E94 0000 		call __eeprom_write_byte_1F2021
 1698               	/* #NOAPP */
 1699               	.LBE89:
 1700               	.LBE88:
 1701               	.LM270:
 1702 0838 0196      		adiw r24,1
 1703 083a 8E38      		cpi r24,142
 1704 083c 9105      		cpc r25,__zero_reg__
 1705 083e 01F4      		brne .L235
 1706               	.LBE87:
 1707               	.LBB90:
 1708               	.LBB91:
 1709               	.LM271:
 1710 0840 8AE7      		ldi r24,lo8(122)
 1711               	.LVL86:
 1712 0842 A0E0      		ldi r26,lo8(EEPROMVars+141)
 1713 0844 B0E0      		ldi r27,hi8(EEPROMVars+141)
 1714               	.LVL87:
 1715               	/* #APP */
 1716 0846 082E      		mov __tmp_reg__,r24
 1717 0848 0E94 0000 		call __eeprom_write_byte_1F2021
 1718               	.LVL88:
 1719               	/* #NOAPP */
 1720               	.L233:
 1721               	.LBE91:
 1722               	.LBE90:
 1723               	.LBB92:
 1724               	.LBB93:
 1725               	.LM272:
 1726 084c A0E0      		ldi r26,lo8(EEPROMVars+137)
 1727 084e B0E0      		ldi r27,hi8(EEPROMVars+137)
 1728               	.LVL89:
 1729               	/* #APP */
 1730 0850 0E94 0000 		call __eeprom_read_byte_1F2021
 1731 0854 802D      		mov r24,__tmp_reg__
 1732               	.LVL90:
 1733               	/* #NOAPP */
 1734               	.LBE93:
 1735               	.LBE92:
 1736               	.LM273:
 1737 0856 8F70      		andi r24,lo8(15)
 1738 0858 8093 E700 		sts 231,r24
 1739               	.LM274:
 1740 085c 80E0      		ldi r24,lo8(0)
 1741               	.LVL91:
 1742 085e 0E94 0000 		call DF_EnableDataflash
 1743               	.LVL92:
 1744               	.LM275:
 1745 0862 0E94 0000 		call USART_Init
 1746               	.LM276:
 1747 0866 0E94 0000 		call OSCCAL_Calibrate
 1748               	.LM277:
 1749 086a 0E94 0000 		call TOUT_SetupSleepTimer
 1750               	.LM278:
 1751 086e 81B3      		in r24,49-0x20
 1752 0870 8F7C      		andi r24,lo8(-49)
 1753 0872 8061      		ori r24,lo8(16)
 1754 0874 81BB      		out 49-0x20,r24
 1755               	.LM279:
 1756 0876 80E8      		ldi r24,lo8(-128)
 1757 0878 8093 6100 		sts 97,r24
 1758 087c 83E0      		ldi r24,lo8(3)
 1759 087e 8093 6100 		sts 97,r24
 1760               	.LM280:
 1761 0882 81E0      		ldi r24,lo8(1)
 1762 0884 8EBB      		out 62-0x20,r24
 1763 0886 10E0      		ldi r17,lo8(0)
 1764               	.LVL93:
 1765               	.L259:
 1766               	.LM281:
 1767 0888 8EB3      		in r24,62-0x20
 1768 088a 8823      		tst r24
 1769 088c 01F0      		breq .L259
 1770               	.LM282:
 1771 088e F69B      		sbis 62-0x20,6
 1772 0890 00C0      		rjmp .L239
 1773               	.LM283:
 1774 0892 1123      		tst r17
 1775 0894 01F4      		brne .L241
 1776 0896 16E0      		ldi r17,lo8(6)
 1777 0898 00C0      		rjmp .L243
 1778               	.L241:
 1779 089a 1150      		subi r17,lo8(-(-1))
 1780 089c 00C0      		rjmp .L243
 1781               	.L239:
 1782               	.LM284:
 1783 089e F79B      		sbis 62-0x20,7
 1784 08a0 00C0      		rjmp .L244
 1785               	.LM285:
 1786 08a2 1630      		cpi r17,lo8(6)
 1787 08a4 01F4      		brne .L246
 1788 08a6 10E0      		ldi r17,lo8(0)
 1789 08a8 00C0      		rjmp .L243
 1790               	.L246:
 1791 08aa 1F5F      		subi r17,lo8(-(1))
 1792 08ac 00C0      		rjmp .L243
 1793               	.L244:
 1794               	.LM286:
 1795 08ae F49B      		sbis 62-0x20,4
 1796 08b0 00C0      		rjmp .L248
 1797               	.LBB94:
 1798               	.LM287:
 1799 08b2 E12F      		mov r30,r17
 1800 08b4 FF27      		clr r31
 1801               	.LVL94:
 1802 08b6 EE0F      		lsl r30
 1803 08b8 FF1F      		rol r31
 1804 08ba E050      		subi r30,lo8(-(MainFunctionPtrs))
 1805 08bc F040      		sbci r31,hi8(-(MainFunctionPtrs))
 1806               	/* #APP */
 1807 08be 8591      		lpm r24, Z+
 1808 08c0 9491      		lpm r25, Z
 1809               		
 1810               	.LVL95:
 1811               	/* #NOAPP */
 1812               	.LBE94:
 1813 08c2 FC01      		movw r30,r24
 1814 08c4 0995      		icall
 1815               	.LVL96:
 1816 08c6 00C0      		rjmp .L243
 1817               	.L248:
 1818               	.LM288:
 1819 08c8 F39B      		sbis 62-0x20,3
 1820 08ca 00C0      		rjmp .L243
 1821               	.LM289:
 1822 08cc 0E94 0000 		call FUNCShowAbout
 1823               	.L243:
 1824               	.LBB95:
 1825               	.LM290:
 1826 08d0 E12F      		mov r30,r17
 1827 08d2 FF27      		clr r31
 1828               	.LVL97:
 1829 08d4 EE0F      		lsl r30
 1830 08d6 FF1F      		rol r31
 1831 08d8 E050      		subi r30,lo8(-(MainFunctionNames))
 1832 08da F040      		sbci r31,hi8(-(MainFunctionNames))
 1833               	.LBE95:
 1834               	/* #APP */
 1835 08dc 8591      		lpm r24, Z+
 1836 08de 9491      		lpm r25, Z
 1837               		
 1838               	.LVL98:
 1839               	/* #NOAPP */
 1840 08e0 0E94 0000 		call LCD_puts_f
 1841               	.LVL99:
 1842               	.LM291:
 1843 08e4 0E94 0000 		call MAIN_WaitForJoyRelease
 1844 08e8 00C0      		rjmp .L259
 1845               	/* epilogue: frame size=0 */
 1846               	/* epilogue: noreturn */
 1847               	/* epilogue end (size=0) */
 1848               	/* function main size 157 (156) */
 1849               	.LFE14:
 1851               	.global	FUNCClearMem
 1853               	FUNCClearMem:
 1854               	.LFB31:
 1855               	.LM292:
 1856               	/* prologue: frame size=0 */
 1857               	/* prologue end (size=0) */
 1858               	.LM293:
 1859 08ea 80E0      		ldi r24,lo8(__c.2294)
 1860 08ec 90E0      		ldi r25,hi8(__c.2294)
 1861 08ee 0E94 0000 		call LCD_puts_f
 1862               	.LM294:
 1863 08f2 84EB      		ldi r24,lo8(-76)
 1864 08f4 0E94 0000 		call MAIN_Delay10MS
 1865               	.LM295:
 1866 08f8 80E0      		ldi r24,lo8(__c.2296)
 1867 08fa 90E0      		ldi r25,hi8(__c.2296)
 1868 08fc 0E94 0000 		call LCD_puts_f
 1869               	.L276:
 1870               	.LM296:
 1871 0900 8EB3      		in r24,62-0x20
 1872 0902 8823      		tst r24
 1873 0904 01F0      		breq .L276
 1874               	.LM297:
 1875 0906 F299      		sbic 62-0x20,2
 1876 0908 00C0      		rjmp .L268
 1877               	.LM298:
 1878 090a F39B      		sbis 62-0x20,3
 1879 090c 00C0      		rjmp .L276
 1880               	.LM299:
 1881 090e 0E94 0000 		call MAIN_WaitForJoyRelease
 1882               	.LM300:
 1883 0912 80E0      		ldi r24,lo8(WaitText)
 1884 0914 90E0      		ldi r25,hi8(WaitText)
 1885 0916 0E94 0000 		call LCD_puts_f
 1886               	.LM301:
 1887 091a 81B3      		in r24,49-0x20
 1888 091c 8F7C      		andi r24,lo8(-49)
 1889 091e 8063      		ori r24,lo8(48)
 1890 0920 81BB      		out 49-0x20,r24
 1891 0922 80E0      		ldi r24,lo8(0)
 1892 0924 90E0      		ldi r25,hi8(0)
 1893               	.LVL100:
 1894 0926 2FEF      		ldi r18,lo8(-1)
 1895               	.L266:
 1896               	.LBB102:
 1897               	.LBB103:
 1898               	.LBB104:
 1899               	.LM302:
 1900 0928 DC01      		movw r26,r24
 1901               	.LVL101:
 1902               	/* #APP */
 1903 092a 022E      		mov __tmp_reg__,r18
 1904 092c 0E94 0000 		call __eeprom_write_byte_1F2021
 1905               	/* #NOAPP */
 1906               	.LBE104:
 1907               	.LBE103:
 1908               	.LM303:
 1909 0930 0196      		adiw r24,1
 1910 0932 8E38      		cpi r24,142
 1911 0934 9105      		cpc r25,__zero_reg__
 1912 0936 01F4      		brne .L266
 1913               	.LBE102:
 1914               	.LM304:
 1915 0938 81B3      		in r24,49-0x20
 1916               	.LVL102:
 1917 093a 8F7C      		andi r24,lo8(-49)
 1918 093c 8061      		ori r24,lo8(16)
 1919 093e 81BB      		out 49-0x20,r24
 1920               	.LM305:
 1921 0940 80E0      		ldi r24,lo8(__c.2304)
 1922 0942 90E0      		ldi r25,hi8(__c.2304)
 1923 0944 0E94 0000 		call LCD_puts_f
 1924               	.LVL103:
 1925               	.LM306:
 1926 0948 8AEF      		ldi r24,lo8(-6)
 1927 094a 0E94 0000 		call MAIN_Delay10MS
 1928               	.L268:
 1929 094e 0895      		ret
 1930               	/* epilogue: frame size=0 */
 1931               	/* epilogue: noreturn */
 1932               	/* epilogue end (size=0) */
 1933               	/* function FUNCClearMem size 52 (52) */
 1934               	.LFE31:
 1936               	.global	FUNCSetContrast
 1938               	FUNCSetContrast:
 1939               	.LFB32:
 1940               	.LM307:
 1941               	/* prologue: frame size=6 */
 1942 0950 1F93      		push r17
 1943 0952 CF93      		push r28
 1944 0954 DF93      		push r29
 1945 0956 CDB7      		in r28,__SP_L__
 1946 0958 DEB7      		in r29,__SP_H__
 1947 095a 2697      		sbiw r28,6
 1948 095c 0FB6      		in __tmp_reg__,__SREG__
 1949 095e F894      		cli
 1950 0960 DEBF      		out __SP_H__,r29
 1951 0962 0FBE      		out __SREG__,__tmp_reg__
 1952 0964 CDBF      		out __SP_L__,r28
 1953               	/* prologue end (size=11) */
 1954               	.LBB109:
 1955               	.LBB110:
 1956               	.LM308:
 1957 0966 A0E0      		ldi r26,lo8(EEPROMVars+137)
 1958 0968 B0E0      		ldi r27,hi8(EEPROMVars+137)
 1959               	/* #APP */
 1960 096a 0E94 0000 		call __eeprom_read_byte_1F2021
 1961 096e 802D      		mov r24,__tmp_reg__
 1962               	.LVL104:
 1963               	/* #NOAPP */
 1964               	.LBE110:
 1965               	.LBE109:
 1966               	.LM309:
 1967 0970 182F      		mov r17,r24
 1968               	.LVL105:
 1969 0972 1F70      		andi r17,lo8(15)
 1970               	.LM310:
 1971 0974 81E0      		ldi r24,lo8(1)
 1972               	.LVL106:
 1973 0976 8EBB      		out 62-0x20,r24
 1974               	.L295:
 1975               	.LM311:
 1976 0978 8EB3      		in r24,62-0x20
 1977 097a 8823      		tst r24
 1978 097c 01F0      		breq .L295
 1979               	.LM312:
 1980 097e F69B      		sbis 62-0x20,6
 1981 0980 00C0      		rjmp .L280
 1982               	.LM313:
 1983 0982 1F30      		cpi r17,lo8(15)
 1984 0984 00F4      		brsh .L282
 1985               	.LM314:
 1986 0986 1F5F      		subi r17,lo8(-(1))
 1987 0988 00C0      		rjmp .L282
 1988               	.L280:
 1989               	.LM315:
 1990 098a F79B      		sbis 62-0x20,7
 1991 098c 00C0      		rjmp .L284
 1992               	.LM316:
 1993 098e 1230      		cpi r17,lo8(2)
 1994 0990 00F0      		brlo .L282
 1995               	.LM317:
 1996 0992 1150      		subi r17,lo8(-(-1))
 1997 0994 00C0      		rjmp .L282
 1998               	.L284:
 1999               	.LM318:
 2000 0996 F299      		sbic 62-0x20,2
 2001 0998 00C0      		rjmp .L294
 2002               	.L282:
 2003               	.LM319:
 2004 099a 83E4      		ldi r24,lo8(67)
 2005 099c 8983      		std Y+1,r24
 2006               	.LM320:
 2007 099e 84E5      		ldi r24,lo8(84)
 2008 09a0 8A83      		std Y+2,r24
 2009               	.LM321:
 2010 09a2 80E2      		ldi r24,lo8(32)
 2011 09a4 8B83      		std Y+3,r24
 2012               	.LM322:
 2013 09a6 BE01      		movw r22,r28
 2014 09a8 6C5F      		subi r22,lo8(-(4))
 2015 09aa 7F4F      		sbci r23,hi8(-(4))
 2016 09ac 812F      		mov r24,r17
 2017 09ae 9927      		clr r25
 2018 09b0 0E94 0000 		call MAIN_IntToStr
 2019               	.LVL107:
 2020               	.LM323:
 2021 09b4 CE01      		movw r24,r28
 2022 09b6 0196      		adiw r24,1
 2023 09b8 0E94 0000 		call LCD_puts
 2024               	.LM324:
 2025 09bc 812F      		mov r24,r17
 2026 09be 8F70      		andi r24,lo8(15)
 2027 09c0 8093 E700 		sts 231,r24
 2028               	.LM325:
 2029 09c4 0E94 0000 		call MAIN_WaitForJoyRelease
 2030 09c8 00C0      		rjmp .L295
 2031               	.LVL108:
 2032               	.L294:
 2033               	.LBB111:
 2034               	.LBB112:
 2035               	.LM326:
 2036 09ca A0E0      		ldi r26,lo8(EEPROMVars+137)
 2037 09cc B0E0      		ldi r27,hi8(EEPROMVars+137)
 2038               	.LVL109:
 2039               	/* #APP */
 2040 09ce 012E      		mov __tmp_reg__,r17
 2041 09d0 0E94 0000 		call __eeprom_write_byte_1F2021
 2042               	.LVL110:
 2043               	/* #NOAPP */
 2044               	.LBE112:
 2045               	.LBE111:
 2046               	/* epilogue: frame size=6 */
 2047 09d4 2696      		adiw r28,6
 2048 09d6 0FB6      		in __tmp_reg__,__SREG__
 2049 09d8 F894      		cli
 2050 09da DEBF      		out __SP_H__,r29
 2051 09dc 0FBE      		out __SREG__,__tmp_reg__
 2052 09de CDBF      		out __SP_L__,r28
 2053 09e0 DF91      		pop r29
 2054 09e2 CF91      		pop r28
 2055 09e4 1F91      		pop r17
 2056 09e6 0895      		ret
 2057               	/* epilogue end (size=10) */
 2058               	/* function FUNCSetContrast size 78 (57) */
 2059               	.LFE32:
 2061               	.global	FUNCSetISPSpeed
 2063               	FUNCSetISPSpeed:
 2064               	.LFB33:
 2065               	.LM327:
 2066               	/* prologue: frame size=0 */
 2067 09e8 1F93      		push r17
 2068               	/* prologue end (size=1) */
 2069               	.LBB117:
 2070               	.LBB118:
 2071               	.LM328:
 2072 09ea A0E0      		ldi r26,lo8(EEPROMVars+2)
 2073 09ec B0E0      		ldi r27,hi8(EEPROMVars+2)
 2074               	/* #APP */
 2075 09ee 0E94 0000 		call __eeprom_read_byte_1F2021
 2076 09f2 802D      		mov r24,__tmp_reg__
 2077               	.LVL111:
 2078               	/* #NOAPP */
 2079               	.LBE118:
 2080               	.LBE117:
 2081               	.LM329:
 2082 09f4 182F      		mov r17,r24
 2083               	.LVL112:
 2084 09f6 8430      		cpi r24,lo8(4)
 2085 09f8 00F0      		brlo .L297
 2086               	.LVL113:
 2087               	.LM330:
 2088 09fa 13E0      		ldi r17,lo8(3)
 2089               	.L297:
 2090               	.LM331:
 2091 09fc 81E0      		ldi r24,lo8(1)
 2092               	.LVL114:
 2093 09fe 8EBB      		out 62-0x20,r24
 2094               	.L317:
 2095               	.LM332:
 2096 0a00 8EB3      		in r24,62-0x20
 2097 0a02 8823      		tst r24
 2098 0a04 01F0      		breq .L317
 2099               	.LM333:
 2100 0a06 F69B      		sbis 62-0x20,6
 2101 0a08 00C0      		rjmp .L300
 2102               	.LM334:
 2103 0a0a 1123      		tst r17
 2104 0a0c 01F4      		brne .L302
 2105 0a0e 13E0      		ldi r17,lo8(3)
 2106 0a10 00C0      		rjmp .L304
 2107               	.L302:
 2108 0a12 1150      		subi r17,lo8(-(-1))
 2109 0a14 00C0      		rjmp .L304
 2110               	.L300:
 2111               	.LM335:
 2112 0a16 F79B      		sbis 62-0x20,7
 2113 0a18 00C0      		rjmp .L305
 2114               	.LM336:
 2115 0a1a 1330      		cpi r17,lo8(3)
 2116 0a1c 01F0      		breq .L307
 2117 0a1e 1F5F      		subi r17,lo8(-(1))
 2118 0a20 00C0      		rjmp .L304
 2119               	.L305:
 2120               	.LM337:
 2121 0a22 F29B      		sbis 62-0x20,2
 2122 0a24 00C0      		rjmp .L304
 2123 0a26 00C0      		rjmp .L316
 2124               	.L307:
 2125               	.LBB119:
 2126               	.LBB120:
 2127               	.LM338:
 2128 0a28 10E0      		ldi r17,lo8(0)
 2129               	.L304:
 2130               	.LBE120:
 2131               	.LBE119:
 2132               	.LM339:
 2133 0a2a 8AE0      		ldi r24,lo8(10)
 2134 0a2c 189F      		mul r17,r24
 2135 0a2e C001      		movw r24,r0
 2136 0a30 1124      		clr r1
 2137 0a32 8050      		subi r24,lo8(-(USISpeeds))
 2138 0a34 9040      		sbci r25,hi8(-(USISpeeds))
 2139 0a36 0E94 0000 		call LCD_puts_f
 2140               	.LVL115:
 2141               	.LM340:
 2142 0a3a 0E94 0000 		call MAIN_WaitForJoyRelease
 2143 0a3e 00C0      		rjmp .L317
 2144               	.LVL116:
 2145               	.L316:
 2146               	.LBB121:
 2147               	.LBB122:
 2148               	.LM341:
 2149 0a40 A0E0      		ldi r26,lo8(EEPROMVars+2)
 2150 0a42 B0E0      		ldi r27,hi8(EEPROMVars+2)
 2151               	.LVL117:
 2152               	/* #APP */
 2153 0a44 012E      		mov __tmp_reg__,r17
 2154 0a46 0E94 0000 		call __eeprom_write_byte_1F2021
 2155               	.LVL118:
 2156               	/* #NOAPP */
 2157               	.LBE122:
 2158               	.LBE121:
 2159               	/* epilogue: frame size=0 */
 2160 0a4a 1F91      		pop r17
 2161 0a4c 0895      		ret
 2162               	/* epilogue end (size=2) */
 2163               	/* function FUNCSetISPSpeed size 53 (50) */
 2164               	.LFE33:
 2166               	.global	FUNCSetResetMode
 2168               	FUNCSetResetMode:
 2169               	.LFB34:
 2170               	.LM342:
 2171               	/* prologue: frame size=0 */
 2172 0a4e 1F93      		push r17
 2173               	/* prologue end (size=1) */
 2174               	.LBB127:
 2175               	.LBB128:
 2176               	.LM343:
 2177 0a50 A0E0      		ldi r26,lo8(EEPROMVars+140)
 2178 0a52 B0E0      		ldi r27,hi8(EEPROMVars+140)
 2179               	/* #APP */
 2180 0a54 0E94 0000 		call __eeprom_read_byte_1F2021
 2181 0a58 802D      		mov r24,__tmp_reg__
 2182               	.LVL119:
 2183               	/* #NOAPP */
 2184               	.LBE128:
 2185               	.LBE127:
 2186               	.LM344:
 2187 0a5a 182F      		mov r17,r24
 2188               	.LVL120:
 2189 0a5c 1170      		andi r17,lo8(1)
 2190               	.LM345:
 2191 0a5e 81E0      		ldi r24,lo8(1)
 2192               	.LVL121:
 2193 0a60 8EBB      		out 62-0x20,r24
 2194               	.L333:
 2195               	.LM346:
 2196 0a62 8EB3      		in r24,62-0x20
 2197 0a64 8823      		tst r24
 2198 0a66 01F0      		breq .L333
 2199               	.LM347:
 2200 0a68 F699      		sbic 62-0x20,6
 2201 0a6a 00C0      		rjmp .L321
 2202 0a6c F79B      		sbis 62-0x20,7
 2203 0a6e 00C0      		rjmp .L323
 2204               	.L321:
 2205               	.LM348:
 2206 0a70 81E0      		ldi r24,lo8(1)
 2207 0a72 1827      		eor r17,r24
 2208 0a74 00C0      		rjmp .L324
 2209               	.L323:
 2210               	.LM349:
 2211 0a76 F299      		sbic 62-0x20,2
 2212 0a78 00C0      		rjmp .L332
 2213               	.L324:
 2214               	.LM350:
 2215 0a7a 86E0      		ldi r24,lo8(6)
 2216 0a7c 189F      		mul r17,r24
 2217 0a7e C001      		movw r24,r0
 2218 0a80 1124      		clr r1
 2219 0a82 8050      		subi r24,lo8(-(SPIResetModes))
 2220 0a84 9040      		sbci r25,hi8(-(SPIResetModes))
 2221 0a86 0E94 0000 		call LCD_puts_f
 2222               	.LVL122:
 2223               	.LM351:
 2224 0a8a 0E94 0000 		call MAIN_WaitForJoyRelease
 2225 0a8e 00C0      		rjmp .L333
 2226               	.LVL123:
 2227               	.L332:
 2228               	.LBB129:
 2229               	.LBB130:
 2230               	.LM352:
 2231 0a90 A0E0      		ldi r26,lo8(EEPROMVars+140)
 2232 0a92 B0E0      		ldi r27,hi8(EEPROMVars+140)
 2233               	.LVL124:
 2234               	/* #APP */
 2235 0a94 012E      		mov __tmp_reg__,r17
 2236 0a96 0E94 0000 		call __eeprom_write_byte_1F2021
 2237               	.LVL125:
 2238               	/* #NOAPP */
 2239               	.LBE130:
 2240               	.LBE129:
 2241               	/* epilogue: frame size=0 */
 2242 0a9a 1F91      		pop r17
 2243 0a9c 0895      		ret
 2244               	/* epilogue end (size=2) */
 2245               	/* function FUNCSetResetMode size 42 (39) */
 2246               	.LFE34:
 2248               	.global	FUNCSetFirmMinorVer
 2250               	FUNCSetFirmMinorVer:
 2251               	.LFB35:
 2252               	.LM353:
 2253               	/* prologue: frame size=5 */
 2254 0a9e 1F93      		push r17
 2255 0aa0 CF93      		push r28
 2256 0aa2 DF93      		push r29
 2257 0aa4 CDB7      		in r28,__SP_L__
 2258 0aa6 DEB7      		in r29,__SP_H__
 2259 0aa8 2597      		sbiw r28,5
 2260 0aaa 0FB6      		in __tmp_reg__,__SREG__
 2261 0aac F894      		cli
 2262 0aae DEBF      		out __SP_H__,r29
 2263 0ab0 0FBE      		out __SREG__,__tmp_reg__
 2264 0ab2 CDBF      		out __SP_L__,r28
 2265               	/* prologue end (size=11) */
 2266               	.LBB136:
 2267               	.LBB137:
 2268               	.LM354:
 2269 0ab4 A0E0      		ldi r26,lo8(EEPROMVars+138)
 2270 0ab6 B0E0      		ldi r27,hi8(EEPROMVars+138)
 2271               	/* #APP */
 2272 0ab8 0E94 0000 		call __eeprom_read_byte_1F2021
 2273 0abc 802D      		mov r24,__tmp_reg__
 2274               	.LVL126:
 2275               	/* #NOAPP */
 2276               	.LBE137:
 2277               	.LBE136:
 2278               	.LM355:
 2279 0abe 182F      		mov r17,r24
 2280               	.LVL127:
 2281               	.LVL128:
 2282               	.LM356:
 2283 0ac0 8A30      		cpi r24,lo8(10)
 2284 0ac2 00F0      		brlo .L335
 2285               	.LVL129:
 2286               	.LM357:
 2287 0ac4 17E0      		ldi r17,lo8(7)
 2288               	.L335:
 2289               	.LM358:
 2290 0ac6 60E0      		ldi r22,lo8(__c.2402)
 2291 0ac8 70E0      		ldi r23,hi8(__c.2402)
 2292 0aca CE01      		movw r24,r28
 2293               	.LVL130:
 2294 0acc 0196      		adiw r24,1
 2295 0ace 0E94 0000 		call strcpy_P
 2296               	.LVL131:
 2297               	.LM359:
 2298 0ad2 81E0      		ldi r24,lo8(1)
 2299 0ad4 8EBB      		out 62-0x20,r24
 2300               	.L354:
 2301               	.LM360:
 2302 0ad6 8EB3      		in r24,62-0x20
 2303 0ad8 8823      		tst r24
 2304 0ada 01F0      		breq .L354
 2305               	.LM361:
 2306 0adc F69B      		sbis 62-0x20,6
 2307 0ade 00C0      		rjmp .L339
 2308               	.LM362:
 2309 0ae0 1930      		cpi r17,lo8(9)
 2310 0ae2 00F4      		brsh .L339
 2311               	.LM363:
 2312 0ae4 1F5F      		subi r17,lo8(-(1))
 2313               	.L339:
 2314               	.LM364:
 2315 0ae6 F79B      		sbis 62-0x20,7
 2316 0ae8 00C0      		rjmp .L342
 2317               	.LM365:
 2318 0aea 1123      		tst r17
 2319 0aec 01F0      		breq .L344
 2320               	.LM366:
 2321 0aee 1150      		subi r17,lo8(-(-1))
 2322 0af0 00C0      		rjmp .L344
 2323               	.L342:
 2324               	.LM367:
 2325 0af2 F299      		sbic 62-0x20,2
 2326 0af4 00C0      		rjmp .L353
 2327               	.L344:
 2328               	.LM368:
 2329 0af6 105D      		subi r17,lo8(-(48))
 2330 0af8 1C83      		std Y+4,r17
 2331 0afa 1053      		subi r17,lo8(-(-48))
 2332               	.LM369:
 2333 0afc CE01      		movw r24,r28
 2334 0afe 0196      		adiw r24,1
 2335 0b00 0E94 0000 		call LCD_puts
 2336               	.LM370:
 2337 0b04 0E94 0000 		call MAIN_WaitForJoyRelease
 2338 0b08 00C0      		rjmp .L354
 2339               	.L353:
 2340               	.LBB138:
 2341               	.LBB139:
 2342               	.LM371:
 2343 0b0a A0E0      		ldi r26,lo8(EEPROMVars+138)
 2344 0b0c B0E0      		ldi r27,hi8(EEPROMVars+138)
 2345               	/* #APP */
 2346 0b0e 012E      		mov __tmp_reg__,r17
 2347 0b10 0E94 0000 		call __eeprom_write_byte_1F2021
 2348               	.LVL132:
 2349               	/* #NOAPP */
 2350               	.LBE139:
 2351               	.LBE138:
 2352               	/* epilogue: frame size=5 */
 2353 0b14 2596      		adiw r28,5
 2354 0b16 0FB6      		in __tmp_reg__,__SREG__
 2355 0b18 F894      		cli
 2356 0b1a DEBF      		out __SP_H__,r29
 2357 0b1c 0FBE      		out __SREG__,__tmp_reg__
 2358 0b1e CDBF      		out __SP_L__,r28
 2359 0b20 DF91      		pop r29
 2360 0b22 CF91      		pop r28
 2361 0b24 1F91      		pop r17
 2362 0b26 0895      		ret
 2363               	/* epilogue end (size=10) */
 2364               	/* function FUNCSetFirmMinorVer size 71 (50) */
 2365               	.LFE35:
 2367               	.global	BUTTTAG_Title
 2368               		.section	.progmem.data,"a",@progbits
 2371               	BUTTTAG_Title:
 2372 0000 40        		.byte	64
 2373 0001 28        		.byte	40
 2374 0002 23        		.byte	35
 2375 0003 29        		.byte	41
 2376 0004 4255 5454 		.string	"BUTTLOAD AVRISP"
 2376      4C4F 4144 
 2376      2041 5652 
 2376      4953 5000 
 2377               	.global	BUTTTAG_Version
 2380               	BUTTTAG_Version:
 2381 0014 40        		.byte	64
 2382 0015 28        		.byte	40
 2383 0016 23        		.byte	35
 2384 0017 29        		.byte	41
 2385 0018 56        		.byte	86
 2386 0019 31        		.byte	49
 2387 001a 2D        		.byte	45
 2388 001b 34        		.byte	52
 2389 001c 00        		.byte	0
 2390               	.global	BUTTTAG_Author
 2393               	BUTTTAG_Author:
 2394 001d 40        		.byte	64
 2395 001e 28        		.byte	40
 2396 001f 23        		.byte	35
 2397 0020 29        		.byte	41
 2398 0021 4259 2044 		.string	"BY DEAN CAMERA"
 2398      4541 4E20 
 2398      4341 4D45 
 2398      5241 00
 2399               	.global	BUTTTAG_Copyright
 2402               	BUTTTAG_Copyright:
 2403 0030 40        		.byte	64
 2404 0031 28        		.byte	40
 2405 0032 23        		.byte	35
 2406 0033 29        		.byte	41
 2407 0034 3C43 3E20 		.string	"<C> 2006 - GPL"
 2407      3230 3036 
 2407      202D 2047 
 2407      504C 00
 2408               	.global	AboutTextPtrs
 2411               	AboutTextPtrs:
 2412 0043 0000      		.word	BUTTTAG_Title+4
 2413 0045 0000      		.word	BUTTTAG_Version+4
 2414 0047 0000      		.word	BUTTTAG_Author+4
 2415 0049 0000      		.word	BUTTTAG_Copyright+4
 2416               	.global	WaitText
 2419               	WaitText:
 2420 004b 2A57 4149 		.string	"*WAIT*"
 2420      542A 00
 2421               	.global	Func_ISPPRGM
 2424               	Func_ISPPRGM:
 2425 0052 4156 5249 		.string	"AVRISP MODE"
 2425      5350 204D 
 2425      4F44 4500 
 2426               	.global	Func_STOREPRGM
 2429               	Func_STOREPRGM:
 2430 005e 5354 4F52 		.string	"STORE PRGM"
 2430      4520 5052 
 2430      474D 00
 2431               	.global	Func_PRGMAVR
 2434               	Func_PRGMAVR:
 2435 0069 5052 4F47 		.string	"PROGRAM AVR"
 2435      5241 4D20 
 2435      4156 5200 
 2436               	.global	Func_PRGMDATAFLASH
 2439               	Func_PRGMDATAFLASH:
 2440 0075 4441 5441 		.string	"DATAFLASH PRGM"
 2440      464C 4153 
 2440      4820 5052 
 2440      474D 00
 2441               	.global	Func_PRGMSTOREINFO
 2444               	Func_PRGMSTOREINFO:
 2445 0084 4441 5441 		.string	"DATASTORE INFO"
 2445      5354 4F52 
 2445      4520 494E 
 2445      464F 00
 2446               	.global	Func_SETTINGS
 2449               	Func_SETTINGS:
 2450 0093 5345 5454 		.string	"SETTINGS"
 2450      494E 4753 
 2450      00
 2451               	.global	Func_SLEEP
 2454               	Func_SLEEP:
 2455 009c 534C 4545 		.string	"SLEEP MODE"
 2455      5020 4D4F 
 2455      4445 00
 2456               	.global	MainFunctionNames
 2459               	MainFunctionNames:
 2460 00a7 0000      		.word	Func_ISPPRGM
 2461 00a9 0000      		.word	Func_STOREPRGM
 2462 00ab 0000      		.word	Func_PRGMAVR
 2463 00ad 0000      		.word	Func_PRGMDATAFLASH
 2464 00af 0000      		.word	Func_PRGMSTOREINFO
 2465 00b1 0000      		.word	Func_SETTINGS
 2466 00b3 0000      		.word	Func_SLEEP
 2467               	.global	MainFunctionPtrs
 2470               	MainFunctionPtrs:
 2471 00b5 0000      		.word	gs(FUNCAVRISPMode)
 2472 00b7 0000      		.word	gs(FUNCStoreProgram)
 2473 00b9 0000      		.word	gs(FUNCProgramAVR)
 2474 00bb 0000      		.word	gs(FUNCProgramDataflash)
 2475 00bd 0000      		.word	gs(FUNCStorageInfo)
 2476 00bf 0000      		.word	gs(FUNCChangeSettings)
 2477 00c1 0000      		.word	gs(FUNCSleepMode)
 2478               	.global	SFunc_SETCONTRAST
 2481               	SFunc_SETCONTRAST:
 2482 00c3 5345 5420 		.string	"SET CONTRAST"
 2482      434F 4E54 
 2482      5241 5354 
 2482      00
 2483               	.global	SFunc_SETSPISPEED
 2486               	SFunc_SETSPISPEED:
 2487 00d0 5345 5420 		.string	"SET ISP SPEED"
 2487      4953 5020 
 2487      5350 4545 
 2487      4400 
 2488               	.global	SFunc_SETRESETMODE
 2491               	SFunc_SETRESETMODE:
 2492 00de 5345 5420 		.string	"SET RESET MODE"
 2492      5245 5345 
 2492      5420 4D4F 
 2492      4445 00
 2493               	.global	SFunc_SETFIRMMINOR
 2496               	SFunc_SETFIRMMINOR:
 2497 00ed 5345 5420 		.string	"SET FIRM VERSION"
 2497      4649 524D 
 2497      2056 4552 
 2497      5349 4F4E 
 2497      00
 2498               	.global	SFunc_SETAUTOSLEEPTO
 2501               	SFunc_SETAUTOSLEEPTO:
 2502 00fe 5345 5420 		.string	"SET SLEEP TIMEOUT"
 2502      534C 4545 
 2502      5020 5449 
 2502      4D45 4F55 
 2502      5400 
 2503               	.global	SFunc_CLEARMEM
 2506               	SFunc_CLEARMEM:
 2507 0110 434C 4541 		.string	"CLEAR MEMORY"
 2507      5220 4D45 
 2507      4D4F 5259 
 2507      00
 2508               	.global	SFunc_GOBOOTLOADER
 2511               	SFunc_GOBOOTLOADER:
 2512 011d 4A55 4D50 		.string	"JUMP TO BOOTLOADER"
 2512      2054 4F20 
 2512      424F 4F54 
 2512      4C4F 4144 
 2512      4552 00
 2513               	.global	SettingFunctionNames
 2516               	SettingFunctionNames:
 2517 0130 0000      		.word	SFunc_SETCONTRAST
 2518 0132 0000      		.word	SFunc_SETSPISPEED
 2519 0134 0000      		.word	SFunc_SETRESETMODE
 2520 0136 0000      		.word	SFunc_SETFIRMMINOR
 2521 0138 0000      		.word	SFunc_SETAUTOSLEEPTO
 2522 013a 0000      		.word	SFunc_CLEARMEM
 2523 013c 0000      		.word	SFunc_GOBOOTLOADER
 2524               	.global	SettingFunctionPtrs
 2527               	SettingFunctionPtrs:
 2528 013e 0000      		.word	gs(FUNCSetContrast)
 2529 0140 0000      		.word	gs(FUNCSetISPSpeed)
 2530 0142 0000      		.word	gs(FUNCSetResetMode)
 2531 0144 0000      		.word	gs(FUNCSetFirmMinorVer)
 2532 0146 0000      		.word	gs(FUNCSetAutoSleepTimeOut)
 2533 0148 0000      		.word	gs(FUNCClearMem)
 2534 014a 0000      		.word	gs(FUNCGoBootloader)
 2535               	.global	PRG_A
 2538               	PRG_A:
 2539 014c 5052 474D 		.string	"PRGM ALL"
 2539      2041 4C4C 
 2539      00
 2540               	.global	PRG_D
 2543               	PRG_D:
 2544 0155 4441 5441 		.string	"DATA ONLY"
 2544      204F 4E4C 
 2544      5900 
 2545               	.global	PRG_E
 2548               	PRG_E:
 2549 015f 4545 5052 		.string	"EEPROM ONLY"
 2549      4F4D 204F 
 2549      4E4C 5900 
 2550               	.global	PRG_DE
 2553               	PRG_DE:
 2554 016b 4441 5441 		.string	"DATA AND EEPROM"
 2554      2041 4E44 
 2554      2045 4550 
 2554      524F 4D00 
 2555               	.global	PRG_F
 2558               	PRG_F:
 2559 017b 4655 5345 		.string	"FUSE BYTES ONLY"
 2559      2042 5954 
 2559      4553 204F 
 2559      4E4C 5900 
 2560               	.global	PRG_L
 2563               	PRG_L:
 2564 018b 4C4F 434B 		.string	"LOCK BYTES ONLY"
 2564      2042 5954 
 2564      4553 204F 
 2564      4E4C 5900 
 2565               	.global	PRG_FL
 2568               	PRG_FL:
 2569 019b 4655 5345 		.string	"FUSE AND LOCK BYTES"
 2569      2041 4E44 
 2569      204C 4F43 
 2569      4B20 4259 
 2569      5445 5300 
 2570               	.global	PRG_C
 2573               	PRG_C:
 2574 01af 4552 4153 		.string	"ERASE ONLY"
 2574      4520 4F4E 
 2574      4C59 00
 2575               	.global	ProgOptions
 2578               	ProgOptions:
 2579 01ba 0000      		.word	PRG_A
 2580 01bc 0000      		.word	PRG_D
 2581 01be 0000      		.word	PRG_E
 2582 01c0 0000      		.word	PRG_DE
 2583 01c2 0000      		.word	PRG_F
 2584 01c4 0000      		.word	PRG_L
 2585 01c6 0000      		.word	PRG_FL
 2586 01c8 0000      		.word	PRG_C
 2587               	.global	USISpeeds
 2590               	USISpeeds:
 2591 01ca 2035 3731 		.string	" 57153 HZ"
 2591      3533 2048 
 2591      5A00 
 2592 01d4 2038 3637 		.string	" 86738 HZ"
 2592      3338 2048 
 2592      5A00 
 2593 01de 3131 3334 		.string	"113427 HZ"
 2593      3237 2048 
 2593      5A00 
 2594 01e8 3231 3036 		.string	"210651 HZ"
 2594      3531 2048 
 2594      5A00 
 2595               	.global	SPIResetModes
 2598               	SPIResetModes:
 2599 01f2 4C4F 4749 		.string	"LOGIC"
 2599      4300 
 2600 01f8 464C 4F41 		.string	"FLOAT"
 2600      5400 
 2601               	.global	SIFONames
 2604               	SIFONames:
 2605 01fe 5354 4F52 		.string	"STORAGE SIZES"
 2605      4147 4520 
 2605      5349 5A45 
 2605      5300 
 2606 020c 00        		.skip 1,0
 2607 020d 5649 4557 		.string	"VIEW DATA TAGS"
 2607      2044 4154 
 2607      4120 5441 
 2607      4753 00
 2610               	__c.2510:
 2611 021c 2A4A 5441 		.string	"*JTAG ON*"
 2611      4720 4F4E 
 2611      2A00 
 2614               	__c.2479:
 2615 0226 4E4F 2053 		.string	"NO STORED PRGM"
 2615      544F 5245 
 2615      4420 5052 
 2615      474D 00
 2618               	__c.2425:
 2619 0235 4F46 4600 		.string	"OFF"
 2622               	__c.2423:
 2623 0239 2020 2020 		.string	"    SEC"
 2623      5345 4300 
 2626               	__c.2402:
 2627 0241 5632 2D20 		.string	"V2- "
 2627      00
 2630               	__c.2304:
 2631 0246 4D45 4D20 		.string	"MEM CLEARED"
 2631      434C 4541 
 2631      5245 4400 
 2634               	__c.2296:
 2635 0252 3C4E 2059 		.string	"<N Y>"
 2635      3E00 
 2638               	__c.2294:
 2639 0258 434F 4E46 		.string	"CONFIRM"
 2639      4952 4D00 
 2642               	__c.2277:
 2643 0260 2A53 544F 		.string	"*STORAGE MODE*"
 2643      5241 4745 
 2643      204D 4F44 
 2643      452A 00
 2646               	__c.2210:
 2647 026f 4641 494C 		.string	"FAILED"
 2647      4544 00
 2650               	__c.2208:
 2651 0276 5052 4F47 		.string	"PROGRAMMING DONE"
 2651      5241 4D4D 
 2651      494E 4720 
 2651      444F 4E45 
 2651      00
 2654               	__c.2206:
 2655 0287 4E4F 204C 		.string	"NO LOCK BYTES"
 2655      4F43 4B20 
 2655      4259 5445 
 2655      5300 
 2658               	__c.2204:
 2659 0295 4E4F 2046 		.string	"NO FUSE BYTES"
 2659      5553 4520 
 2659      4259 5445 
 2659      5300 
 2662               	__c.2202:
 2663 02a3 4E4F 2045 		.string	"NO EEPROM"
 2663      4550 524F 
 2663      4D00 
 2666               	__c.2200:
 2667 02ad 4E4F 2044 		.string	"NO DATA"
 2667      4154 4100 
 2670               	__c.2198:
 2671 02b5 4E4F 2045 		.string	"NO ERASE CMD"
 2671      5241 5345 
 2671      2043 4D44 
 2671      00
 2674               	__c.2095:
 2675 02c2 4241 4449 		.string	"BADISR"
 2675      5352 00
 2678               	__c.2032:
 2679 02c9 5052 473E 		.string	"PRG>  "
 2679      2020 00
 2680               	.global	EEPROMVars
 2681               		.section	.eeprom,"aw",@progbits
 2684               	EEPROMVars:
 2685 0000 0000 0000 		.skip 142,0
 2685      0000 0000 
 2685      0000 0000 
 2685      0000 0000 
 2685      0000 0000 
 2883               	.Letext0:
DEFINED SYMBOLS
                            *ABS*:00000000 Main.c
C:\DOCUME~1\Dean\LOCALS~1\Temp/ccctaaaa.s:3      *ABS*:0000003f __SREG__
C:\DOCUME~1\Dean\LOCALS~1\Temp/ccctaaaa.s:4      *ABS*:0000003e __SP_H__
C:\DOCUME~1\Dean\LOCALS~1\Temp/ccctaaaa.s:5      *ABS*:0000003d __SP_L__
C:\DOCUME~1\Dean\LOCALS~1\Temp/ccctaaaa.s:6      *ABS*:00000000 __tmp_reg__
C:\DOCUME~1\Dean\LOCALS~1\Temp/ccctaaaa.s:7      *ABS*:00000001 __zero_reg__
C:\DOCUME~1\Dean\LOCALS~1\Temp/ccctaaaa.s:20     .text:00000000 MAIN_Delay10MS
C:\DOCUME~1\Dean\LOCALS~1\Temp/ccctaaaa.s:59     .text:00000014 MAIN_Delay1MS
C:\DOCUME~1\Dean\LOCALS~1\Temp/ccctaaaa.s:98     .text:00000028 MAIN_ResetCSLine
C:\DOCUME~1\Dean\LOCALS~1\Temp/ccctaaaa.s:2684   .eeprom:00000000 EEPROMVars
C:\DOCUME~1\Dean\LOCALS~1\Temp/ccctaaaa.s:198    .text:00000076 MAIN_WaitForJoyRelease
C:\DOCUME~1\Dean\LOCALS~1\Temp/ccctaaaa.s:231    .text:00000094 MAIN_IntToStr
C:\DOCUME~1\Dean\LOCALS~1\Temp/ccctaaaa.s:295    .text:000000d2 __vector_3
C:\DOCUME~1\Dean\LOCALS~1\Temp/ccctaaaa.s:336    .text:00000110 FUNCSleepMode
C:\DOCUME~1\Dean\LOCALS~1\Temp/ccctaaaa.s:381    .text:00000144 FUNCGoBootloader
C:\DOCUME~1\Dean\LOCALS~1\Temp/ccctaaaa.s:2610   .progmem.data:0000021c __c.2510
C:\DOCUME~1\Dean\LOCALS~1\Temp/ccctaaaa.s:416    .text:00000164 FUNCShowAbout
C:\DOCUME~1\Dean\LOCALS~1\Temp/ccctaaaa.s:2411   .progmem.data:00000043 AboutTextPtrs
C:\DOCUME~1\Dean\LOCALS~1\Temp/ccctaaaa.s:491    .text:000001b4 FUNCChangeSettings
C:\DOCUME~1\Dean\LOCALS~1\Temp/ccctaaaa.s:2527   .progmem.data:0000013e SettingFunctionPtrs
C:\DOCUME~1\Dean\LOCALS~1\Temp/ccctaaaa.s:2516   .progmem.data:00000130 SettingFunctionNames
C:\DOCUME~1\Dean\LOCALS~1\Temp/ccctaaaa.s:590    .text:0000021e FUNCSetAutoSleepTimeOut
C:\DOCUME~1\Dean\LOCALS~1\Temp/ccctaaaa.s:2622   .progmem.data:00000239 __c.2423
C:\DOCUME~1\Dean\LOCALS~1\Temp/ccctaaaa.s:2618   .progmem.data:00000235 __c.2425
C:\DOCUME~1\Dean\LOCALS~1\Temp/ccctaaaa.s:748    .text:000002e2 MAIN_ShowError
C:\DOCUME~1\Dean\LOCALS~1\Temp/ccctaaaa.s:805    .text:0000032e FUNCStorageInfo
C:\DOCUME~1\Dean\LOCALS~1\Temp/ccctaaaa.s:2614   .progmem.data:00000226 __c.2479
C:\DOCUME~1\Dean\LOCALS~1\Temp/ccctaaaa.s:2604   .progmem.data:000001fe SIFONames
C:\DOCUME~1\Dean\LOCALS~1\Temp/ccctaaaa.s:910    .text:000003d2 MAIN_ShowProgType
C:\DOCUME~1\Dean\LOCALS~1\Temp/ccctaaaa.s:2678   .progmem.data:000002c9 __c.2032
C:\DOCUME~1\Dean\LOCALS~1\Temp/ccctaaaa.s:963    .text:0000041e FUNCStoreProgram
C:\DOCUME~1\Dean\LOCALS~1\Temp/ccctaaaa.s:2419   .progmem.data:0000004b WaitText
C:\DOCUME~1\Dean\LOCALS~1\Temp/ccctaaaa.s:2642   .progmem.data:00000260 __c.2277
C:\DOCUME~1\Dean\LOCALS~1\Temp/ccctaaaa.s:1018   .text:0000047a FUNCAVRISPMode
C:\DOCUME~1\Dean\LOCALS~1\Temp/ccctaaaa.s:1050   .text:000004a4 FUNCProgramDataflash
C:\DOCUME~1\Dean\LOCALS~1\Temp/ccctaaaa.s:1101   .text:000004f4 MAIN_CrashProgram
C:\DOCUME~1\Dean\LOCALS~1\Temp/ccctaaaa.s:1152   .text:0000053c __vector_default
C:\DOCUME~1\Dean\LOCALS~1\Temp/ccctaaaa.s:2674   .progmem.data:000002c2 __c.2095
C:\DOCUME~1\Dean\LOCALS~1\Temp/ccctaaaa.s:1170   .text:00000544 FUNCProgramAVR
C:\DOCUME~1\Dean\LOCALS~1\Temp/ccctaaaa.s:2578   .progmem.data:000001ba ProgOptions
C:\DOCUME~1\Dean\LOCALS~1\Temp/ccctaaaa.s:2670   .progmem.data:000002b5 __c.2198
C:\DOCUME~1\Dean\LOCALS~1\Temp/ccctaaaa.s:2666   .progmem.data:000002ad __c.2200
C:\DOCUME~1\Dean\LOCALS~1\Temp/ccctaaaa.s:2662   .progmem.data:000002a3 __c.2202
C:\DOCUME~1\Dean\LOCALS~1\Temp/ccctaaaa.s:2658   .progmem.data:00000295 __c.2204
C:\DOCUME~1\Dean\LOCALS~1\Temp/ccctaaaa.s:2654   .progmem.data:00000287 __c.2206
C:\DOCUME~1\Dean\LOCALS~1\Temp/ccctaaaa.s:2650   .progmem.data:00000276 __c.2208
C:\DOCUME~1\Dean\LOCALS~1\Temp/ccctaaaa.s:2646   .progmem.data:0000026f __c.2210
C:\DOCUME~1\Dean\LOCALS~1\Temp/ccctaaaa.s:1609   .text:000007ca main
C:\DOCUME~1\Dean\LOCALS~1\Temp/ccctaaaa.s:2470   .progmem.data:000000b5 MainFunctionPtrs
C:\DOCUME~1\Dean\LOCALS~1\Temp/ccctaaaa.s:2459   .progmem.data:000000a7 MainFunctionNames
C:\DOCUME~1\Dean\LOCALS~1\Temp/ccctaaaa.s:1853   .text:000008ea FUNCClearMem
C:\DOCUME~1\Dean\LOCALS~1\Temp/ccctaaaa.s:2638   .progmem.data:00000258 __c.2294
C:\DOCUME~1\Dean\LOCALS~1\Temp/ccctaaaa.s:2634   .progmem.data:00000252 __c.2296
C:\DOCUME~1\Dean\LOCALS~1\Temp/ccctaaaa.s:2630   .progmem.data:00000246 __c.2304
C:\DOCUME~1\Dean\LOCALS~1\Temp/ccctaaaa.s:1938   .text:00000950 FUNCSetContrast
C:\DOCUME~1\Dean\LOCALS~1\Temp/ccctaaaa.s:2063   .text:000009e8 FUNCSetISPSpeed
C:\DOCUME~1\Dean\LOCALS~1\Temp/ccctaaaa.s:2590   .progmem.data:000001ca USISpeeds
C:\DOCUME~1\Dean\LOCALS~1\Temp/ccctaaaa.s:2168   .text:00000a4e FUNCSetResetMode
C:\DOCUME~1\Dean\LOCALS~1\Temp/ccctaaaa.s:2598   .progmem.data:000001f2 SPIResetModes
C:\DOCUME~1\Dean\LOCALS~1\Temp/ccctaaaa.s:2250   .text:00000a9e FUNCSetFirmMinorVer
C:\DOCUME~1\Dean\LOCALS~1\Temp/ccctaaaa.s:2626   .progmem.data:00000241 __c.2402
C:\DOCUME~1\Dean\LOCALS~1\Temp/ccctaaaa.s:2371   .progmem.data:00000000 BUTTTAG_Title
C:\DOCUME~1\Dean\LOCALS~1\Temp/ccctaaaa.s:2380   .progmem.data:00000014 BUTTTAG_Version
C:\DOCUME~1\Dean\LOCALS~1\Temp/ccctaaaa.s:2393   .progmem.data:0000001d BUTTTAG_Author
C:\DOCUME~1\Dean\LOCALS~1\Temp/ccctaaaa.s:2402   .progmem.data:00000030 BUTTTAG_Copyright
C:\DOCUME~1\Dean\LOCALS~1\Temp/ccctaaaa.s:2424   .progmem.data:00000052 Func_ISPPRGM
C:\DOCUME~1\Dean\LOCALS~1\Temp/ccctaaaa.s:2429   .progmem.data:0000005e Func_STOREPRGM
C:\DOCUME~1\Dean\LOCALS~1\Temp/ccctaaaa.s:2434   .progmem.data:00000069 Func_PRGMAVR
C:\DOCUME~1\Dean\LOCALS~1\Temp/ccctaaaa.s:2439   .progmem.data:00000075 Func_PRGMDATAFLASH
C:\DOCUME~1\Dean\LOCALS~1\Temp/ccctaaaa.s:2444   .progmem.data:00000084 Func_PRGMSTOREINFO
C:\DOCUME~1\Dean\LOCALS~1\Temp/ccctaaaa.s:2449   .progmem.data:00000093 Func_SETTINGS
C:\DOCUME~1\Dean\LOCALS~1\Temp/ccctaaaa.s:2454   .progmem.data:0000009c Func_SLEEP
C:\DOCUME~1\Dean\LOCALS~1\Temp/ccctaaaa.s:2481   .progmem.data:000000c3 SFunc_SETCONTRAST
C:\DOCUME~1\Dean\LOCALS~1\Temp/ccctaaaa.s:2486   .progmem.data:000000d0 SFunc_SETSPISPEED
C:\DOCUME~1\Dean\LOCALS~1\Temp/ccctaaaa.s:2491   .progmem.data:000000de SFunc_SETRESETMODE
C:\DOCUME~1\Dean\LOCALS~1\Temp/ccctaaaa.s:2496   .progmem.data:000000ed SFunc_SETFIRMMINOR
C:\DOCUME~1\Dean\LOCALS~1\Temp/ccctaaaa.s:2501   .progmem.data:000000fe SFunc_SETAUTOSLEEPTO
C:\DOCUME~1\Dean\LOCALS~1\Temp/ccctaaaa.s:2506   .progmem.data:00000110 SFunc_CLEARMEM
C:\DOCUME~1\Dean\LOCALS~1\Temp/ccctaaaa.s:2511   .progmem.data:0000011d SFunc_GOBOOTLOADER
C:\DOCUME~1\Dean\LOCALS~1\Temp/ccctaaaa.s:2538   .progmem.data:0000014c PRG_A
C:\DOCUME~1\Dean\LOCALS~1\Temp/ccctaaaa.s:2543   .progmem.data:00000155 PRG_D
C:\DOCUME~1\Dean\LOCALS~1\Temp/ccctaaaa.s:2548   .progmem.data:0000015f PRG_E
C:\DOCUME~1\Dean\LOCALS~1\Temp/ccctaaaa.s:2553   .progmem.data:0000016b PRG_DE
C:\DOCUME~1\Dean\LOCALS~1\Temp/ccctaaaa.s:2558   .progmem.data:0000017b PRG_F
C:\DOCUME~1\Dean\LOCALS~1\Temp/ccctaaaa.s:2563   .progmem.data:0000018b PRG_L
C:\DOCUME~1\Dean\LOCALS~1\Temp/ccctaaaa.s:2568   .progmem.data:0000019b PRG_FL
C:\DOCUME~1\Dean\LOCALS~1\Temp/ccctaaaa.s:2573   .progmem.data:000001af PRG_C

UNDEFINED SYMBOLS
__do_copy_data
__do_clear_bss
__eeprom_read_byte_1F2021
SleepTimeOutTicks
LCD_puts_f
strcpy_P
AutoSleepTOValues
LCD_puts
__eeprom_write_byte_1F2021
TOUT_SetupSleepTimer
SPI_SPITransmit
DFSPIRoutinePointer
SPI_SPIInit
DataflashInfo
DF_EnableDataflash
DF_CheckCorrectOnboardChip
TM_ShowTags
PM_GetStoredDataSize
PM_ShowStoredItemSizes
OSCCAL_Calibrate
PM_InterpretAVRISPPacket
V2P_RunStateMachine
AVRISPModeMessage
AICI_InterpretPacket
USI_SPIInitMaster
USI_SPITransmit
DataFlashProgMode
PD_InterpretAVRISPPacket
USI_SPIOff
PacketBytes
ISPCC_EnterChipProgrammingMode
CurrAddress
PM_SendEraseCommand
PM_CreateProgrammingPackets
PM_SendFuseLockBytes
SyncErrorMessage
LCD_Init
USART_Init
