   1               		.file	"Main.c"
   2               		.arch atmega169
   3               	__SREG__ = 0x3f
   4               	__SP_H__ = 0x3e
   5               	__SP_L__ = 0x3d
   6               	__tmp_reg__ = 0
   7               	__zero_reg__ = 1
   8               		.global __do_copy_data
   9               		.global __do_clear_bss
  17               	.Ltext0:
  18               	.global	SIFOOptionPtrs
  19               		.section	.progmem.data,"a",@progbits
  22               	SIFOOptionPtrs:
  23 0000 0000      		.word	SIFO_Size
  24 0002 0000      		.word	SIFO_Tags
  25               	.global	SIFO_Tags
  28               	SIFO_Tags:
  29 0004 5649 4557 		.string	"VIEW DATA TAGS"
  29      2044 4154 
  29      4120 5441 
  29      4753 00
  30               	.global	SIFO_Size
  33               	SIFO_Size:
  34 0013 5354 4F52 		.string	"STORAGE SIZES"
  34      4147 4520 
  34      5349 5A45 
  34      5300 
  35               	.global	USIPSNamePtrs
  38               	USIPSNamePtrs:
  39 0021 0000      		.word	USI_Speed0
  40 0023 0000      		.word	USI_Speed1
  41 0025 0000      		.word	USI_Speed2
  42 0027 0000      		.word	USI_Speed3
  43               	.global	USI_Speed3
  46               	USI_Speed3:
  47 0029 3231 3036 		.string	"210651 HZ"
  47      3531 2048 
  47      5A00 
  48               	.global	USI_Speed2
  51               	USI_Speed2:
  52 0033 3131 3334 		.string	"113427 HZ"
  52      3237 2048 
  52      5A00 
  53               	.global	USI_Speed1
  56               	USI_Speed1:
  57 003d 2038 3637 		.string	" 86738 HZ"
  57      3338 2048 
  57      5A00 
  58               	.global	USI_Speed0
  61               	USI_Speed0:
  62 0047 2035 3731 		.string	" 57153 HZ"
  62      3533 2048 
  62      5A00 
  63               	.global	ProgOptions
  66               	ProgOptions:
  67 0051 0000      		.word	PRG_D
  68 0053 0000      		.word	PRG_E
  69 0055 0000      		.word	PRG_DE
  70 0057 0000      		.word	PRG_F
  71 0059 0000      		.word	PRG_L
  72 005b 0000      		.word	PRG_FL
  73 005d 0000      		.word	PRG_C
  74               	.global	PRG_C
  77               	PRG_C:
  78 005f 4552 4153 		.string	"ERASE ONLY"
  78      4520 4F4E 
  78      4C59 00
  79               	.global	PRG_FL
  82               	PRG_FL:
  83 006a 4655 5345 		.string	"FUSE AND LOCK BYTES"
  83      2041 4E44 
  83      204C 4F43 
  83      4B20 4259 
  83      5445 5300 
  84               	.global	PRG_L
  87               	PRG_L:
  88 007e 4C4F 434B 		.string	"LOCK BYTES ONLY"
  88      2042 5954 
  88      4553 204F 
  88      4E4C 5900 
  89               	.global	PRG_F
  92               	PRG_F:
  93 008e 4655 5345 		.string	"FUSE BYTES ONLY"
  93      2042 5954 
  93      4553 204F 
  93      4E4C 5900 
  94               	.global	PRG_DE
  97               	PRG_DE:
  98 009e 4441 5441 		.string	"DATA AND EEPROM"
  98      2041 4E44 
  98      2045 4550 
  98      524F 4D00 
  99               	.global	PRG_E
 102               	PRG_E:
 103 00ae 4545 5052 		.string	"EEPROM ONLY"
 103      4F4D 204F 
 103      4E4C 5900 
 104               	.global	PRG_D
 107               	PRG_D:
 108 00ba 4441 5441 		.string	"DATA ONLY"
 108      204F 4E4C 
 108      5900 
 109               	.global	SettingFunctionPtrs
 112               	SettingFunctionPtrs:
 113 00c4 0000      		.word	pm(FUNCSetContrast)
 114 00c6 0000      		.word	pm(FUNCSetISPSpeed)
 115 00c8 0000      		.word	pm(FUNCClearMem)
 116 00ca 0000      		.word	pm(FUNCAutoCalib)
 117 00cc 0000      		.word	pm(FUNCManCalib)
 118 00ce 0000      		.word	pm(FUNCGoBootloader)
 119               	.global	SettingFunctionNames
 122               	SettingFunctionNames:
 123 00d0 0000      		.word	SFunc_SETCONTRAST
 124 00d2 0000      		.word	SFunc_SETSPISPEED
 125 00d4 0000      		.word	SFunc_CLEARMEM
 126 00d6 0000      		.word	SFunc_AUTOCALIB
 127 00d8 0000      		.word	SFunc_MANCALIB
 128 00da 0000      		.word	SFunc_GOBOOTLOADER
 129               	.global	SFunc_GOBOOTLOADER
 132               	SFunc_GOBOOTLOADER:
 133 00dc 4A55 4D50 		.string	"JUMP TO BOOTLOADER"
 133      2054 4F20 
 133      424F 4F54 
 133      4C4F 4144 
 133      4552 00
 134               	.global	SFunc_MANCALIB
 137               	SFunc_MANCALIB:
 138 00ef 4D41 4E55 		.string	"MANUAL CALIBRATION"
 138      414C 2043 
 138      414C 4942 
 138      5241 5449 
 138      4F4E 00
 139               	.global	SFunc_AUTOCALIB
 142               	SFunc_AUTOCALIB:
 143 0102 4155 544F 		.string	"AUTO CALIBRATE"
 143      2043 414C 
 143      4942 5241 
 143      5445 00
 144               	.global	SFunc_CLEARMEM
 147               	SFunc_CLEARMEM:
 148 0111 434C 4541 		.string	"CLEAR MEMORY"
 148      5220 4D45 
 148      4D4F 5259 
 148      00
 149               	.global	SFunc_SETSPISPEED
 152               	SFunc_SETSPISPEED:
 153 011e 5345 5420 		.string	"SET SPI SPEED"
 153      5350 4920 
 153      5350 4545 
 153      4400 
 154               	.global	SFunc_SETCONTRAST
 157               	SFunc_SETCONTRAST:
 158 012c 5345 5420 		.string	"SET CONTRAST"
 158      434F 4E54 
 158      5241 5354 
 158      00
 159               	.global	MainFunctionPtrs
 162               	MainFunctionPtrs:
 163 0139 0000      		.word	pm(FUNCAVRISPMode)
 164 013b 0000      		.word	pm(FUNCStoreProgram)
 165 013d 0000      		.word	pm(FUNCProgramAVR)
 166 013f 0000      		.word	pm(FUNCProgramDataflash)
 167 0141 0000      		.word	pm(FUNCStorageInfo)
 168 0143 0000      		.word	pm(FUNCChangeSettings)
 169 0145 0000      		.word	pm(FUNCSleepMode)
 170               	.global	MainFunctionNames
 173               	MainFunctionNames:
 174 0147 0000      		.word	Func_ISPPRGM
 175 0149 0000      		.word	Func_STOREPRGM
 176 014b 0000      		.word	Func_PRGMAVR
 177 014d 0000      		.word	Func_PRGMDATAFLASH
 178 014f 0000      		.word	Func_PRGMSTOREINFO
 179 0151 0000      		.word	Func_SETTINGS
 180 0153 0000      		.word	Func_SLEEP
 181               	.global	Func_SLEEP
 184               	Func_SLEEP:
 185 0155 534C 4545 		.string	"SLEEP MODE"
 185      5020 4D4F 
 185      4445 00
 186               	.global	Func_SETTINGS
 189               	Func_SETTINGS:
 190 0160 5345 5454 		.string	"SETTINGS"
 190      494E 4753 
 190      00
 191               	.global	Func_PRGMSTOREINFO
 194               	Func_PRGMSTOREINFO:
 195 0169 4441 5441 		.string	"DATASTORE INFO"
 195      5354 4F52 
 195      4520 494E 
 195      464F 00
 196               	.global	Func_PRGMDATAFLASH
 199               	Func_PRGMDATAFLASH:
 200 0178 4441 5441 		.string	"DATAFLASH PRGM MODE"
 200      464C 4153 
 200      4820 5052 
 200      474D 204D 
 200      4F44 4500 
 201               	.global	Func_PRGMAVR
 204               	Func_PRGMAVR:
 205 018c 5052 4F47 		.string	"PROGRAM AVR"
 205      5241 4D20 
 205      4156 5200 
 206               	.global	Func_STOREPRGM
 209               	Func_STOREPRGM:
 210 0198 5354 4F52 		.string	"STORE PRGM"
 210      4520 5052 
 210      474D 00
 211               	.global	Func_ISPPRGM
 214               	Func_ISPPRGM:
 215 01a3 4156 5249 		.string	"AVRISP MODE"
 215      5350 204D 
 215      4F44 4500 
 216               	.global	AboutTextPtrs
 219               	AboutTextPtrs:
 220 01af 0000      		.word	ProgrammerName
 221 01b1 0000      		.word	VersionInfo
 222 01b3 0000      		.word	AuthorName
 223 01b5 0000      		.word	CopyRight
 224               	.global	CopyRight
 227               	CopyRight:
 228 01b7 3C43 3E20 		.string	"<C> 2006 - GPL"
 228      3230 3036 
 228      202D 2047 
 228      504C 00
 229               	.global	AuthorName
 232               	AuthorName:
 233 01c6 4259 2044 		.string	"BY DEAN CAMERA"
 233      4541 4E20 
 233      4341 4D45 
 233      5241 00
 234               	.global	VersionInfo
 237               	VersionInfo:
 238 01d5 56        		.byte	86
 239 01d6 31        		.byte	49
 240 01d7 2D        		.byte	45
 241 01d8 33        		.byte	51
 242 01d9 00        		.byte	0
 243               	.global	ProgrammerName
 246               	ProgrammerName:
 247 01da 4255 5454 		.string	"BUTTLOAD"
 247      4C4F 4144 
 247      00
 248               	.global	WaitText
 251               	WaitText:
 252 01e3 2A57 4149 		.string	"*WAIT*"
 252      542A 00
 253               	.global	BUTTTAG_Author
 256               	BUTTTAG_Author:
 257 01ea 40        		.byte	64
 258 01eb 28        		.byte	40
 259 01ec 23        		.byte	35
 260 01ed 29        		.byte	41
 261 01ee 4259 2044 		.string	"BY DEAN CAMERA"
 261      4541 4E20 
 261      4341 4D45 
 261      5241 00
 262               	.global	BUTTTAG_Name
 265               	BUTTTAG_Name:
 266 01fd 40        		.byte	64
 267 01fe 28        		.byte	40
 268 01ff 23        		.byte	35
 269 0200 29        		.byte	41
 270 0201 4255 5454 		.string	"BUTTLOAD AVRISP"
 270      4C4F 4144 
 270      2041 5652 
 270      4953 5000 
 271               		.text
 272               	.global	MAIN_Delay10MS
 274               	MAIN_Delay10MS:
 275               	.LFB9:
 276               	.LM1:
 277               	/* prologue: frame size=0 */
 278 0000 CF93      		push r28
 279 0002 DF93      		push r29
 280               	/* prologue end (size=2) */
 281               	.LM2:
 282 0004 282F      		mov r18,r24
 283 0006 2150      		subi r18,lo8(-(-1))
 284 0008 2F3F      		cpi r18,lo8(-1)
 285 000a 49F0      		breq .L14
 286 000c A0E0      		ldi r26,lo8(18432)
 287 000e B8E4      		ldi r27,hi8(18432)
 288 0010 C0E0      		ldi r28,hlo8(18432)
 289 0012 D0E0      		ldi r29,hhi8(18432)
 290               	.L12:
 291               	.LBB2:
 292               	.LBB3:
 293               	.LBB4:
 294               	.LBB5:
 295               	.LM3:
 296 0014 CD01      		movw r24,r26
 297               	/* #APP */
 298 0016 0197      		1: sbiw r24,1
 299 0018 F1F7      		brne 1b
 300               	/* #NOAPP */
 301               	.LBE5:
 302               	.LBE4:
 303               	.LBE3:
 304               	.LBE2:
 305 001a 2150      		subi r18,1
 306 001c D8F7      		brcc .L12
 307               	.L14:
 308               	/* epilogue: frame size=0 */
 309 001e DF91      		pop r29
 310 0020 CF91      		pop r28
 311 0022 0895      		ret
 312               	/* epilogue end (size=3) */
 313               	/* function MAIN_Delay10MS size 21 (16) */
 314               	.LFE9:
 316               	.global	MAIN_WaitForJoyRelease
 318               	MAIN_WaitForJoyRelease:
 319               	.LFB12:
 320               	.LM4:
 321               	/* prologue: frame size=0 */
 322               	/* prologue end (size=0) */
 323               	.L25:
 324               	.LM5:
 325 0024 8EB3      		in r24,62-0x20
 326 0026 8823      		tst r24
 327 0028 E9F7      		brne .L25
 328               	.LM6:
 329 002a 81E0      		ldi r24,lo8(1)
 330 002c 0E94 0000 		call MAIN_Delay10MS
 331               	.LM7:
 332 0030 8EB3      		in r24,62-0x20
 333 0032 8823      		tst r24
 334 0034 B9F7      		brne .L25
 335               	/* epilogue: frame size=0 */
 336 0036 0895      		ret
 337               	/* epilogue end (size=1) */
 338               	/* function MAIN_WaitForJoyRelease size 10 (9) */
 339               	.LFE12:
 341               	.global	FUNCShowAbout
 343               	FUNCShowAbout:
 344               	.LFB19:
 345               	.LM8:
 346               	/* prologue: frame size=0 */
 347 0038 CF93      		push r28
 348               	/* prologue end (size=1) */
 349               	.LM9:
 350 003a C0E0      		ldi r28,lo8(0)
 351               	.LM10:
 352 003c 81E0      		ldi r24,lo8(1)
 353 003e 8EBB      		out 62-0x20,r24
 354               	.L42:
 355               	.LM11:
 356 0040 8EB3      		in r24,62-0x20
 357 0042 8823      		tst r24
 358 0044 E9F3      		breq .L42
 359               	.LM12:
 360 0046 F69B      		sbis 62-0x20,6
 361 0048 06C0      		rjmp .L30
 362               	.LM13:
 363 004a CC23      		tst r28
 364 004c 11F4      		brne .L31
 365 004e C3E0      		ldi r28,lo8(3)
 366 0050 0CC0      		rjmp .L33
 367               	.L31:
 368 0052 C150      		subi r28,lo8(-(-1))
 369 0054 0AC0      		rjmp .L33
 370               	.L30:
 371               	.LM14:
 372 0056 F79B      		sbis 62-0x20,7
 373 0058 06C0      		rjmp .L34
 374               	.LM15:
 375 005a C330      		cpi r28,lo8(3)
 376 005c 11F4      		brne .L35
 377 005e C0E0      		ldi r28,lo8(0)
 378 0060 04C0      		rjmp .L33
 379               	.L35:
 380 0062 CF5F      		subi r28,lo8(-(1))
 381 0064 02C0      		rjmp .L33
 382               	.L34:
 383               	.LM16:
 384 0066 F299      		sbic 62-0x20,2
 385 0068 0DC0      		rjmp .L26
 386               	.L33:
 387               	.LBB6:
 388               	.LM17:
 389 006a EC2F      		mov r30,r28
 390 006c FF27      		clr r31
 391 006e EE0F      		add r30,r30
 392 0070 FF1F      		adc r31,r31
 393 0072 E050      		subi r30,lo8(-(AboutTextPtrs))
 394 0074 F040      		sbci r31,hi8(-(AboutTextPtrs))
 395               	.LBE6:
 396               	/* #APP */
 397 0076 8591      		lpm r24, Z+
 398 0078 9491      		lpm r25, Z
 399               		
 400               	/* #NOAPP */
 401 007a 0E94 0000 		call LCD_puts_f
 402               	.LM18:
 403 007e 0E94 0000 		call MAIN_WaitForJoyRelease
 404 0082 DECF      		rjmp .L42
 405               	.L26:
 406               	/* epilogue: frame size=0 */
 407 0084 CF91      		pop r28
 408 0086 0895      		ret
 409               	/* epilogue end (size=2) */
 410               	/* function FUNCShowAbout size 44 (41) */
 411               	.LFE19:
 413               	.global	main
 415               	main:
 416               	.LFB8:
 417               	.LM19:
 418               	/* prologue: frame size=2 */
 419 0088 C0E0      		ldi r28,lo8(__stack - 2)
 420 008a D0E0      		ldi r29,hi8(__stack - 2)
 421 008c DEBF      		out __SP_H__,r29
 422 008e CDBF      		out __SP_L__,r28
 423               	/* prologue end (size=4) */
 424               	.LM20:
 425 0090 10E0      		ldi r17,lo8(0)
 426               	.LM21:
 427 0092 80E8      		ldi r24,lo8(-128)
 428 0094 80BF      		out 80-0x20,r24
 429               	.LM22:
 430 0096 85E0      		ldi r24,lo8(5)
 431 0098 8093 6400 		sts 100,r24
 432               	.LM23:
 433 009c 80E3      		ldi r24,lo8(48)
 434 009e 80BB      		out 48-0x20,r24
 435               	.LM24:
 436 00a0 87E2      		ldi r24,lo8(39)
 437 00a2 84B9      		out 36-0x20,r24
 438               	.LM25:
 439 00a4 8FED      		ldi r24,lo8(-33)
 440 00a6 85B9      		out 37-0x20,r24
 441               	.LM26:
 442 00a8 8CE0      		ldi r24,lo8(12)
 443 00aa 8EB9      		out 46-0x20,r24
 444               	.LM27:
 445 00ac 8093 6B00 		sts 107,r24
 446               	.LM28:
 447 00b0 80ED      		ldi r24,lo8(-48)
 448 00b2 8093 6C00 		sts 108,r24
 449               	.LM29:
 450 00b6 80EC      		ldi r24,lo8(-64)
 451 00b8 8DBB      		out 61-0x20,r24
 452               	.LM30:
 453 00ba 8CBB      		out 60-0x20,r24
 454               	.LM31:
 455 00bc 81B3      		in r24,49-0x20
 456 00be 8F7C      		andi r24,lo8(-49)
 457 00c0 8062      		ori r24,lo8(32)
 458 00c2 81BB      		out 49-0x20,r24
 459               	.LM32:
 460 00c4 80E0      		ldi r24,lo8(Sys_MagicNumber)
 461 00c6 90E0      		ldi r25,hi8(Sys_MagicNumber)
 462 00c8 0E94 0000 		call eeprom_read_byte_169
 463 00cc 8A37      		cpi r24,lo8(122)
 464 00ce 09F1      		breq .L44
 465               	.LBB7:
 466               	.LM33:
 467 00d0 20E0      		ldi r18,lo8(0)
 468 00d2 30E0      		ldi r19,hi8(0)
 469 00d4 3A83      		std Y+2,r19
 470 00d6 2983      		std Y+1,r18
 471 00d8 8091 0000 		lds r24,Sys_MagicNumber
 472 00dc 9091 0000 		lds r25,(Sys_MagicNumber)+1
 473 00e0 2817      		cp r18,r24
 474 00e2 3907      		cpc r19,r25
 475 00e4 88F4      		brsh .L64
 476               	.L48:
 477               	.LM34:
 478 00e6 6FEF      		ldi r22,lo8(-1)
 479 00e8 CE01      		movw r24,r28
 480 00ea 0196      		adiw r24,1
 481 00ec 0E94 0000 		call eeprom_write_byte_169
 482               	.LM35:
 483 00f0 8981      		ldd r24,Y+1
 484 00f2 9A81      		ldd r25,Y+2
 485 00f4 0196      		adiw r24,1
 486 00f6 9A83      		std Y+2,r25
 487 00f8 8983      		std Y+1,r24
 488 00fa 2091 0000 		lds r18,Sys_MagicNumber
 489 00fe 3091 0000 		lds r19,(Sys_MagicNumber)+1
 490 0102 8217      		cp r24,r18
 491 0104 9307      		cpc r25,r19
 492 0106 78F3      		brlo .L48
 493               	.L64:
 494               	.LBE7:
 495               	.LM36:
 496 0108 6AE7      		ldi r22,lo8(122)
 497 010a 80E0      		ldi r24,lo8(Sys_MagicNumber)
 498 010c 90E0      		ldi r25,hi8(Sys_MagicNumber)
 499 010e 0E94 0000 		call eeprom_write_byte_169
 500               	.L44:
 501               	.LM37:
 502 0112 0E94 0000 		call LCD_Init
 503               	.LM38:
 504 0116 80E0      		ldi r24,lo8(Sys_LCDContrast)
 505 0118 90E0      		ldi r25,hi8(Sys_LCDContrast)
 506 011a 0E94 0000 		call eeprom_read_byte_169
 507 011e 8F70      		andi r24,lo8(15)
 508 0120 8093 E700 		sts 231,r24
 509               	.LM39:
 510               	/* #APP */
 511 0124 7894      		sei
 512               	.LM40:
 513               	/* #NOAPP */
 514 0126 80E0      		ldi r24,lo8(WaitText)
 515 0128 90E0      		ldi r25,hi8(WaitText)
 516 012a 0E94 0000 		call LCD_puts_f
 517               	.LM41:
 518 012e 80E0      		ldi r24,lo8(0)
 519 0130 0E94 0000 		call DF_EnableDataflash
 520               	.LM42:
 521 0134 81B3      		in r24,49-0x20
 522 0136 8063      		ori r24,lo8(48)
 523 0138 81BB      		out 49-0x20,r24
 524               	.LM43:
 525 013a 0E94 0000 		call OSCCAL_Calibrate
 526               	.LM44:
 527 013e 87E0      		ldi r24,lo8(7)
 528 0140 90E0      		ldi r25,hi8(7)
 529 0142 0E94 0000 		call USART_Init
 530               	.LM45:
 531 0146 81B3      		in r24,49-0x20
 532 0148 8F7C      		andi r24,lo8(-49)
 533 014a 8061      		ori r24,lo8(16)
 534 014c 81BB      		out 49-0x20,r24
 535               	.LM46:
 536 014e 81E0      		ldi r24,lo8(1)
 537 0150 8EBB      		out 62-0x20,r24
 538               	.L68:
 539               	.LM47:
 540 0152 8EB3      		in r24,62-0x20
 541 0154 8823      		tst r24
 542 0156 E9F3      		breq .L68
 543               	.LM48:
 544 0158 F69B      		sbis 62-0x20,6
 545 015a 06C0      		rjmp .L52
 546               	.LM49:
 547 015c 1123      		tst r17
 548 015e 11F4      		brne .L53
 549 0160 16E0      		ldi r17,lo8(6)
 550 0162 1BC0      		rjmp .L55
 551               	.L53:
 552 0164 1150      		subi r17,lo8(-(-1))
 553 0166 19C0      		rjmp .L55
 554               	.L52:
 555               	.LM50:
 556 0168 F79B      		sbis 62-0x20,7
 557 016a 06C0      		rjmp .L56
 558               	.LM51:
 559 016c 1630      		cpi r17,lo8(6)
 560 016e 11F4      		brne .L57
 561 0170 10E0      		ldi r17,lo8(0)
 562 0172 13C0      		rjmp .L55
 563               	.L57:
 564 0174 1F5F      		subi r17,lo8(-(1))
 565 0176 11C0      		rjmp .L55
 566               	.L56:
 567               	.LM52:
 568 0178 F49B      		sbis 62-0x20,4
 569 017a 0BC0      		rjmp .L60
 570               	.LBB8:
 571               	.LM53:
 572 017c E12F      		mov r30,r17
 573 017e FF27      		clr r31
 574 0180 EE0F      		add r30,r30
 575 0182 FF1F      		adc r31,r31
 576 0184 E050      		subi r30,lo8(-(MainFunctionPtrs))
 577 0186 F040      		sbci r31,hi8(-(MainFunctionPtrs))
 578               	/* #APP */
 579 0188 8591      		lpm r24, Z+
 580 018a 9491      		lpm r25, Z
 581               		
 582               	/* #NOAPP */
 583               	.LBE8:
 584 018c FC01      		movw r30,r24
 585 018e 0995      		icall
 586 0190 04C0      		rjmp .L55
 587               	.L60:
 588               	.LM54:
 589 0192 F39B      		sbis 62-0x20,3
 590 0194 02C0      		rjmp .L55
 591               	.LM55:
 592 0196 0E94 0000 		call FUNCShowAbout
 593               	.L55:
 594               	.LBB9:
 595               	.LM56:
 596 019a E12F      		mov r30,r17
 597 019c FF27      		clr r31
 598 019e EE0F      		add r30,r30
 599 01a0 FF1F      		adc r31,r31
 600 01a2 E050      		subi r30,lo8(-(MainFunctionNames))
 601 01a4 F040      		sbci r31,hi8(-(MainFunctionNames))
 602               	.LBE9:
 603               	/* #APP */
 604 01a6 8591      		lpm r24, Z+
 605 01a8 9491      		lpm r25, Z
 606               		
 607               	/* #NOAPP */
 608 01aa 0E94 0000 		call LCD_puts_f
 609               	.LM57:
 610 01ae 0E94 0000 		call MAIN_WaitForJoyRelease
 611 01b2 CFCF      		rjmp .L68
 612               	/* epilogue: frame size=2 */
 613               	/* epilogue: noreturn */
 614               	/* epilogue end (size=0) */
 615               	/* function main size 159 (155) */
 616               	.LFE8:
 618               	.global	MAIN_Delay1MS
 620               	MAIN_Delay1MS:
 621               	.LFB10:
 622               	.LM58:
 623               	/* prologue: frame size=0 */
 624 01b4 CF93      		push r28
 625 01b6 DF93      		push r29
 626               	/* prologue end (size=2) */
 627               	.LM59:
 628 01b8 282F      		mov r18,r24
 629 01ba 2150      		subi r18,lo8(-(-1))
 630 01bc 2F3F      		cpi r18,lo8(-1)
 631 01be 49F0      		breq .L82
 632 01c0 A3E3      		ldi r26,lo8(1843)
 633 01c2 B7E0      		ldi r27,hi8(1843)
 634 01c4 C0E0      		ldi r28,hlo8(1843)
 635 01c6 D0E0      		ldi r29,hhi8(1843)
 636               	.L80:
 637               	.LBB10:
 638               	.LBB11:
 639               	.LBB12:
 640               	.LBB13:
 641               	.LM60:
 642 01c8 CD01      		movw r24,r26
 643               	/* #APP */
 644 01ca 0197      		1: sbiw r24,1
 645 01cc F1F7      		brne 1b
 646               	/* #NOAPP */
 647               	.LBE13:
 648               	.LBE12:
 649               	.LBE11:
 650               	.LBE10:
 651 01ce 2150      		subi r18,1
 652 01d0 D8F7      		brcc .L80
 653               	.L82:
 654               	/* epilogue: frame size=0 */
 655 01d2 DF91      		pop r29
 656 01d4 CF91      		pop r28
 657 01d6 0895      		ret
 658               	/* epilogue end (size=3) */
 659               	/* function MAIN_Delay1MS size 21 (16) */
 660               	.LFE10:
 662               	.global	MAIN_ResetCSLine
 664               	MAIN_ResetCSLine:
 665               	.LFB11:
 666               	.LM61:
 667               	/* prologue: frame size=0 */
 668               	/* prologue end (size=0) */
 669               	.LM62:
 670 01d8 9927      		clr r25
 671 01da 8130      		cpi r24,1
 672 01dc 9105      		cpc r25,__zero_reg__
 673 01de A9F0      		breq .L89
 674               	.LM63:
 675 01e0 8230      		cpi r24,2
 676 01e2 9105      		cpc r25,__zero_reg__
 677 01e4 1CF4      		brge .L90
 678 01e6 892B      		or r24,r25
 679 01e8 21F0      		breq .L85
 680 01ea 0895      		ret
 681               	.L90:
 682 01ec 0297      		sbiw r24,2
 683 01ee 51F0      		breq .L88
 684 01f0 0895      		ret
 685               	.L85:
 686               	.LM64:
 687 01f2 869A      		sbi 48-0x20,6
 688               	.LM65:
 689 01f4 80E0      		ldi r24,lo8(Param_ResetPolarity)
 690 01f6 90E0      		ldi r25,hi8(Param_ResetPolarity)
 691 01f8 0E94 0000 		call eeprom_read_byte_169
 692 01fc 8823      		tst r24
 693 01fe 19F4      		brne .L91
 694               	.LM66:
 695 0200 8E9A      		sbi 49-0x20,6
 696 0202 0895      		ret
 697               	.L88:
 698               	.LM67:
 699 0204 869A      		sbi 48-0x20,6
 700               	.L91:
 701               	.LM68:
 702 0206 8E98      		cbi 49-0x20,6
 703               	.LM69:
 704 0208 0895      		ret
 705               	.L89:
 706               	.LM70:
 707 020a 8698      		cbi 48-0x20,6
 708 020c FCCF      		rjmp .L91
 709               	/* epilogue: frame size=0 */
 710               	/* epilogue: noreturn */
 711               	/* epilogue end (size=0) */
 712               	/* function MAIN_ResetCSLine size 28 (28) */
 713               	.LFE11:
 715               	.global	MAIN_IntToStr
 717               	MAIN_IntToStr:
 718               	.LFB13:
 719               	.LM71:
 720               	/* prologue: frame size=0 */
 721               	/* prologue end (size=0) */
 722 020e FB01      		movw r30,r22
 723               	.LM72:
 724 0210 20E0      		ldi r18,lo8(0)
 725               	.L103:
 726               	.LM73:
 727 0212 8436      		cpi r24,100
 728 0214 9105      		cpc r25,__zero_reg__
 729 0216 20F0      		brlo .L100
 730               	.LM74:
 731 0218 2F5F      		subi r18,lo8(-(1))
 732               	.LM75:
 733 021a 8456      		subi r24,lo8(-(-100))
 734 021c 9040      		sbci r25,hi8(-(-100))
 735 021e F9CF      		rjmp .L103
 736               	.L100:
 737               	.LM76:
 738 0220 205D      		subi r18,lo8(-(48))
 739 0222 2193      		st Z+,r18
 740               	.LM77:
 741 0224 20E0      		ldi r18,lo8(0)
 742               	.L104:
 743               	.LM78:
 744 0226 8A30      		cpi r24,10
 745 0228 9105      		cpc r25,__zero_reg__
 746 022a 18F0      		brlo .L102
 747               	.LM79:
 748 022c 2F5F      		subi r18,lo8(-(1))
 749               	.LM80:
 750 022e 0A97      		sbiw r24,10
 751 0230 FACF      		rjmp .L104
 752               	.L102:
 753               	.LM81:
 754 0232 205D      		subi r18,lo8(-(48))
 755 0234 2193      		st Z+,r18
 756               	.LM82:
 757 0236 805D      		subi r24,lo8(-(48))
 758 0238 8193      		st Z+,r24
 759               	.LM83:
 760 023a 1082      		st Z,__zero_reg__
 761               	/* epilogue: frame size=0 */
 762 023c 0895      		ret
 763               	/* epilogue end (size=1) */
 764               	/* function MAIN_IntToStr size 24 (23) */
 765               	.LFE13:
 767               		.section	.progmem.data
 770               	__c.14:
 771 0211 5052 473E 		.string	"PRG> "
 771      2000 
 772               		.text
 773               	.global	MAIN_ShowProgType
 775               	MAIN_ShowProgType:
 776               	.LFB14:
 777               	.LM84:
 778               	/* prologue: frame size=7 */
 779 023e 1F93      		push r17
 780 0240 CF93      		push r28
 781 0242 DF93      		push r29
 782 0244 CDB7      		in r28,__SP_L__
 783 0246 DEB7      		in r29,__SP_H__
 784 0248 2797      		sbiw r28,7
 785 024a 0FB6      		in __tmp_reg__,__SREG__
 786 024c F894      		cli
 787 024e DEBF      		out __SP_H__,r29
 788 0250 0FBE      		out __SREG__,__tmp_reg__
 789 0252 CDBF      		out __SP_L__,r28
 790               	/* prologue end (size=11) */
 791 0254 182F      		mov r17,r24
 792               	.LM85:
 793 0256 60E0      		ldi r22,lo8(__c.14)
 794 0258 70E0      		ldi r23,hi8(__c.14)
 795 025a CE01      		movw r24,r28
 796 025c 0196      		adiw r24,1
 797 025e 0E94 0000 		call strcpy_P
 798               	.LM86:
 799 0262 1E83      		std Y+6,r17
 800               	.LM87:
 801 0264 1F82      		std Y+7,__zero_reg__
 802               	.LM88:
 803 0266 CE01      		movw r24,r28
 804 0268 0196      		adiw r24,1
 805 026a 0E94 0000 		call LCD_puts
 806               	/* epilogue: frame size=7 */
 807 026e 2796      		adiw r28,7
 808 0270 0FB6      		in __tmp_reg__,__SREG__
 809 0272 F894      		cli
 810 0274 DEBF      		out __SP_H__,r29
 811 0276 0FBE      		out __SREG__,__tmp_reg__
 812 0278 CDBF      		out __SP_L__,r28
 813 027a DF91      		pop r29
 814 027c CF91      		pop r28
 815 027e 1F91      		pop r17
 816 0280 0895      		ret
 817               	/* epilogue end (size=10) */
 818               	/* function MAIN_ShowProgType size 34 (13) */
 819               	.LFE14:
 821               	.global	MAIN_ShowError
 823               	MAIN_ShowError:
 824               	.LFB15:
 825               	.LM89:
 826               	/* prologue: frame size=20 */
 827 0282 CF93      		push r28
 828 0284 DF93      		push r29
 829 0286 CDB7      		in r28,__SP_L__
 830 0288 DEB7      		in r29,__SP_H__
 831 028a 6497      		sbiw r28,20
 832 028c 0FB6      		in __tmp_reg__,__SREG__
 833 028e F894      		cli
 834 0290 DEBF      		out __SP_H__,r29
 835 0292 0FBE      		out __SREG__,__tmp_reg__
 836 0294 CDBF      		out __SP_L__,r28
 837               	/* prologue end (size=10) */
 838               	.LM90:
 839 0296 25E4      		ldi r18,lo8(69)
 840 0298 2983      		std Y+1,r18
 841               	.LM91:
 842 029a 2EE3      		ldi r18,lo8(62)
 843 029c 2A83      		std Y+2,r18
 844               	.LM92:
 845 029e BC01      		movw r22,r24
 846 02a0 CE01      		movw r24,r28
 847 02a2 0396      		adiw r24,3
 848 02a4 0E94 0000 		call strcpy_P
 849               	.LM93:
 850 02a8 CE01      		movw r24,r28
 851 02aa 0196      		adiw r24,1
 852 02ac 0E94 0000 		call LCD_puts
 853               	.LM94:
 854 02b0 0E94 0000 		call MAIN_WaitForJoyRelease
 855               	.L107:
 856               	.LM95:
 857 02b4 F49B      		sbis 62-0x20,4
 858 02b6 FECF      		rjmp .L107
 859               	.LM96:
 860 02b8 0E94 0000 		call MAIN_WaitForJoyRelease
 861               	/* epilogue: frame size=20 */
 862 02bc 6496      		adiw r28,20
 863 02be 0FB6      		in __tmp_reg__,__SREG__
 864 02c0 F894      		cli
 865 02c2 DEBF      		out __SP_H__,r29
 866 02c4 0FBE      		out __SREG__,__tmp_reg__
 867 02c6 CDBF      		out __SP_L__,r28
 868 02c8 DF91      		pop r29
 869 02ca CF91      		pop r28
 870 02cc 0895      		ret
 871               	/* epilogue end (size=9) */
 872               	/* function MAIN_ShowError size 38 (19) */
 873               	.LFE15:
 875               	.global	__vector_3
 877               	__vector_3:
 878               	.LFB16:
 879               	.LM97:
 880               	/* prologue: frame size=0 */
 881 02ce 7894      		sei
 882 02d0 1F92      		push __zero_reg__
 883 02d2 0F92      		push __tmp_reg__
 884 02d4 0FB6      		in __tmp_reg__,__SREG__
 885 02d6 0F92      		push __tmp_reg__
 886 02d8 1124      		clr __zero_reg__
 887 02da 8F93      		push r24
 888 02dc 9F93      		push r25
 889               	/* prologue end (size=8) */
 890               	.LM98:
 891 02de 93B1      		in r25,35-0x20
 892 02e0 9095      		com r25
 893 02e2 907D      		andi r25,lo8(-48)
 894 02e4 8CB1      		in r24,44-0x20
 895 02e6 8095      		com r24
 896 02e8 8C70      		andi r24,lo8(12)
 897 02ea 982B      		or r25,r24
 898 02ec 9EBB      		out 62-0x20,r25
 899               	/* epilogue: frame size=0 */
 900 02ee 9F91      		pop r25
 901 02f0 8F91      		pop r24
 902 02f2 0F90      		pop __tmp_reg__
 903 02f4 0FBE      		out __SREG__,__tmp_reg__
 904 02f6 0F90      		pop __tmp_reg__
 905 02f8 1F90      		pop __zero_reg__
 906 02fa 1895      		reti
 907               	/* epilogue end (size=7) */
 908               	/* function __vector_3 size 23 (8) */
 909               	.LFE16:
 911               		.section	.progmem.data
 914               	__c.13:
 915 0217 4241 4449 		.string	"BADISR"
 915      5352 00
 916               		.text
 917               	.global	__vector_default
 919               	__vector_default:
 920               	.LFB17:
 921               	.LM99:
 922               	/* prologue: frame size=0 */
 923               	/* prologue: naked */
 924               	/* prologue end (size=0) */
 925               	.LM100:
 926 02fc 80E0      		ldi r24,lo8(__c.13)
 927 02fe 90E0      		ldi r25,hi8(__c.13)
 928 0300 0E94 0000 		call MAIN_ShowError
 929               	.L112:
 930               	.LM101:
 931 0304 FFCF      		rjmp .L112
 932               	/* epilogue: frame size=0 */
 933               	/* epilogue: naked */
 934               	/* epilogue end (size=0) */
 935               	/* function __vector_default size 5 (5) */
 936               	.LFE17:
 938               	.global	FUNCChangeSettings
 940               	FUNCChangeSettings:
 941               	.LFB18:
 942               	.LM102:
 943               	/* prologue: frame size=0 */
 944 0306 CF93      		push r28
 945               	/* prologue end (size=1) */
 946               	.LM103:
 947 0308 C0E0      		ldi r28,lo8(0)
 948               	.LM104:
 949 030a 81E0      		ldi r24,lo8(1)
 950 030c 8EBB      		out 62-0x20,r24
 951               	.L132:
 952               	.LM105:
 953 030e 8EB3      		in r24,62-0x20
 954 0310 8823      		tst r24
 955 0312 E9F3      		breq .L132
 956               	.LM106:
 957 0314 F69B      		sbis 62-0x20,6
 958 0316 06C0      		rjmp .L118
 959               	.LM107:
 960 0318 CC23      		tst r28
 961 031a 11F4      		brne .L119
 962 031c C5E0      		ldi r28,lo8(5)
 963 031e 19C0      		rjmp .L121
 964               	.L119:
 965 0320 C150      		subi r28,lo8(-(-1))
 966 0322 17C0      		rjmp .L121
 967               	.L118:
 968               	.LM108:
 969 0324 F79B      		sbis 62-0x20,7
 970 0326 06C0      		rjmp .L122
 971               	.LM109:
 972 0328 C530      		cpi r28,lo8(5)
 973 032a 11F4      		brne .L123
 974 032c C0E0      		ldi r28,lo8(0)
 975 032e 11C0      		rjmp .L121
 976               	.L123:
 977 0330 CF5F      		subi r28,lo8(-(1))
 978 0332 0FC0      		rjmp .L121
 979               	.L122:
 980               	.LM110:
 981 0334 F49B      		sbis 62-0x20,4
 982 0336 0BC0      		rjmp .L126
 983               	.LBB14:
 984               	.LM111:
 985 0338 EC2F      		mov r30,r28
 986 033a FF27      		clr r31
 987 033c EE0F      		add r30,r30
 988 033e FF1F      		adc r31,r31
 989 0340 E050      		subi r30,lo8(-(SettingFunctionPtrs))
 990 0342 F040      		sbci r31,hi8(-(SettingFunctionPtrs))
 991               	/* #APP */
 992 0344 8591      		lpm r24, Z+
 993 0346 9491      		lpm r25, Z
 994               		
 995               	/* #NOAPP */
 996               	.LBE14:
 997 0348 FC01      		movw r30,r24
 998 034a 0995      		icall
 999 034c 02C0      		rjmp .L121
 1000               	.L126:
 1001               	.LM112:
 1002 034e F299      		sbic 62-0x20,2
 1003 0350 0DC0      		rjmp .L114
 1004               	.L121:
 1005               	.LBB15:
 1006               	.LM113:
 1007 0352 EC2F      		mov r30,r28
 1008 0354 FF27      		clr r31
 1009 0356 EE0F      		add r30,r30
 1010 0358 FF1F      		adc r31,r31
 1011 035a E050      		subi r30,lo8(-(SettingFunctionNames))
 1012 035c F040      		sbci r31,hi8(-(SettingFunctionNames))
 1013               	.LBE15:
 1014               	/* #APP */
 1015 035e 8591      		lpm r24, Z+
 1016 0360 9491      		lpm r25, Z
 1017               		
 1018               	/* #NOAPP */
 1019 0362 0E94 0000 		call LCD_puts_f
 1020               	.LM114:
 1021 0366 0E94 0000 		call MAIN_WaitForJoyRelease
 1022 036a D1CF      		rjmp .L132
 1023               	.L114:
 1024               	/* epilogue: frame size=0 */
 1025 036c CF91      		pop r28
 1026 036e 0895      		ret
 1027               	/* epilogue end (size=2) */
 1028               	/* function FUNCChangeSettings size 61 (58) */
 1029               	.LFE18:
 1031               	.global	FUNCAVRISPMode
 1033               	FUNCAVRISPMode:
 1034               	.LFB20:
 1035               	.LM115:
 1036               	/* prologue: frame size=0 */
 1037               	/* prologue end (size=0) */
 1038               	.LM116:
 1039 0370 80E0      		ldi r24,lo8(AVRISPModeMessage)
 1040 0372 90E0      		ldi r25,hi8(AVRISPModeMessage)
 1041 0374 0E94 0000 		call LCD_puts_f
 1042               	.LM117:
 1043 0378 80E0      		ldi r24,lo8(pm(AICI_InterpretPacket))
 1044 037a 90E0      		ldi r25,hi8(pm(AICI_InterpretPacket))
 1045 037c 9093 0000 		sts (InterpretPacketRoutine)+1,r25
 1046 0380 8093 0000 		sts InterpretPacketRoutine,r24
 1047               	.LM118:
 1048 0384 0E94 0000 		call V2P_RunStateMachine
 1049               	/* epilogue: frame size=0 */
 1050 0388 0895      		ret
 1051               	/* epilogue end (size=1) */
 1052               	/* function FUNCAVRISPMode size 13 (12) */
 1053               	.LFE20:
 1055               	.global	FUNCProgramDataflash
 1057               	FUNCProgramDataflash:
 1058               	.LFB21:
 1059               	.LM119:
 1060               	/* prologue: frame size=0 */
 1061               	/* prologue end (size=0) */
 1062               	.LM120:
 1063 038a 80E0      		ldi r24,lo8(Param_SCKDuration)
 1064 038c 90E0      		ldi r25,hi8(Param_SCKDuration)
 1065 038e 0E94 0000 		call eeprom_read_byte_169
 1066 0392 0E94 0000 		call USI_SPIInitMaster
 1067               	.LM121:
 1068 0396 81E0      		ldi r24,lo8(1)
 1069 0398 8093 0000 		sts UseExernalDF,r24
 1070               	.LM122:
 1071 039c 80E0      		ldi r24,lo8(pm(USI_SPITransmit))
 1072 039e 90E0      		ldi r25,hi8(pm(USI_SPITransmit))
 1073 03a0 9093 0000 		sts (DFSPIRoutinePointer)+1,r25
 1074 03a4 8093 0000 		sts DFSPIRoutinePointer,r24
 1075               	.LM123:
 1076 03a8 80E0      		ldi r24,lo8(DataFlashProgMode)
 1077 03aa 90E0      		ldi r25,hi8(DataFlashProgMode)
 1078 03ac 0E94 0000 		call LCD_puts_f
 1079               	.LM124:
 1080 03b0 80E0      		ldi r24,lo8(pm(PD_InterpretAVRISPPacket))
 1081 03b2 90E0      		ldi r25,hi8(pm(PD_InterpretAVRISPPacket))
 1082 03b4 9093 0000 		sts (InterpretPacketRoutine)+1,r25
 1083 03b8 8093 0000 		sts InterpretPacketRoutine,r24
 1084               	.LM125:
 1085 03bc 0E94 0000 		call V2P_RunStateMachine
 1086               	.LM126:
 1087 03c0 80E0      		ldi r24,lo8(0)
 1088 03c2 0E94 0000 		call DF_EnableDataflash
 1089               	.LM127:
 1090 03c6 8091 6400 		lds r24,100
 1091 03ca 8460      		ori r24,lo8(4)
 1092 03cc 8093 6400 		sts 100,r24
 1093               	/* epilogue: frame size=0 */
 1094 03d0 0895      		ret
 1095               	/* epilogue end (size=1) */
 1096               	/* function FUNCProgramDataflash size 36 (35) */
 1097               	.LFE21:
 1099               		.section	.progmem.data
 1102               	__c.6:
 1103 021e 4E4F 2045 		.string	"NO ERASE CMD"
 1103      5241 5345 
 1103      2043 4D44 
 1103      00
 1106               	__c.7:
 1107 022b 4E4F 2044 		.string	"NO DATA"
 1107      4154 4100 
 1110               	__c.8:
 1111 0233 4E4F 2045 		.string	"NO EEPROM"
 1111      4550 524F 
 1111      4D00 
 1114               	__c.9:
 1115 023d 4E4F 2046 		.string	"NO FUSE BYTES"
 1115      5553 4520 
 1115      4259 5445 
 1115      5300 
 1118               	__c.10:
 1119 024b 4E4F 204C 		.string	"NO LOCK BYTES"
 1119      4F43 4B20 
 1119      4259 5445 
 1119      5300 
 1122               	__c.11:
 1123 0259 5052 4F47 		.string	"PROGRAMMING DONE"
 1123      5241 4D4D 
 1123      494E 4720 
 1123      444F 4E45 
 1123      00
 1126               	__c.12:
 1127 026a 4641 494C 		.string	"FAILED"
 1127      4544 00
 1128               		.text
 1129               	.global	FUNCProgramAVR
 1131               	FUNCProgramAVR:
 1132               	.LFB22:
 1133               	.LM128:
 1134               	/* prologue: frame size=21 */
 1135 03d2 DF92      		push r13
 1136 03d4 EF92      		push r14
 1137 03d6 FF92      		push r15
 1138 03d8 0F93      		push r16
 1139 03da 1F93      		push r17
 1140 03dc CF93      		push r28
 1141 03de DF93      		push r29
 1142 03e0 CDB7      		in r28,__SP_L__
 1143 03e2 DEB7      		in r29,__SP_H__
 1144 03e4 6597      		sbiw r28,21
 1145 03e6 0FB6      		in __tmp_reg__,__SREG__
 1146 03e8 F894      		cli
 1147 03ea DEBF      		out __SP_H__,r29
 1148 03ec 0FBE      		out __SREG__,__tmp_reg__
 1149 03ee CDBF      		out __SP_L__,r28
 1150               	/* prologue end (size=15) */
 1151               	.LM129:
 1152 03f0 DD24      		clr r13
 1153               	.LM130:
 1154 03f2 0D2D      		mov r16,r13
 1155               	.LM131:
 1156 03f4 0E94 0000 		call SPI_SPIInit
 1157               	.LM132:
 1158 03f8 D092 0000 		sts UseExernalDF,r13
 1159               	.LM133:
 1160 03fc 80E0      		ldi r24,lo8(pm(SPI_SPITransmit))
 1161 03fe 90E0      		ldi r25,hi8(pm(SPI_SPITransmit))
 1162 0400 9093 0000 		sts (DFSPIRoutinePointer)+1,r25
 1163 0404 8093 0000 		sts DFSPIRoutinePointer,r24
 1164               	.LM134:
 1165 0408 0E94 0000 		call DF_CheckCorrectOnboardChip
 1166 040c 8823      		tst r24
 1167 040e 09F4      		brne .+2
 1168 0410 17C1      		rjmp .L135
 1169               	.LM135:
 1170 0412 0E94 0000 		call MAIN_WaitForJoyRelease
 1171               	.LM136:
 1172 0416 81E0      		ldi r24,lo8(1)
 1173 0418 8EBB      		out 62-0x20,r24
 1174               	.L182:
 1175               	.LM137:
 1176 041a 8EB3      		in r24,62-0x20
 1177 041c 8823      		tst r24
 1178 041e E9F3      		breq .L182
 1179               	.LM138:
 1180 0420 F299      		sbic 62-0x20,2
 1181 0422 0EC1      		rjmp .L135
 1182               	.LM139:
 1183 0424 F499      		sbic 62-0x20,4
 1184 0426 1CC0      		rjmp .L138
 1185               	.LM140:
 1186 0428 F69B      		sbis 62-0x20,6
 1187 042a 06C0      		rjmp .L144
 1188               	.LM141:
 1189 042c 0023      		tst r16
 1190 042e 11F4      		brne .L145
 1191 0430 06E0      		ldi r16,lo8(6)
 1192 0432 09C0      		rjmp .L141
 1193               	.L145:
 1194 0434 0150      		subi r16,lo8(-(-1))
 1195 0436 07C0      		rjmp .L141
 1196               	.L144:
 1197               	.LM142:
 1198 0438 F79B      		sbis 62-0x20,7
 1199 043a 05C0      		rjmp .L141
 1200               	.LM143:
 1201 043c 0630      		cpi r16,lo8(6)
 1202 043e 11F4      		brne .L149
 1203 0440 00E0      		ldi r16,lo8(0)
 1204 0442 01C0      		rjmp .L141
 1205               	.L149:
 1206 0444 0F5F      		subi r16,lo8(-(1))
 1207               	.L141:
 1208               	.LBB16:
 1209               	.LM144:
 1210 0446 E02F      		mov r30,r16
 1211 0448 FF27      		clr r31
 1212 044a EE0F      		add r30,r30
 1213 044c FF1F      		adc r31,r31
 1214 044e E050      		subi r30,lo8(-(ProgOptions))
 1215 0450 F040      		sbci r31,hi8(-(ProgOptions))
 1216               	.LBE16:
 1217               	/* #APP */
 1218 0452 8591      		lpm r24, Z+
 1219 0454 9491      		lpm r25, Z
 1220               		
 1221               	/* #NOAPP */
 1222 0456 0E94 0000 		call LCD_puts_f
 1223               	.LM145:
 1224 045a 0E94 0000 		call MAIN_WaitForJoyRelease
 1225 045e DDCF      		rjmp .L182
 1226               	.L138:
 1227               	.LM146:
 1228 0460 81B3      		in r24,49-0x20
 1229 0462 8063      		ori r24,lo8(48)
 1230 0464 81BB      		out 49-0x20,r24
 1231               	.LM147:
 1232 0466 80E0      		ldi r24,lo8(WaitText)
 1233 0468 90E0      		ldi r25,hi8(WaitText)
 1234 046a 0E94 0000 		call LCD_puts_f
 1235               	.LM148:
 1236 046e 80E0      		ldi r24,lo8(Param_SCKDuration)
 1237 0470 90E0      		ldi r25,hi8(Param_SCKDuration)
 1238 0472 0E94 0000 		call eeprom_read_byte_169
 1239 0476 0E94 0000 		call USI_SPIInitMaster
 1240               	.LM149:
 1241 047a 80E0      		ldi r24,lo8(0)
 1242 047c 0E94 0000 		call MAIN_ResetCSLine
 1243               	.LM150:
 1244 0480 8091 0000 		lds r24,Prog_EnterProgMode
 1245 0484 9091 0000 		lds r25,(Prog_EnterProgMode)+1
 1246 0488 9D8B      		std Y+21,r25
 1247 048a 8C8B      		std Y+20,r24
 1248 048c 50E0      		ldi r21,lo8(PacketBytes)
 1249 048e E52E      		mov r14,r21
 1250 0490 50E0      		ldi r21,hi8(PacketBytes)
 1251 0492 F52E      		mov r15,r21
 1252 0494 1BE0      		ldi r17,lo8(11)
 1253               	.L154:
 1254               	.LBB17:
 1255               	.LM151:
 1256 0496 CE01      		movw r24,r28
 1257 0498 4496      		adiw r24,20
 1258 049a 0E94 0000 		call eeprom_read_byte_169
 1259 049e F701      		movw r30,r14
 1260 04a0 8193      		st Z+,r24
 1261 04a2 7F01      		movw r14,r30
 1262               	.LM152:
 1263 04a4 8C89      		ldd r24,Y+20
 1264 04a6 9D89      		ldd r25,Y+21
 1265 04a8 0196      		adiw r24,1
 1266 04aa 9D8B      		std Y+21,r25
 1267 04ac 8C8B      		std Y+20,r24
 1268               	.LM153:
 1269 04ae 1150      		subi r17,lo8(-(-1))
 1270 04b0 17FF      		sbrs r17,7
 1271 04b2 F1CF      		rjmp .L154
 1272               	.LBE17:
 1273               	.LM154:
 1274 04b4 0E94 0000 		call ISPCC_EnterChipProgrammingMode
 1275               	.LM155:
 1276 04b8 1092 0000 		sts CurrAddress,__zero_reg__
 1277 04bc 1092 0000 		sts (CurrAddress)+1,__zero_reg__
 1278 04c0 1092 0000 		sts (CurrAddress)+2,__zero_reg__
 1279 04c4 1092 0000 		sts (CurrAddress)+3,__zero_reg__
 1280               	.LM156:
 1281 04c8 8091 0000 		lds r24,PacketBytes+1
 1282 04cc 8823      		tst r24
 1283 04ce 09F0      		breq .+2
 1284 04d0 A2C0      		rjmp .L155
 1285               	.LM157:
 1286 04d2 0630      		cpi r16,lo8(6)
 1287 04d4 21F0      		breq .L157
 1288 04d6 0023      		tst r16
 1289 04d8 11F0      		breq .L157
 1290 04da 0230      		cpi r16,lo8(2)
 1291 04dc 91F4      		brne .L156
 1292               	.L157:
 1293               	.LM158:
 1294 04de 83E4      		ldi r24,lo8(67)
 1295 04e0 0E94 0000 		call MAIN_ShowProgType
 1296               	.LM159:
 1297 04e4 80E0      		ldi r24,lo8(Prog_EraseCmdStored)
 1298 04e6 90E0      		ldi r25,hi8(Prog_EraseCmdStored)
 1299 04e8 0E94 0000 		call eeprom_read_byte_169
 1300 04ec 8130      		cpi r24,lo8(1)
 1301 04ee 39F0      		breq .L158
 1302               	.LM160:
 1303 04f0 42E0      		ldi r20,lo8(2)
 1304 04f2 D42E      		mov r13,r20
 1305               	.LM161:
 1306 04f4 80E0      		ldi r24,lo8(__c.6)
 1307 04f6 90E0      		ldi r25,hi8(__c.6)
 1308 04f8 0E94 0000 		call MAIN_ShowError
 1309 04fc 02C0      		rjmp .L156
 1310               	.L158:
 1311               	.LM162:
 1312 04fe 0E94 0000 		call PM_SendEraseCommand
 1313               	.L156:
 1314               	.LM163:
 1315 0502 0023      		tst r16
 1316 0504 11F0      		breq .L161
 1317 0506 0230      		cpi r16,lo8(2)
 1318 0508 C1F4      		brne .L160
 1319               	.L161:
 1320 050a DD20      		tst r13
 1321 050c B1F4      		brne .L160
 1322               	.LM164:
 1323 050e 84E4      		ldi r24,lo8(68)
 1324 0510 0E94 0000 		call MAIN_ShowProgType
 1325               	.LM165:
 1326 0514 81E0      		ldi r24,lo8(1)
 1327 0516 0E94 0000 		call PM_GetStoredDataSize
 1328 051a DC01      		movw r26,r24
 1329 051c CB01      		movw r24,r22
 1330 051e 0097      		sbiw r24,0
 1331 0520 A105      		cpc r26,__zero_reg__
 1332 0522 B105      		cpc r27,__zero_reg__
 1333 0524 39F4      		brne .L162
 1334               	.LM166:
 1335 0526 33E0      		ldi r19,lo8(3)
 1336 0528 D32E      		mov r13,r19
 1337               	.LM167:
 1338 052a 80E0      		ldi r24,lo8(__c.7)
 1339 052c 90E0      		ldi r25,hi8(__c.7)
 1340 052e 0E94 0000 		call MAIN_ShowError
 1341 0532 03C0      		rjmp .L160
 1342               	.L162:
 1343               	.LM168:
 1344 0534 81E0      		ldi r24,lo8(1)
 1345 0536 0E94 0000 		call PM_CreateProgrammingPackets
 1346               	.L160:
 1347               	.LM169:
 1348 053a 802F      		mov r24,r16
 1349 053c 8150      		subi r24,lo8(-(-1))
 1350 053e 8230      		cpi r24,lo8(2)
 1351 0540 B0F4      		brsh .L164
 1352               	.LM170:
 1353 0542 85E4      		ldi r24,lo8(69)
 1354 0544 0E94 0000 		call MAIN_ShowProgType
 1355               	.LM171:
 1356 0548 80E0      		ldi r24,lo8(0)
 1357 054a 0E94 0000 		call PM_GetStoredDataSize
 1358 054e DC01      		movw r26,r24
 1359 0550 CB01      		movw r24,r22
 1360 0552 0097      		sbiw r24,0
 1361 0554 A105      		cpc r26,__zero_reg__
 1362 0556 B105      		cpc r27,__zero_reg__
 1363 0558 39F4      		brne .L165
 1364               	.LM172:
 1365 055a 23E0      		ldi r18,lo8(3)
 1366 055c D22E      		mov r13,r18
 1367               	.LM173:
 1368 055e 80E0      		ldi r24,lo8(__c.8)
 1369 0560 90E0      		ldi r25,hi8(__c.8)
 1370 0562 0E94 0000 		call MAIN_ShowError
 1371 0566 03C0      		rjmp .L164
 1372               	.L165:
 1373               	.LM174:
 1374 0568 80E0      		ldi r24,lo8(0)
 1375 056a 0E94 0000 		call PM_CreateProgrammingPackets
 1376               	.L164:
 1377               	.LM175:
 1378 056e 0330      		cpi r16,lo8(3)
 1379 0570 11F0      		breq .L168
 1380 0572 0530      		cpi r16,lo8(5)
 1381 0574 99F4      		brne .L167
 1382               	.L168:
 1383               	.LM176:
 1384 0576 86E4      		ldi r24,lo8(70)
 1385 0578 0E94 0000 		call MAIN_ShowProgType
 1386               	.LM177:
 1387 057c 80E0      		ldi r24,lo8(Prog_TotalFuseBytes)
 1388 057e 90E0      		ldi r25,hi8(Prog_TotalFuseBytes)
 1389 0580 0E94 0000 		call eeprom_read_byte_169
 1390 0584 8823      		tst r24
 1391 0586 39F4      		brne .L169
 1392               	.LM178:
 1393 0588 93E0      		ldi r25,lo8(3)
 1394 058a D92E      		mov r13,r25
 1395               	.LM179:
 1396 058c 80E0      		ldi r24,lo8(__c.9)
 1397 058e 90E0      		ldi r25,hi8(__c.9)
 1398 0590 0E94 0000 		call MAIN_ShowError
 1399 0594 03C0      		rjmp .L167
 1400               	.L169:
 1401               	.LM180:
 1402 0596 82E0      		ldi r24,lo8(2)
 1403 0598 0E94 0000 		call PM_SendFuseLockBytes
 1404               	.L167:
 1405               	.LM181:
 1406 059c 802F      		mov r24,r16
 1407 059e 8450      		subi r24,lo8(-(-4))
 1408 05a0 8230      		cpi r24,lo8(2)
 1409 05a2 00F5      		brsh .L171
 1410               	.LM182:
 1411 05a4 0530      		cpi r16,lo8(5)
 1412 05a6 59F4      		brne .L172
 1413               	.LM183:
 1414 05a8 81E0      		ldi r24,lo8(1)
 1415 05aa 0E94 0000 		call MAIN_ResetCSLine
 1416               	.LM184:
 1417 05ae 81E0      		ldi r24,lo8(1)
 1418 05b0 0E94 0000 		call MAIN_Delay10MS
 1419               	.LM185:
 1420 05b4 80E0      		ldi r24,lo8(0)
 1421 05b6 0E94 0000 		call MAIN_ResetCSLine
 1422               	.LM186:
 1423 05ba 0E94 0000 		call ISPCC_EnterChipProgrammingMode
 1424               	.L172:
 1425               	.LM187:
 1426 05be 8CE4      		ldi r24,lo8(76)
 1427 05c0 0E94 0000 		call MAIN_ShowProgType
 1428               	.LM188:
 1429 05c4 80E0      		ldi r24,lo8(Prog_TotalLockBytes)
 1430 05c6 90E0      		ldi r25,hi8(Prog_TotalLockBytes)
 1431 05c8 0E94 0000 		call eeprom_read_byte_169
 1432 05cc 8823      		tst r24
 1433 05ce 39F4      		brne .L173
 1434               	.LM189:
 1435 05d0 83E0      		ldi r24,lo8(3)
 1436 05d2 D82E      		mov r13,r24
 1437               	.LM190:
 1438 05d4 80E0      		ldi r24,lo8(__c.10)
 1439 05d6 90E0      		ldi r25,hi8(__c.10)
 1440 05d8 0E94 0000 		call MAIN_ShowError
 1441 05dc 03C0      		rjmp .L171
 1442               	.L173:
 1443               	.LM191:
 1444 05de 83E0      		ldi r24,lo8(3)
 1445 05e0 0E94 0000 		call PM_SendFuseLockBytes
 1446               	.L171:
 1447               	.LM192:
 1448 05e4 60E0      		ldi r22,lo8(__c.11)
 1449 05e6 70E0      		ldi r23,hi8(__c.11)
 1450 05e8 CE01      		movw r24,r28
 1451 05ea 0196      		adiw r24,1
 1452 05ec 0E94 0000 		call strcpy_P
 1453               	.LM193:
 1454 05f0 DD20      		tst r13
 1455 05f2 31F0      		breq .L175
 1456               	.LM194:
 1457 05f4 60E0      		ldi r22,lo8(__c.12)
 1458 05f6 70E0      		ldi r23,hi8(__c.12)
 1459 05f8 CE01      		movw r24,r28
 1460 05fa 0D96      		adiw r24,13
 1461 05fc 0E94 0000 		call strcpy_P
 1462               	.L175:
 1463               	.LM195:
 1464 0600 CE01      		movw r24,r28
 1465 0602 0196      		adiw r24,1
 1466 0604 0E94 0000 		call LCD_puts
 1467               	.LM196:
 1468 0608 8FEF      		ldi r24,lo8(-1)
 1469 060a 0E94 0000 		call MAIN_Delay10MS
 1470               	.LM197:
 1471 060e 84E6      		ldi r24,lo8(100)
 1472 0610 0E94 0000 		call MAIN_Delay10MS
 1473 0614 04C0      		rjmp .L176
 1474               	.L155:
 1475               	.LM198:
 1476 0616 80E0      		ldi r24,lo8(SyncErrorMessage)
 1477 0618 90E0      		ldi r25,hi8(SyncErrorMessage)
 1478 061a 0E94 0000 		call MAIN_ShowError
 1479               	.L176:
 1480               	.LM199:
 1481 061e 81E0      		ldi r24,lo8(1)
 1482 0620 0E94 0000 		call MAIN_ResetCSLine
 1483               	.LM200:
 1484 0624 0E94 0000 		call USI_SPIOff
 1485               	.LM201:
 1486 0628 80E0      		ldi r24,lo8(0)
 1487 062a 0E94 0000 		call DF_EnableDataflash
 1488               	.LM202:
 1489 062e 8091 6400 		lds r24,100
 1490 0632 8460      		ori r24,lo8(4)
 1491 0634 8093 6400 		sts 100,r24
 1492               	.LM203:
 1493 0638 81B3      		in r24,49-0x20
 1494 063a 8F7C      		andi r24,lo8(-49)
 1495 063c 8061      		ori r24,lo8(16)
 1496 063e 81BB      		out 49-0x20,r24
 1497               	.L135:
 1498               	/* epilogue: frame size=21 */
 1499 0640 6596      		adiw r28,21
 1500 0642 0FB6      		in __tmp_reg__,__SREG__
 1501 0644 F894      		cli
 1502 0646 DEBF      		out __SP_H__,r29
 1503 0648 0FBE      		out __SREG__,__tmp_reg__
 1504 064a CDBF      		out __SP_L__,r28
 1505 064c DF91      		pop r29
 1506 064e CF91      		pop r28
 1507 0650 1F91      		pop r17
 1508 0652 0F91      		pop r16
 1509 0654 FF90      		pop r15
 1510 0656 EF90      		pop r14
 1511 0658 DF90      		pop r13
 1512 065a 0895      		ret
 1513               	/* epilogue end (size=14) */
 1514               	/* function FUNCProgramAVR size 329 (300) */
 1515               	.LFE22:
 1517               		.section	.progmem.data
 1520               	__c.5:
 1521 0271 2A53 544F 		.string	"*STORAGE MODE*"
 1521      5241 4745 
 1521      204D 4F44 
 1521      452A 00
 1522               		.text
 1523               	.global	FUNCStoreProgram
 1525               	FUNCStoreProgram:
 1526               	.LFB23:
 1527               	.LM204:
 1528               	/* prologue: frame size=0 */
 1529               	/* prologue end (size=0) */
 1530               	.LM205:
 1531 065c 80E0      		ldi r24,lo8(pm(SPI_SPITransmit))
 1532 065e 90E0      		ldi r25,hi8(pm(SPI_SPITransmit))
 1533 0660 9093 0000 		sts (DFSPIRoutinePointer)+1,r25
 1534 0664 8093 0000 		sts DFSPIRoutinePointer,r24
 1535               	.LM206:
 1536 0668 0E94 0000 		call SPI_SPIInit
 1537               	.LM207:
 1538 066c 1092 0000 		sts UseExernalDF,__zero_reg__
 1539               	.LM208:
 1540 0670 81E0      		ldi r24,lo8(1)
 1541 0672 0E94 0000 		call DF_EnableDataflash
 1542               	.LM209:
 1543 0676 0E94 0000 		call DF_CheckCorrectOnboardChip
 1544 067a 8823      		tst r24
 1545 067c A1F0      		breq .L183
 1546               	.LM210:
 1547 067e 80E0      		ldi r24,lo8(__c.5)
 1548 0680 90E0      		ldi r25,hi8(__c.5)
 1549 0682 0E94 0000 		call LCD_puts_f
 1550               	.LM211:
 1551 0686 80E0      		ldi r24,lo8(pm(PM_InterpretAVRISPPacket))
 1552 0688 90E0      		ldi r25,hi8(pm(PM_InterpretAVRISPPacket))
 1553 068a 9093 0000 		sts (InterpretPacketRoutine)+1,r25
 1554 068e 8093 0000 		sts InterpretPacketRoutine,r24
 1555               	.LM212:
 1556 0692 0E94 0000 		call V2P_RunStateMachine
 1557               	.LM213:
 1558 0696 80E0      		ldi r24,lo8(0)
 1559 0698 0E94 0000 		call DF_EnableDataflash
 1560               	.LM214:
 1561 069c 8091 6400 		lds r24,100
 1562 06a0 8460      		ori r24,lo8(4)
 1563 06a2 8093 6400 		sts 100,r24
 1564               	.L183:
 1565 06a6 0895      		ret
 1566               	/* epilogue: frame size=0 */
 1567               	/* epilogue: noreturn */
 1568               	/* epilogue end (size=0) */
 1569               	/* function FUNCStoreProgram size 38 (38) */
 1570               	.LFE23:
 1572               		.section	.progmem.data
 1575               	__c.2:
 1576 0280 434F 4E46 		.string	"CONFIRM"
 1576      4952 4D00 
 1579               	__c.3:
 1580 0288 3C4E 2059 		.string	"<N Y>"
 1580      3E00 
 1583               	__c.4:
 1584 028e 4D45 4D20 		.string	"MEM CLEARED"
 1584      434C 4541 
 1584      5245 4400 
 1585               		.text
 1586               	.global	FUNCClearMem
 1588               	FUNCClearMem:
 1589               	.LFB24:
 1590               	.LM215:
 1591               	/* prologue: frame size=2 */
 1592 06a8 0F93      		push r16
 1593 06aa 1F93      		push r17
 1594 06ac CF93      		push r28
 1595 06ae DF93      		push r29
 1596 06b0 CDB7      		in r28,__SP_L__
 1597 06b2 DEB7      		in r29,__SP_H__
 1598 06b4 2297      		sbiw r28,2
 1599 06b6 0FB6      		in __tmp_reg__,__SREG__
 1600 06b8 F894      		cli
 1601 06ba DEBF      		out __SP_H__,r29
 1602 06bc 0FBE      		out __SREG__,__tmp_reg__
 1603 06be CDBF      		out __SP_L__,r28
 1604               	/* prologue end (size=12) */
 1605               	.LM216:
 1606 06c0 80E0      		ldi r24,lo8(__c.2)
 1607 06c2 90E0      		ldi r25,hi8(__c.2)
 1608 06c4 0E94 0000 		call LCD_puts_f
 1609               	.LM217:
 1610 06c8 84EB      		ldi r24,lo8(-76)
 1611 06ca 0E94 0000 		call MAIN_Delay10MS
 1612               	.LM218:
 1613 06ce 80E0      		ldi r24,lo8(__c.3)
 1614 06d0 90E0      		ldi r25,hi8(__c.3)
 1615 06d2 0E94 0000 		call LCD_puts_f
 1616               	.L201:
 1617               	.LM219:
 1618 06d6 8EB3      		in r24,62-0x20
 1619 06d8 8823      		tst r24
 1620 06da E9F3      		breq .L201
 1621               	.LM220:
 1622 06dc 8EB3      		in r24,62-0x20
 1623 06de 9927      		clr r25
 1624 06e0 8C01      		movw r16,r24
 1625 06e2 0470      		andi r16,lo8(4)
 1626 06e4 1070      		andi r17,hi8(4)
 1627 06e6 82FD      		sbrc r24,2
 1628 06e8 29C0      		rjmp .L185
 1629               	.LM221:
 1630 06ea F39B      		sbis 62-0x20,3
 1631 06ec F4CF      		rjmp .L201
 1632               	.LM222:
 1633 06ee 0E94 0000 		call MAIN_WaitForJoyRelease
 1634               	.LM223:
 1635 06f2 80E0      		ldi r24,lo8(WaitText)
 1636 06f4 90E0      		ldi r25,hi8(WaitText)
 1637 06f6 0E94 0000 		call LCD_puts_f
 1638               	.LBB18:
 1639               	.LM224:
 1640 06fa 1A83      		std Y+2,r17
 1641 06fc 0983      		std Y+1,r16
 1642 06fe 8091 0000 		lds r24,Sys_MagicNumber
 1643 0702 9091 0000 		lds r25,(Sys_MagicNumber)+1
 1644 0706 0817      		cp r16,r24
 1645 0708 1907      		cpc r17,r25
 1646 070a 88F4      		brsh .L197
 1647               	.L195:
 1648               	.LM225:
 1649 070c 6FEF      		ldi r22,lo8(-1)
 1650 070e CE01      		movw r24,r28
 1651 0710 0196      		adiw r24,1
 1652 0712 0E94 0000 		call eeprom_write_byte_169
 1653               	.LM226:
 1654 0716 8981      		ldd r24,Y+1
 1655 0718 9A81      		ldd r25,Y+2
 1656 071a 0196      		adiw r24,1
 1657 071c 9A83      		std Y+2,r25
 1658 071e 8983      		std Y+1,r24
 1659 0720 2091 0000 		lds r18,Sys_MagicNumber
 1660 0724 3091 0000 		lds r19,(Sys_MagicNumber)+1
 1661 0728 8217      		cp r24,r18
 1662 072a 9307      		cpc r25,r19
 1663 072c 78F3      		brlo .L195
 1664               	.L197:
 1665               	.LBE18:
 1666               	.LM227:
 1667 072e 80E0      		ldi r24,lo8(__c.4)
 1668 0730 90E0      		ldi r25,hi8(__c.4)
 1669 0732 0E94 0000 		call LCD_puts_f
 1670               	.LM228:
 1671 0736 8FEF      		ldi r24,lo8(-1)
 1672 0738 0E94 0000 		call MAIN_Delay10MS
 1673               	.L185:
 1674               	/* epilogue: frame size=2 */
 1675 073c 2296      		adiw r28,2
 1676 073e 0FB6      		in __tmp_reg__,__SREG__
 1677 0740 F894      		cli
 1678 0742 DEBF      		out __SP_H__,r29
 1679 0744 0FBE      		out __SREG__,__tmp_reg__
 1680 0746 CDBF      		out __SP_L__,r28
 1681 0748 DF91      		pop r29
 1682 074a CF91      		pop r28
 1683 074c 1F91      		pop r17
 1684 074e 0F91      		pop r16
 1685 0750 0895      		ret
 1686               	/* epilogue end (size=11) */
 1687               	/* function FUNCClearMem size 85 (62) */
 1688               	.LFE24:
 1690               	.global	FUNCAutoCalib
 1692               	FUNCAutoCalib:
 1693               	.LFB25:
 1694               	.LM229:
 1695               	/* prologue: frame size=0 */
 1696               	/* prologue end (size=0) */
 1697               	.LM230:
 1698 0752 80E0      		ldi r24,lo8(WaitText)
 1699 0754 90E0      		ldi r25,hi8(WaitText)
 1700 0756 0E94 0000 		call LCD_puts_f
 1701               	.LM231:
 1702 075a 0E94 0000 		call OSCCAL_Calibrate
 1703               	/* epilogue: frame size=0 */
 1704 075e 0895      		ret
 1705               	/* epilogue end (size=1) */
 1706               	/* function FUNCAutoCalib size 7 (6) */
 1707               	.LFE25:
 1709               	.global	FUNCManCalib
 1711               	FUNCManCalib:
 1712               	.LFB26:
 1713               	.LM232:
 1714               	/* prologue: frame size=9 */
 1715 0760 CF93      		push r28
 1716 0762 DF93      		push r29
 1717 0764 CDB7      		in r28,__SP_L__
 1718 0766 DEB7      		in r29,__SP_H__
 1719 0768 2997      		sbiw r28,9
 1720 076a 0FB6      		in __tmp_reg__,__SREG__
 1721 076c F894      		cli
 1722 076e DEBF      		out __SP_H__,r29
 1723 0770 0FBE      		out __SREG__,__tmp_reg__
 1724 0772 CDBF      		out __SP_L__,r28
 1725               	/* prologue end (size=10) */
 1726               	.LM233:
 1727 0774 81E0      		ldi r24,lo8(1)
 1728 0776 8EBB      		out 62-0x20,r24
 1729               	.LM234:
 1730 0778 8091 C100 		lds r24,193
 1731 077c 8078      		andi r24,lo8(-128)
 1732 077e 8860      		ori r24,lo8(8)
 1733 0780 8093 C100 		sts 193,r24
 1734               	.L217:
 1735               	.LM235:
 1736 0784 8091 0000 		lds r24,BuffElements
 1737 0788 8823      		tst r24
 1738 078a 21F0      		breq .L206
 1739               	.LM236:
 1740 078c 0E94 0000 		call BUFF_GetBuffByte
 1741 0790 0E94 0000 		call USART_Tx
 1742               	.L206:
 1743               	.LM237:
 1744 0794 8EB3      		in r24,62-0x20
 1745 0796 8823      		tst r24
 1746 0798 A9F3      		breq .L217
 1747               	.LM238:
 1748 079a F69B      		sbis 62-0x20,6
 1749 079c 04C0      		rjmp .L208
 1750               	.LM239:
 1751 079e 8091 6600 		lds r24,102
 1752 07a2 8F5F      		subi r24,lo8(-(1))
 1753 07a4 05C0      		rjmp .L216
 1754               	.L208:
 1755               	.LM240:
 1756 07a6 F79B      		sbis 62-0x20,7
 1757 07a8 06C0      		rjmp .L210
 1758               	.LM241:
 1759 07aa 8091 6600 		lds r24,102
 1760 07ae 8150      		subi r24,lo8(-(-1))
 1761               	.L216:
 1762 07b0 8093 6600 		sts 102,r24
 1763 07b4 02C0      		rjmp .L209
 1764               	.L210:
 1765               	.LM242:
 1766 07b6 F299      		sbic 62-0x20,2
 1767 07b8 1FC0      		rjmp .L205
 1768               	.L209:
 1769               	.LM243:
 1770 07ba 60E0      		ldi r22,lo8(ProgrammerName)
 1771 07bc 70E0      		ldi r23,hi8(ProgrammerName)
 1772 07be CE01      		movw r24,r28
 1773 07c0 0196      		adiw r24,1
 1774 07c2 0E94 0000 		call strcpy_P
 1775               	.LM244:
 1776 07c6 CE01      		movw r24,r28
 1777 07c8 0196      		adiw r24,1
 1778 07ca 0E94 0000 		call USART_TxString
 1779               	.LM245:
 1780 07ce 83E4      		ldi r24,lo8(67)
 1781 07d0 8983      		std Y+1,r24
 1782               	.LM246:
 1783 07d2 86E5      		ldi r24,lo8(86)
 1784 07d4 8A83      		std Y+2,r24
 1785               	.LM247:
 1786 07d6 80E2      		ldi r24,lo8(32)
 1787 07d8 8B83      		std Y+3,r24
 1788               	.LM248:
 1789 07da 8091 6600 		lds r24,102
 1790 07de BE01      		movw r22,r28
 1791 07e0 6C5F      		subi r22,lo8(-(4))
 1792 07e2 7F4F      		sbci r23,hi8(-(4))
 1793 07e4 9927      		clr r25
 1794 07e6 0E94 0000 		call MAIN_IntToStr
 1795               	.LM249:
 1796 07ea CE01      		movw r24,r28
 1797 07ec 0196      		adiw r24,1
 1798 07ee 0E94 0000 		call LCD_puts
 1799               	.LM250:
 1800 07f2 0E94 0000 		call MAIN_WaitForJoyRelease
 1801 07f6 C6CF      		rjmp .L217
 1802               	.L205:
 1803               	.LM251:
 1804 07f8 8091 C100 		lds r24,193
 1805 07fc 8078      		andi r24,lo8(-128)
 1806 07fe 8093 C100 		sts 193,r24
 1807               	/* epilogue: frame size=9 */
 1808 0802 2996      		adiw r28,9
 1809 0804 0FB6      		in __tmp_reg__,__SREG__
 1810 0806 F894      		cli
 1811 0808 DEBF      		out __SP_H__,r29
 1812 080a 0FBE      		out __SREG__,__tmp_reg__
 1813 080c CDBF      		out __SP_L__,r28
 1814 080e DF91      		pop r29
 1815 0810 CF91      		pop r28
 1816 0812 0895      		ret
 1817               	/* epilogue end (size=9) */
 1818               	/* function FUNCManCalib size 90 (71) */
 1819               	.LFE26:
 1821               	.global	FUNCSetContrast
 1823               	FUNCSetContrast:
 1824               	.LFB27:
 1825               	.LM252:
 1826               	/* prologue: frame size=6 */
 1827 0814 1F93      		push r17
 1828 0816 CF93      		push r28
 1829 0818 DF93      		push r29
 1830 081a CDB7      		in r28,__SP_L__
 1831 081c DEB7      		in r29,__SP_H__
 1832 081e 2697      		sbiw r28,6
 1833 0820 0FB6      		in __tmp_reg__,__SREG__
 1834 0822 F894      		cli
 1835 0824 DEBF      		out __SP_H__,r29
 1836 0826 0FBE      		out __SREG__,__tmp_reg__
 1837 0828 CDBF      		out __SP_L__,r28
 1838               	/* prologue end (size=11) */
 1839               	.LM253:
 1840 082a 80E0      		ldi r24,lo8(Sys_LCDContrast)
 1841 082c 90E0      		ldi r25,hi8(Sys_LCDContrast)
 1842 082e 0E94 0000 		call eeprom_read_byte_169
 1843 0832 182F      		mov r17,r24
 1844 0834 1F70      		andi r17,lo8(15)
 1845               	.LM254:
 1846 0836 81E0      		ldi r24,lo8(1)
 1847 0838 8EBB      		out 62-0x20,r24
 1848               	.L232:
 1849               	.LM255:
 1850 083a 8EB3      		in r24,62-0x20
 1851 083c 8823      		tst r24
 1852 083e E9F3      		breq .L232
 1853               	.LM256:
 1854 0840 F69B      		sbis 62-0x20,6
 1855 0842 04C0      		rjmp .L222
 1856               	.LM257:
 1857 0844 1F30      		cpi r17,lo8(15)
 1858 0846 80F4      		brsh .L224
 1859               	.LM258:
 1860 0848 1F5F      		subi r17,lo8(-(1))
 1861 084a 0EC0      		rjmp .L224
 1862               	.L222:
 1863               	.LM259:
 1864 084c F79B      		sbis 62-0x20,7
 1865 084e 04C0      		rjmp .L225
 1866               	.LM260:
 1867 0850 1230      		cpi r17,lo8(2)
 1868 0852 50F0      		brlo .L224
 1869               	.LM261:
 1870 0854 1150      		subi r17,lo8(-(-1))
 1871 0856 08C0      		rjmp .L224
 1872               	.L225:
 1873               	.LM262:
 1874 0858 F29B      		sbis 62-0x20,2
 1875 085a 06C0      		rjmp .L224
 1876               	.LM263:
 1877 085c 612F      		mov r22,r17
 1878 085e 80E0      		ldi r24,lo8(Sys_LCDContrast)
 1879 0860 90E0      		ldi r25,hi8(Sys_LCDContrast)
 1880 0862 0E94 0000 		call eeprom_write_byte_169
 1881               	.LM264:
 1882 0866 18C0      		rjmp .L218
 1883               	.L224:
 1884               	.LM265:
 1885 0868 83E4      		ldi r24,lo8(67)
 1886 086a 8983      		std Y+1,r24
 1887               	.LM266:
 1888 086c 84E5      		ldi r24,lo8(84)
 1889 086e 8A83      		std Y+2,r24
 1890               	.LM267:
 1891 0870 80E2      		ldi r24,lo8(32)
 1892 0872 8B83      		std Y+3,r24
 1893               	.LM268:
 1894 0874 BE01      		movw r22,r28
 1895 0876 6C5F      		subi r22,lo8(-(4))
 1896 0878 7F4F      		sbci r23,hi8(-(4))
 1897 087a 812F      		mov r24,r17
 1898 087c 9927      		clr r25
 1899 087e 0E94 0000 		call MAIN_IntToStr
 1900               	.LM269:
 1901 0882 CE01      		movw r24,r28
 1902 0884 0196      		adiw r24,1
 1903 0886 0E94 0000 		call LCD_puts
 1904               	.LM270:
 1905 088a 812F      		mov r24,r17
 1906 088c 8F70      		andi r24,lo8(15)
 1907 088e 8093 E700 		sts 231,r24
 1908               	.LM271:
 1909 0892 0E94 0000 		call MAIN_WaitForJoyRelease
 1910 0896 D1CF      		rjmp .L232
 1911               	.L218:
 1912               	/* epilogue: frame size=6 */
 1913 0898 2696      		adiw r28,6
 1914 089a 0FB6      		in __tmp_reg__,__SREG__
 1915 089c F894      		cli
 1916 089e DEBF      		out __SP_H__,r29
 1917 08a0 0FBE      		out __SREG__,__tmp_reg__
 1918 08a2 CDBF      		out __SP_L__,r28
 1919 08a4 DF91      		pop r29
 1920 08a6 CF91      		pop r28
 1921 08a8 1F91      		pop r17
 1922 08aa 0895      		ret
 1923               	/* epilogue end (size=10) */
 1924               	/* function FUNCSetContrast size 76 (55) */
 1925               	.LFE27:
 1927               	.global	FUNCSetISPSpeed
 1929               	FUNCSetISPSpeed:
 1930               	.LFB28:
 1931               	.LM272:
 1932               	/* prologue: frame size=0 */
 1933 08ac CF93      		push r28
 1934               	/* prologue end (size=1) */
 1935               	.LM273:
 1936 08ae 81E0      		ldi r24,lo8(1)
 1937 08b0 8EBB      		out 62-0x20,r24
 1938               	.LM274:
 1939 08b2 80E0      		ldi r24,lo8(Param_SCKDuration)
 1940 08b4 90E0      		ldi r25,hi8(Param_SCKDuration)
 1941 08b6 0E94 0000 		call eeprom_read_byte_169
 1942 08ba C82F      		mov r28,r24
 1943               	.LM275:
 1944 08bc 8430      		cpi r24,lo8(4)
 1945 08be 08F0      		brlo .L250
 1946               	.LM276:
 1947 08c0 C0E0      		ldi r28,lo8(0)
 1948               	.L250:
 1949               	.LM277:
 1950 08c2 8EB3      		in r24,62-0x20
 1951 08c4 8823      		tst r24
 1952 08c6 E9F3      		breq .L250
 1953               	.LM278:
 1954 08c8 F69B      		sbis 62-0x20,6
 1955 08ca 06C0      		rjmp .L238
 1956               	.LM279:
 1957 08cc CC23      		tst r28
 1958 08ce 11F4      		brne .L239
 1959 08d0 C3E0      		ldi r28,lo8(3)
 1960 08d2 12C0      		rjmp .L241
 1961               	.L239:
 1962 08d4 C150      		subi r28,lo8(-(-1))
 1963 08d6 10C0      		rjmp .L241
 1964               	.L238:
 1965               	.LM280:
 1966 08d8 F79B      		sbis 62-0x20,7
 1967 08da 06C0      		rjmp .L242
 1968               	.LM281:
 1969 08dc C330      		cpi r28,lo8(3)
 1970 08de 11F4      		brne .L243
 1971 08e0 C0E0      		ldi r28,lo8(0)
 1972 08e2 0AC0      		rjmp .L241
 1973               	.L243:
 1974 08e4 CF5F      		subi r28,lo8(-(1))
 1975 08e6 08C0      		rjmp .L241
 1976               	.L242:
 1977               	.LM282:
 1978 08e8 F29B      		sbis 62-0x20,2
 1979 08ea 06C0      		rjmp .L241
 1980               	.LM283:
 1981 08ec 6C2F      		mov r22,r28
 1982 08ee 80E0      		ldi r24,lo8(Param_SCKDuration)
 1983 08f0 90E0      		ldi r25,hi8(Param_SCKDuration)
 1984 08f2 0E94 0000 		call eeprom_write_byte_169
 1985               	.LM284:
 1986 08f6 0DC0      		rjmp .L233
 1987               	.L241:
 1988               	.LBB19:
 1989               	.LM285:
 1990 08f8 EC2F      		mov r30,r28
 1991 08fa FF27      		clr r31
 1992 08fc EE0F      		add r30,r30
 1993 08fe FF1F      		adc r31,r31
 1994 0900 E050      		subi r30,lo8(-(USIPSNamePtrs))
 1995 0902 F040      		sbci r31,hi8(-(USIPSNamePtrs))
 1996               	.LBE19:
 1997               	/* #APP */
 1998 0904 8591      		lpm r24, Z+
 1999 0906 9491      		lpm r25, Z
 2000               		
 2001               	/* #NOAPP */
 2002 0908 0E94 0000 		call LCD_puts_f
 2003               	.LM286:
 2004 090c 0E94 0000 		call MAIN_WaitForJoyRelease
 2005 0910 D8CF      		rjmp .L250
 2006               	.L233:
 2007               	/* epilogue: frame size=0 */
 2008 0912 CF91      		pop r28
 2009 0914 0895      		ret
 2010               	/* epilogue end (size=2) */
 2011               	/* function FUNCSetISPSpeed size 57 (54) */
 2012               	.LFE28:
 2014               	.global	FUNCSleepMode
 2016               	FUNCSleepMode:
 2017               	.LFB29:
 2018               	.LM287:
 2019               	/* prologue: frame size=0 */
 2020               	/* prologue end (size=0) */
 2021               	.LM288:
 2022 0916 85E0      		ldi r24,lo8(5)
 2023 0918 83BF      		out 83-0x20,r24
 2024               	.LM289:
 2025 091a 8091 E400 		lds r24,228
 2026 091e 8F77      		andi r24,lo8(127)
 2027 0920 8093 E400 		sts 228,r24
 2028               	.LM290:
 2029 0924 F699      		sbic 62-0x20,6
 2030 0926 03C0      		rjmp .L256
 2031               	.L254:
 2032               	.LM291:
 2033               	/* #APP */
 2034 0928 8895      		sleep
 2035               	/* #NOAPP */
 2036 092a F69B      		sbis 62-0x20,6
 2037 092c FDCF      		rjmp .L254
 2038               	.L256:
 2039               	.LM292:
 2040 092e 8091 E400 		lds r24,228
 2041 0932 8068      		ori r24,lo8(-128)
 2042 0934 8093 E400 		sts 228,r24
 2043               	.LM293:
 2044 0938 80E0      		ldi r24,lo8(WaitText)
 2045 093a 90E0      		ldi r25,hi8(WaitText)
 2046 093c 0E94 0000 		call LCD_puts_f
 2047               	.LM294:
 2048 0940 0E94 0000 		call OSCCAL_Calibrate
 2049               	.LM295:
 2050 0944 0E94 0000 		call MAIN_WaitForJoyRelease
 2051               	/* epilogue: frame size=0 */
 2052 0948 0895      		ret
 2053               	/* epilogue end (size=1) */
 2054               	/* function FUNCSleepMode size 27 (26) */
 2055               	.LFE29:
 2057               		.section	.progmem.data
 2060               	__c.1:
 2061 029a 4E4F 2053 		.string	"NO STORED PRGM"
 2061      544F 5245 
 2061      4420 5052 
 2061      474D 00
 2062               		.text
 2063               	.global	FUNCStorageInfo
 2065               	FUNCStorageInfo:
 2066               	.LFB30:
 2067               	.LM296:
 2068               	/* prologue: frame size=0 */
 2069 094a 1F93      		push r17
 2070 094c CF93      		push r28
 2071               	/* prologue end (size=2) */
 2072               	.LM297:
 2073 094e 10E0      		ldi r17,lo8(0)
 2074               	.LM298:
 2075 0950 0E94 0000 		call MAIN_WaitForJoyRelease
 2076               	.LM299:
 2077 0954 81E0      		ldi r24,lo8(1)
 2078 0956 8EBB      		out 62-0x20,r24
 2079               	.L274:
 2080               	.LM300:
 2081 0958 8EB3      		in r24,62-0x20
 2082 095a 8823      		tst r24
 2083 095c E9F3      		breq .L274
 2084               	.LM301:
 2085 095e CEB3      		in r28,62-0x20
 2086 0960 C07C      		andi r28,lo8(-64)
 2087 0962 19F0      		breq .L261
 2088               	.LM302:
 2089 0964 81E0      		ldi r24,lo8(1)
 2090 0966 1827      		eor r17,r24
 2091 0968 38C0      		rjmp .L262
 2092               	.L261:
 2093               	.LM303:
 2094 096a F299      		sbic 62-0x20,2
 2095 096c 43C0      		rjmp .L257
 2096               	.LM304:
 2097 096e F49B      		sbis 62-0x20,4
 2098 0970 34C0      		rjmp .L262
 2099               	.LM305:
 2100 0972 1130      		cpi r17,lo8(1)
 2101 0974 81F5      		brne .L266
 2102               	.LM306:
 2103 0976 80E0      		ldi r24,lo8(pm(SPI_SPITransmit))
 2104 0978 90E0      		ldi r25,hi8(pm(SPI_SPITransmit))
 2105 097a 9093 0000 		sts (DFSPIRoutinePointer)+1,r25
 2106 097e 8093 0000 		sts DFSPIRoutinePointer,r24
 2107               	.LM307:
 2108 0982 0E94 0000 		call SPI_SPIInit
 2109               	.LM308:
 2110 0986 C093 0000 		sts UseExernalDF,r28
 2111               	.LM309:
 2112 098a 812F      		mov r24,r17
 2113 098c 0E94 0000 		call DF_EnableDataflash
 2114               	.LM310:
 2115 0990 0E94 0000 		call DF_CheckCorrectOnboardChip
 2116 0994 C82F      		mov r28,r24
 2117 0996 8823      		tst r24
 2118 0998 41F0      		breq .L267
 2119               	.LM311:
 2120 099a 0E94 0000 		call TM_ShowTags
 2121               	.LM312:
 2122 099e 8091 6400 		lds r24,100
 2123 09a2 8460      		ori r24,lo8(4)
 2124 09a4 8093 6400 		sts 100,r24
 2125 09a8 18C0      		rjmp .L262
 2126               	.L267:
 2127               	.LM313:
 2128 09aa 812F      		mov r24,r17
 2129 09ac 0E94 0000 		call PM_GetStoredDataSize
 2130 09b0 DC01      		movw r26,r24
 2131 09b2 CB01      		movw r24,r22
 2132 09b4 0097      		sbiw r24,0
 2133 09b6 A105      		cpc r26,__zero_reg__
 2134 09b8 B105      		cpc r27,__zero_reg__
 2135 09ba 79F4      		brne .L262
 2136               	.LM314:
 2137 09bc 8C2F      		mov r24,r28
 2138 09be 0E94 0000 		call DF_EnableDataflash
 2139               	.LM315:
 2140 09c2 8091 6400 		lds r24,100
 2141 09c6 8460      		ori r24,lo8(4)
 2142 09c8 8093 6400 		sts 100,r24
 2143               	.LM316:
 2144 09cc 80E0      		ldi r24,lo8(__c.1)
 2145 09ce 90E0      		ldi r25,hi8(__c.1)
 2146 09d0 0E94 0000 		call MAIN_ShowError
 2147 09d4 02C0      		rjmp .L262
 2148               	.L266:
 2149               	.LM317:
 2150 09d6 0E94 0000 		call PM_ShowStoredItemSizes
 2151               	.L262:
 2152               	.LBB20:
 2153               	.LM318:
 2154 09da E12F      		mov r30,r17
 2155 09dc FF27      		clr r31
 2156 09de EE0F      		add r30,r30
 2157 09e0 FF1F      		adc r31,r31
 2158 09e2 E050      		subi r30,lo8(-(SIFOOptionPtrs))
 2159 09e4 F040      		sbci r31,hi8(-(SIFOOptionPtrs))
 2160               	.LBE20:
 2161               	/* #APP */
 2162 09e6 8591      		lpm r24, Z+
 2163 09e8 9491      		lpm r25, Z
 2164               		
 2165               	/* #NOAPP */
 2166 09ea 0E94 0000 		call LCD_puts_f
 2167               	.LM319:
 2168 09ee 0E94 0000 		call MAIN_WaitForJoyRelease
 2169 09f2 B2CF      		rjmp .L274
 2170               	.L257:
 2171               	/* epilogue: frame size=0 */
 2172 09f4 CF91      		pop r28
 2173 09f6 1F91      		pop r17
 2174 09f8 0895      		ret
 2175               	/* epilogue end (size=3) */
 2176               	/* function FUNCStorageInfo size 93 (88) */
 2177               	.LFE30:
 2179               		.section	.progmem.data
 2182               	__c.0:
 2183 02a9 2A4A 5441 		.string	"*JTAG ON*"
 2183      4720 4F4E 
 2183      2A00 
 2184               		.text
 2185               	.global	FUNCGoBootloader
 2187               	FUNCGoBootloader:
 2188               	.LFB31:
 2189               	.LM320:
 2190               	/* prologue: frame size=0 */
 2191               	/* prologue end (size=0) */
 2192               	.LM321:
 2193 09fa 85B7      		in r24,85-0x20
 2194 09fc 8F77      		andi r24,lo8(127)
 2195               	.LM322:
 2196 09fe 85BF      		out 85-0x20,r24
 2197               	.LM323:
 2198 0a00 85BF      		out 85-0x20,r24
 2199               	.LM324:
 2200 0a02 80E0      		ldi r24,lo8(__c.0)
 2201 0a04 90E0      		ldi r25,hi8(__c.0)
 2202 0a06 0E94 0000 		call LCD_puts_f
 2203               	.LM325:
 2204 0a0a 0E94 0000 		call MAIN_WaitForJoyRelease
 2205               	.LM326:
 2206 0a0e 88E1      		ldi r24,lo8(24)
 2207 0a10 8093 6000 		sts 96,r24
 2208               	.L276:
 2209               	.LM327:
 2210 0a14 FFCF      		rjmp .L276
 2211               	/* epilogue: frame size=0 */
 2212               	/* epilogue: noreturn */
 2213               	/* epilogue end (size=0) */
 2214               	/* function FUNCGoBootloader size 14 (14) */
 2215               	.LFE31:
 2217               	.Letext0:
DEFINED SYMBOLS
                            *ABS*:00000000 Main.c
C:\DOCUME~1\Dean\LOCALS~1\Temp/ccuQaaaa.s:3      *ABS*:0000003f __SREG__
C:\DOCUME~1\Dean\LOCALS~1\Temp/ccuQaaaa.s:4      *ABS*:0000003e __SP_H__
C:\DOCUME~1\Dean\LOCALS~1\Temp/ccuQaaaa.s:5      *ABS*:0000003d __SP_L__
C:\DOCUME~1\Dean\LOCALS~1\Temp/ccuQaaaa.s:6      *ABS*:00000000 __tmp_reg__
C:\DOCUME~1\Dean\LOCALS~1\Temp/ccuQaaaa.s:7      *ABS*:00000001 __zero_reg__
C:\DOCUME~1\Dean\LOCALS~1\Temp/ccuQaaaa.s:22     .progmem.data:00000000 SIFOOptionPtrs
C:\DOCUME~1\Dean\LOCALS~1\Temp/ccuQaaaa.s:33     .progmem.data:00000013 SIFO_Size
C:\DOCUME~1\Dean\LOCALS~1\Temp/ccuQaaaa.s:28     .progmem.data:00000004 SIFO_Tags
C:\DOCUME~1\Dean\LOCALS~1\Temp/ccuQaaaa.s:38     .progmem.data:00000021 USIPSNamePtrs
C:\DOCUME~1\Dean\LOCALS~1\Temp/ccuQaaaa.s:61     .progmem.data:00000047 USI_Speed0
C:\DOCUME~1\Dean\LOCALS~1\Temp/ccuQaaaa.s:56     .progmem.data:0000003d USI_Speed1
C:\DOCUME~1\Dean\LOCALS~1\Temp/ccuQaaaa.s:51     .progmem.data:00000033 USI_Speed2
C:\DOCUME~1\Dean\LOCALS~1\Temp/ccuQaaaa.s:46     .progmem.data:00000029 USI_Speed3
C:\DOCUME~1\Dean\LOCALS~1\Temp/ccuQaaaa.s:66     .progmem.data:00000051 ProgOptions
C:\DOCUME~1\Dean\LOCALS~1\Temp/ccuQaaaa.s:107    .progmem.data:000000ba PRG_D
C:\DOCUME~1\Dean\LOCALS~1\Temp/ccuQaaaa.s:102    .progmem.data:000000ae PRG_E
C:\DOCUME~1\Dean\LOCALS~1\Temp/ccuQaaaa.s:97     .progmem.data:0000009e PRG_DE
C:\DOCUME~1\Dean\LOCALS~1\Temp/ccuQaaaa.s:92     .progmem.data:0000008e PRG_F
C:\DOCUME~1\Dean\LOCALS~1\Temp/ccuQaaaa.s:87     .progmem.data:0000007e PRG_L
C:\DOCUME~1\Dean\LOCALS~1\Temp/ccuQaaaa.s:82     .progmem.data:0000006a PRG_FL
C:\DOCUME~1\Dean\LOCALS~1\Temp/ccuQaaaa.s:77     .progmem.data:0000005f PRG_C
C:\DOCUME~1\Dean\LOCALS~1\Temp/ccuQaaaa.s:112    .progmem.data:000000c4 SettingFunctionPtrs
C:\DOCUME~1\Dean\LOCALS~1\Temp/ccuQaaaa.s:1823   .text:00000814 FUNCSetContrast
C:\DOCUME~1\Dean\LOCALS~1\Temp/ccuQaaaa.s:1929   .text:000008ac FUNCSetISPSpeed
C:\DOCUME~1\Dean\LOCALS~1\Temp/ccuQaaaa.s:1588   .text:000006a8 FUNCClearMem
C:\DOCUME~1\Dean\LOCALS~1\Temp/ccuQaaaa.s:1692   .text:00000752 FUNCAutoCalib
C:\DOCUME~1\Dean\LOCALS~1\Temp/ccuQaaaa.s:1711   .text:00000760 FUNCManCalib
C:\DOCUME~1\Dean\LOCALS~1\Temp/ccuQaaaa.s:2187   .text:000009fa FUNCGoBootloader
C:\DOCUME~1\Dean\LOCALS~1\Temp/ccuQaaaa.s:122    .progmem.data:000000d0 SettingFunctionNames
C:\DOCUME~1\Dean\LOCALS~1\Temp/ccuQaaaa.s:157    .progmem.data:0000012c SFunc_SETCONTRAST
C:\DOCUME~1\Dean\LOCALS~1\Temp/ccuQaaaa.s:152    .progmem.data:0000011e SFunc_SETSPISPEED
C:\DOCUME~1\Dean\LOCALS~1\Temp/ccuQaaaa.s:147    .progmem.data:00000111 SFunc_CLEARMEM
C:\DOCUME~1\Dean\LOCALS~1\Temp/ccuQaaaa.s:142    .progmem.data:00000102 SFunc_AUTOCALIB
C:\DOCUME~1\Dean\LOCALS~1\Temp/ccuQaaaa.s:137    .progmem.data:000000ef SFunc_MANCALIB
C:\DOCUME~1\Dean\LOCALS~1\Temp/ccuQaaaa.s:132    .progmem.data:000000dc SFunc_GOBOOTLOADER
C:\DOCUME~1\Dean\LOCALS~1\Temp/ccuQaaaa.s:162    .progmem.data:00000139 MainFunctionPtrs
C:\DOCUME~1\Dean\LOCALS~1\Temp/ccuQaaaa.s:1033   .text:00000370 FUNCAVRISPMode
C:\DOCUME~1\Dean\LOCALS~1\Temp/ccuQaaaa.s:1525   .text:0000065c FUNCStoreProgram
C:\DOCUME~1\Dean\LOCALS~1\Temp/ccuQaaaa.s:1131   .text:000003d2 FUNCProgramAVR
C:\DOCUME~1\Dean\LOCALS~1\Temp/ccuQaaaa.s:1057   .text:0000038a FUNCProgramDataflash
C:\DOCUME~1\Dean\LOCALS~1\Temp/ccuQaaaa.s:2065   .text:0000094a FUNCStorageInfo
C:\DOCUME~1\Dean\LOCALS~1\Temp/ccuQaaaa.s:940    .text:00000306 FUNCChangeSettings
C:\DOCUME~1\Dean\LOCALS~1\Temp/ccuQaaaa.s:2016   .text:00000916 FUNCSleepMode
C:\DOCUME~1\Dean\LOCALS~1\Temp/ccuQaaaa.s:173    .progmem.data:00000147 MainFunctionNames
C:\DOCUME~1\Dean\LOCALS~1\Temp/ccuQaaaa.s:214    .progmem.data:000001a3 Func_ISPPRGM
C:\DOCUME~1\Dean\LOCALS~1\Temp/ccuQaaaa.s:209    .progmem.data:00000198 Func_STOREPRGM
C:\DOCUME~1\Dean\LOCALS~1\Temp/ccuQaaaa.s:204    .progmem.data:0000018c Func_PRGMAVR
C:\DOCUME~1\Dean\LOCALS~1\Temp/ccuQaaaa.s:199    .progmem.data:00000178 Func_PRGMDATAFLASH
C:\DOCUME~1\Dean\LOCALS~1\Temp/ccuQaaaa.s:194    .progmem.data:00000169 Func_PRGMSTOREINFO
C:\DOCUME~1\Dean\LOCALS~1\Temp/ccuQaaaa.s:189    .progmem.data:00000160 Func_SETTINGS
C:\DOCUME~1\Dean\LOCALS~1\Temp/ccuQaaaa.s:184    .progmem.data:00000155 Func_SLEEP
C:\DOCUME~1\Dean\LOCALS~1\Temp/ccuQaaaa.s:219    .progmem.data:000001af AboutTextPtrs
C:\DOCUME~1\Dean\LOCALS~1\Temp/ccuQaaaa.s:246    .progmem.data:000001da ProgrammerName
C:\DOCUME~1\Dean\LOCALS~1\Temp/ccuQaaaa.s:237    .progmem.data:000001d5 VersionInfo
C:\DOCUME~1\Dean\LOCALS~1\Temp/ccuQaaaa.s:232    .progmem.data:000001c6 AuthorName
C:\DOCUME~1\Dean\LOCALS~1\Temp/ccuQaaaa.s:227    .progmem.data:000001b7 CopyRight
C:\DOCUME~1\Dean\LOCALS~1\Temp/ccuQaaaa.s:251    .progmem.data:000001e3 WaitText
C:\DOCUME~1\Dean\LOCALS~1\Temp/ccuQaaaa.s:256    .progmem.data:000001ea BUTTTAG_Author
C:\DOCUME~1\Dean\LOCALS~1\Temp/ccuQaaaa.s:265    .progmem.data:000001fd BUTTTAG_Name
C:\DOCUME~1\Dean\LOCALS~1\Temp/ccuQaaaa.s:274    .text:00000000 MAIN_Delay10MS
C:\DOCUME~1\Dean\LOCALS~1\Temp/ccuQaaaa.s:318    .text:00000024 MAIN_WaitForJoyRelease
C:\DOCUME~1\Dean\LOCALS~1\Temp/ccuQaaaa.s:343    .text:00000038 FUNCShowAbout
C:\DOCUME~1\Dean\LOCALS~1\Temp/ccuQaaaa.s:415    .text:00000088 main
C:\DOCUME~1\Dean\LOCALS~1\Temp/ccuQaaaa.s:620    .text:000001b4 MAIN_Delay1MS
C:\DOCUME~1\Dean\LOCALS~1\Temp/ccuQaaaa.s:664    .text:000001d8 MAIN_ResetCSLine
C:\DOCUME~1\Dean\LOCALS~1\Temp/ccuQaaaa.s:717    .text:0000020e MAIN_IntToStr
C:\DOCUME~1\Dean\LOCALS~1\Temp/ccuQaaaa.s:770    .progmem.data:00000211 __c.14
C:\DOCUME~1\Dean\LOCALS~1\Temp/ccuQaaaa.s:775    .text:0000023e MAIN_ShowProgType
C:\DOCUME~1\Dean\LOCALS~1\Temp/ccuQaaaa.s:823    .text:00000282 MAIN_ShowError
C:\DOCUME~1\Dean\LOCALS~1\Temp/ccuQaaaa.s:877    .text:000002ce __vector_3
C:\DOCUME~1\Dean\LOCALS~1\Temp/ccuQaaaa.s:914    .progmem.data:00000217 __c.13
C:\DOCUME~1\Dean\LOCALS~1\Temp/ccuQaaaa.s:919    .text:000002fc __vector_default
C:\DOCUME~1\Dean\LOCALS~1\Temp/ccuQaaaa.s:1102   .progmem.data:0000021e __c.6
C:\DOCUME~1\Dean\LOCALS~1\Temp/ccuQaaaa.s:1106   .progmem.data:0000022b __c.7
C:\DOCUME~1\Dean\LOCALS~1\Temp/ccuQaaaa.s:1110   .progmem.data:00000233 __c.8
C:\DOCUME~1\Dean\LOCALS~1\Temp/ccuQaaaa.s:1114   .progmem.data:0000023d __c.9
C:\DOCUME~1\Dean\LOCALS~1\Temp/ccuQaaaa.s:1118   .progmem.data:0000024b __c.10
C:\DOCUME~1\Dean\LOCALS~1\Temp/ccuQaaaa.s:1122   .progmem.data:00000259 __c.11
C:\DOCUME~1\Dean\LOCALS~1\Temp/ccuQaaaa.s:1126   .progmem.data:0000026a __c.12
C:\DOCUME~1\Dean\LOCALS~1\Temp/ccuQaaaa.s:1520   .progmem.data:00000271 __c.5
C:\DOCUME~1\Dean\LOCALS~1\Temp/ccuQaaaa.s:1575   .progmem.data:00000280 __c.2
C:\DOCUME~1\Dean\LOCALS~1\Temp/ccuQaaaa.s:1579   .progmem.data:00000288 __c.3
C:\DOCUME~1\Dean\LOCALS~1\Temp/ccuQaaaa.s:1583   .progmem.data:0000028e __c.4
C:\DOCUME~1\Dean\LOCALS~1\Temp/ccuQaaaa.s:2060   .progmem.data:0000029a __c.1
C:\DOCUME~1\Dean\LOCALS~1\Temp/ccuQaaaa.s:2182   .progmem.data:000002a9 __c.0

UNDEFINED SYMBOLS
__do_copy_data
__do_clear_bss
LCD_puts_f
__stack
Sys_MagicNumber
eeprom_read_byte_169
eeprom_write_byte_169
LCD_Init
Sys_LCDContrast
DF_EnableDataflash
OSCCAL_Calibrate
USART_Init
Param_ResetPolarity
strcpy_P
LCD_puts
AVRISPModeMessage
AICI_InterpretPacket
InterpretPacketRoutine
V2P_RunStateMachine
Param_SCKDuration
USI_SPIInitMaster
UseExernalDF
USI_SPITransmit
DFSPIRoutinePointer
DataFlashProgMode
PD_InterpretAVRISPPacket
SPI_SPIInit
SPI_SPITransmit
DF_CheckCorrectOnboardChip
Prog_EnterProgMode
PacketBytes
ISPCC_EnterChipProgrammingMode
CurrAddress
Prog_EraseCmdStored
PM_SendEraseCommand
PM_GetStoredDataSize
PM_CreateProgrammingPackets
Prog_TotalFuseBytes
PM_SendFuseLockBytes
Prog_TotalLockBytes
SyncErrorMessage
USI_SPIOff
PM_InterpretAVRISPPacket
BuffElements
BUFF_GetBuffByte
USART_Tx
USART_TxString
TM_ShowTags
PM_ShowStoredItemSizes
