   1               		.file	"Main.c"
   2               		.arch atmega169
   3               	__SREG__ = 0x3f
   4               	__SP_H__ = 0x3e
   5               	__SP_L__ = 0x3d
   6               	__tmp_reg__ = 0
   7               	__zero_reg__ = 1
   8               		.global __do_copy_data
   9               		.global __do_clear_bss
  17               	.Ltext0:
  18               	.global	MAIN_Delay10MS
  20               	MAIN_Delay10MS:
  21               	.LFB15:
  22               	.LM1:
  23               	/* prologue: frame size=0 */
  24               	/* prologue end (size=0) */
  25               	.LVL0:
  26 0000 282F      		mov r18,r24
  27 0002 E0E0      		ldi r30,lo8(18432)
  28 0004 F8E4      		ldi r31,hi8(18432)
  29 0006 00C0      		rjmp .L2
  30               	.LVL1:
  31               	.L3:
  32               	.LBB14:
  33               	.LBB15:
  34               	.LBB16:
  35               	.LBB17:
  36               	.LM2:
  37 0008 CF01      		movw r24,r30
  38               	/* #APP */
  39 000a 0197      		1: sbiw r24,1
  40 000c 01F4      		brne 1b
  41               	.LVL2:
  42               	/* #NOAPP */
  43               	.L2:
  44               	.LBE17:
  45               	.LBE16:
  46               	.LBE15:
  47               	.LBE14:
  48               	.LM3:
  49 000e 2150      		subi r18,1
  50 0010 00F4      		brcc .L3
  51               	/* epilogue: frame size=0 */
  52 0012 0895      		ret
  53               	/* epilogue end (size=1) */
  54               	/* function MAIN_Delay10MS size 11 (10) */
  55               	.LFE15:
  57               	.global	MAIN_Delay1MS
  59               	MAIN_Delay1MS:
  60               	.LFB16:
  61               	.LM4:
  62               	/* prologue: frame size=0 */
  63               	/* prologue end (size=0) */
  64               	.LVL3:
  65 0014 282F      		mov r18,r24
  66 0016 E3E3      		ldi r30,lo8(1843)
  67 0018 F7E0      		ldi r31,hi8(1843)
  68 001a 00C0      		rjmp .L7
  69               	.LVL4:
  70               	.L8:
  71               	.LBB22:
  72               	.LBB23:
  73               	.LBB24:
  74               	.LBB25:
  75               	.LM5:
  76 001c CF01      		movw r24,r30
  77               	/* #APP */
  78 001e 0197      		1: sbiw r24,1
  79 0020 01F4      		brne 1b
  80               	.LVL5:
  81               	/* #NOAPP */
  82               	.L7:
  83               	.LBE25:
  84               	.LBE24:
  85               	.LBE23:
  86               	.LBE22:
  87               	.LM6:
  88 0022 2150      		subi r18,1
  89 0024 00F4      		brcc .L8
  90               	/* epilogue: frame size=0 */
  91 0026 0895      		ret
  92               	/* epilogue end (size=1) */
  93               	/* function MAIN_Delay1MS size 11 (10) */
  94               	.LFE16:
  96               	.global	MAIN_ResetCSLine
  98               	MAIN_ResetCSLine:
  99               	.LFB17:
 100               	.LM7:
 101               	/* prologue: frame size=0 */
 102               	/* prologue end (size=0) */
 103               	.LVL6:
 104               	.LM8:
 105 0028 8130      		cpi r24,lo8(1)
 106 002a 01F0      		breq .L14
 107               	.LM9:
 108 002c 8130      		cpi r24,lo8(1)
 109 002e 00F0      		brlo .L13
 110 0030 8230      		cpi r24,lo8(2)
 111 0032 01F4      		brne .L22
 112 0034 00C0      		rjmp .L15
 113               	.L13:
 114               	.LM10:
 115 0036 869A      		sbi 48-0x20,6
 116               	.LBB26:
 117               	.LBB27:
 118               	.LM11:
 119 0038 A0E0      		ldi r26,lo8(EEPROMVars+1)
 120 003a B0E0      		ldi r27,hi8(EEPROMVars+1)
 121               	/* #APP */
 122 003c 0E94 0000 		call __eeprom_read_byte_1F2021
 123 0040 802D      		mov r24,__tmp_reg__
 124               	.LVL7:
 125               	/* #NOAPP */
 126               	.LBE27:
 127               	.LBE26:
 128               	.LM12:
 129 0042 8823      		tst r24
 130 0044 01F4      		brne .L23
 131 0046 00C0      		rjmp .L24
 132               	.LVL8:
 133               	.L15:
 134               	.LM13:
 135 0048 869A      		sbi 48-0x20,6
 136 004a 00C0      		rjmp .L23
 137               	.L14:
 138               	.LBB28:
 139               	.LBB29:
 140               	.LM14:
 141 004c A0E0      		ldi r26,lo8(EEPROMVars+140)
 142 004e B0E0      		ldi r27,hi8(EEPROMVars+140)
 143               	/* #APP */
 144 0050 0E94 0000 		call __eeprom_read_byte_1F2021
 145 0054 802D      		mov r24,__tmp_reg__
 146               	.LVL9:
 147               	/* #NOAPP */
 148               	.LBE29:
 149               	.LBE28:
 150               	.LM15:
 151 0056 8823      		tst r24
 152 0058 01F0      		breq .L18
 153               	.LM16:
 154 005a 8698      		cbi 48-0x20,6
 155               	.LVL10:
 156               	.L23:
 157               	.LM17:
 158 005c 8E98      		cbi 49-0x20,6
 159 005e 0895      		ret
 160               	.LVL11:
 161               	.L18:
 162               	.LBB30:
 163               	.LBB31:
 164               	.LM18:
 165 0060 A0E0      		ldi r26,lo8(EEPROMVars+1)
 166 0062 B0E0      		ldi r27,hi8(EEPROMVars+1)
 167               	.LVL12:
 168               	/* #APP */
 169 0064 0E94 0000 		call __eeprom_read_byte_1F2021
 170 0068 802D      		mov r24,__tmp_reg__
 171               	.LVL13:
 172               	/* #NOAPP */
 173               	.LBE31:
 174               	.LBE30:
 175               	.LM19:
 176 006a 8823      		tst r24
 177 006c 01F0      		breq .L20
 178               	.LVL14:
 179               	.L24:
 180               	.LM20:
 181 006e 8E9A      		sbi 49-0x20,6
 182 0070 0895      		ret
 183               	.LVL15:
 184               	.L20:
 185               	.LM21:
 186 0072 8E98      		cbi 49-0x20,6
 187               	.LVL16:
 188               	.L22:
 189 0074 0895      		ret
 190               	/* epilogue: frame size=0 */
 191               	/* epilogue: noreturn */
 192               	/* epilogue end (size=0) */
 193               	/* function MAIN_ResetCSLine size 42 (42) */
 194               	.LFE17:
 196               	.global	MAIN_WaitForJoyRelease
 198               	MAIN_WaitForJoyRelease:
 199               	.LFB18:
 200               	.LM22:
 201               	/* prologue: frame size=0 */
 202               	/* prologue end (size=0) */
 203               	.LM23:
 204 0076 8EB3      		in r24,62-0x20
 205 0078 8130      		cpi r24,lo8(1)
 206 007a 01F4      		brne .L37
 207               	.LM24:
 208 007c 1EBA      		out 62-0x20,__zero_reg__
 209 007e 0895      		ret
 210               	.L37:
 211               	.LM25:
 212 0080 8EB3      		in r24,62-0x20
 213 0082 8823      		tst r24
 214 0084 01F4      		brne .L37
 215               	.LM26:
 216 0086 82E0      		ldi r24,lo8(2)
 217 0088 0E94 0000 		call MAIN_Delay10MS
 218               	.LM27:
 219 008c 8EB3      		in r24,62-0x20
 220 008e 8823      		tst r24
 221 0090 01F4      		brne .L37
 222 0092 0895      		ret
 223               	/* epilogue: frame size=0 */
 224               	/* epilogue: noreturn */
 225               	/* epilogue end (size=0) */
 226               	/* function MAIN_WaitForJoyRelease size 15 (15) */
 227               	.LFE18:
 229               	.global	MAIN_IntToStr
 231               	MAIN_IntToStr:
 232               	.LFB19:
 233               	.LM28:
 234               	/* prologue: frame size=0 */
 235 0094 CF93      		push r28
 236 0096 DF93      		push r29
 237               	/* prologue end (size=2) */
 238               	.LVL17:
 239 0098 FB01      		movw r30,r22
 240 009a 20E0      		ldi r18,lo8(0)
 241               	.LVL18:
 242 009c 00C0      		rjmp .L39
 243               	.LVL19:
 244               	.L40:
 245               	.LM29:
 246 009e 2F5F      		subi r18,lo8(-(1))
 247               	.LM30:
 248 00a0 8456      		subi r24,lo8(-(-100))
 249 00a2 9040      		sbci r25,hi8(-(-100))
 250               	.L39:
 251               	.LM31:
 252 00a4 8436      		cpi r24,100
 253 00a6 9105      		cpc r25,__zero_reg__
 254 00a8 00F4      		brsh .L40
 255               	.LM32:
 256 00aa 205D      		subi r18,lo8(-(48))
 257 00ac 2193      		st Z+,r18
 258 00ae DF01      		movw r26,r30
 259               	.LVL20:
 260 00b0 20E0      		ldi r18,lo8(0)
 261               	.LVL21:
 262 00b2 00C0      		rjmp .L42
 263               	.L43:
 264               	.LM33:
 265 00b4 2F5F      		subi r18,lo8(-(1))
 266               	.LM34:
 267 00b6 0A97      		sbiw r24,10
 268               	.L42:
 269               	.LM35:
 270 00b8 8A30      		cpi r24,10
 271 00ba 9105      		cpc r25,__zero_reg__
 272 00bc 00F4      		brsh .L43
 273               	.LM36:
 274 00be 205D      		subi r18,lo8(-(48))
 275 00c0 FD01      		movw r30,r26
 276               	.LVL22:
 277 00c2 2193      		st Z+,r18
 278               	.LM37:
 279 00c4 805D      		subi r24,lo8(-(48))
 280               	.LVL23:
 281 00c6 ED01      		movw r28,r26
 282 00c8 8983      		std Y+1,r24
 283               	.LM38:
 284 00ca 1182      		std Z+1,__zero_reg__
 285               	/* epilogue: frame size=0 */
 286 00cc DF91      		pop r29
 287 00ce CF91      		pop r28
 288 00d0 0895      		ret
 289               	/* epilogue end (size=3) */
 290               	/* function MAIN_IntToStr size 31 (26) */
 291               	.LFE19:
 293               	.global	__vector_3
 295               	__vector_3:
 296               	.LFB23:
 297               	.LM39:
 298               	/* prologue: frame size=0 */
 299 00d2 7894      		sei
 300 00d4 1F92      		push __zero_reg__
 301 00d6 0F92      		push __tmp_reg__
 302 00d8 0FB6      		in __tmp_reg__,__SREG__
 303 00da 0F92      		push __tmp_reg__
 304 00dc 1124      		clr __zero_reg__
 305 00de 8F93      		push r24
 306 00e0 9F93      		push r25
 307               	/* prologue end (size=8) */
 308               	.LM40:
 309 00e2 83B1      		in r24,35-0x20
 310 00e4 9CB1      		in r25,44-0x20
 311 00e6 8095      		com r24
 312 00e8 807D      		andi r24,lo8(-48)
 313 00ea 9095      		com r25
 314 00ec 9C70      		andi r25,lo8(12)
 315 00ee 892B      		or r24,r25
 316 00f0 8EBB      		out 62-0x20,r24
 317               	.LM41:
 318 00f2 1092 0000 		sts (SleepTimeOutTicks)+1,__zero_reg__
 319 00f6 1092 0000 		sts SleepTimeOutTicks,__zero_reg__
 320 00fa 1092 8500 		sts (132)+1,__zero_reg__
 321 00fe 1092 8400 		sts 132,__zero_reg__
 322               	/* epilogue: frame size=0 */
 323 0102 9F91      		pop r25
 324 0104 8F91      		pop r24
 325 0106 0F90      		pop __tmp_reg__
 326 0108 0FBE      		out __SREG__,__tmp_reg__
 327 010a 0F90      		pop __tmp_reg__
 328 010c 1F90      		pop __zero_reg__
 329 010e 1895      		reti
 330               	/* epilogue end (size=7) */
 331               	/* function __vector_3 size 31 (16) */
 332               	.LFE23:
 334               	.global	FUNCSleepMode
 336               	FUNCSleepMode:
 337               	.LFB37:
 338               	.LM42:
 339               	/* prologue: frame size=0 */
 340               	/* prologue end (size=0) */
 341               	.LM43:
 342 0110 85E0      		ldi r24,lo8(5)
 343 0112 83BF      		out 83-0x20,r24
 344               	.LM44:
 345 0114 8091 E400 		lds r24,228
 346 0118 8F77      		andi r24,lo8(127)
 347 011a 8093 E400 		sts 228,r24
 348               	.LM45:
 349 011e 81B3      		in r24,49-0x20
 350 0120 8F7C      		andi r24,lo8(-49)
 351 0122 81BB      		out 49-0x20,r24
 352 0124 00C0      		rjmp .L49
 353               	.L50:
 354               	.LM46:
 355               	/* #APP */
 356 0126 8895      		sleep
 357               	/* #NOAPP */
 358               	.L49:
 359               	.LM47:
 360 0128 F69B      		sbis 62-0x20,6
 361 012a 00C0      		rjmp .L50
 362               	.LM48:
 363 012c 81B3      		in r24,49-0x20
 364 012e 8F7C      		andi r24,lo8(-49)
 365 0130 8061      		ori r24,lo8(16)
 366 0132 81BB      		out 49-0x20,r24
 367               	.LM49:
 368 0134 8091 E400 		lds r24,228
 369 0138 8068      		ori r24,lo8(-128)
 370 013a 8093 E400 		sts 228,r24
 371               	.LM50:
 372 013e 0E94 0000 		call MAIN_WaitForJoyRelease
 373               	/* epilogue: frame size=0 */
 374 0142 0895      		ret
 375               	/* epilogue end (size=1) */
 376               	/* function FUNCSleepMode size 27 (26) */
 377               	.LFE37:
 379               	.global	FUNCGoBootloader
 381               	FUNCGoBootloader:
 382               	.LFB39:
 383               	.LM51:
 384               	/* prologue: frame size=0 */
 385               	/* prologue end (size=0) */
 386               	.LM52:
 387 0144 85B7      		in r24,85-0x20
 388               	.LVL24:
 389 0146 8F77      		andi r24,lo8(127)
 390               	.LM53:
 391 0148 85BF      		out 85-0x20,r24
 392               	.LM54:
 393 014a 85BF      		out 85-0x20,r24
 394               	.LM55:
 395 014c 1092 8100 		sts 129,__zero_reg__
 396               	.LM56:
 397 0150 80E0      		ldi r24,lo8(__c.2508)
 398 0152 90E0      		ldi r25,hi8(__c.2508)
 399               	.LVL25:
 400 0154 0E94 0000 		call LCD_puts_f
 401               	.LM57:
 402 0158 0E94 0000 		call MAIN_WaitForJoyRelease
 403               	.LM58:
 404 015c 88E1      		ldi r24,lo8(24)
 405 015e 8093 6000 		sts 96,r24
 406               	.L54:
 407 0162 00C0      		rjmp .L54
 408               	/* epilogue: frame size=0 */
 409               	/* epilogue: noreturn */
 410               	/* epilogue end (size=0) */
 411               	/* function FUNCGoBootloader size 16 (16) */
 412               	.LFE39:
 414               	.global	FUNCShowAbout
 416               	FUNCShowAbout:
 417               	.LFB26:
 418               	.LM59:
 419               	/* prologue: frame size=0 */
 420 0164 1F93      		push r17
 421               	/* prologue end (size=1) */
 422               	.LM60:
 423 0166 81E0      		ldi r24,lo8(1)
 424 0168 8EBB      		out 62-0x20,r24
 425 016a 10E0      		ldi r17,lo8(0)
 426               	.LVL26:
 427               	.L75:
 428               	.LM61:
 429 016c 8EB3      		in r24,62-0x20
 430 016e 8823      		tst r24
 431 0170 01F0      		breq .L75
 432               	.LM62:
 433 0172 F69B      		sbis 62-0x20,6
 434 0174 00C0      		rjmp .L59
 435               	.LM63:
 436 0176 1123      		tst r17
 437 0178 01F4      		brne .L61
 438 017a 13E0      		ldi r17,lo8(3)
 439 017c 00C0      		rjmp .L63
 440               	.L61:
 441 017e 1150      		subi r17,lo8(-(-1))
 442 0180 00C0      		rjmp .L63
 443               	.L59:
 444               	.LM64:
 445 0182 F79B      		sbis 62-0x20,7
 446 0184 00C0      		rjmp .L64
 447               	.LM65:
 448 0186 1330      		cpi r17,lo8(3)
 449 0188 01F4      		brne .L66
 450 018a 10E0      		ldi r17,lo8(0)
 451 018c 00C0      		rjmp .L63
 452               	.L66:
 453 018e 1F5F      		subi r17,lo8(-(1))
 454 0190 00C0      		rjmp .L63
 455               	.L64:
 456               	.LM66:
 457 0192 F299      		sbic 62-0x20,2
 458 0194 00C0      		rjmp .L69
 459               	.L63:
 460               	.LBB32:
 461               	.LM67:
 462 0196 E12F      		mov r30,r17
 463 0198 FF27      		clr r31
 464               	.LVL27:
 465 019a EE0F      		lsl r30
 466 019c FF1F      		rol r31
 467 019e E050      		subi r30,lo8(-(AboutTextPtrs))
 468 01a0 F040      		sbci r31,hi8(-(AboutTextPtrs))
 469               	.LBE32:
 470               	/* #APP */
 471 01a2 8591      		lpm r24, Z+
 472 01a4 9491      		lpm r25, Z
 473               		
 474               	.LVL28:
 475               	/* #NOAPP */
 476 01a6 0E94 0000 		call LCD_puts_f
 477               	.LVL29:
 478               	.LM68:
 479 01aa 0E94 0000 		call MAIN_WaitForJoyRelease
 480 01ae 00C0      		rjmp .L75
 481               	.L69:
 482               	/* epilogue: frame size=0 */
 483 01b0 1F91      		pop r17
 484 01b2 0895      		ret
 485               	/* epilogue end (size=2) */
 486               	/* function FUNCShowAbout size 44 (41) */
 487               	.LFE26:
 489               	.global	FUNCChangeSettings
 491               	FUNCChangeSettings:
 492               	.LFB25:
 493               	.LM69:
 494               	/* prologue: frame size=0 */
 495 01b4 1F93      		push r17
 496               	/* prologue end (size=1) */
 497               	.LM70:
 498 01b6 81E0      		ldi r24,lo8(1)
 499 01b8 8EBB      		out 62-0x20,r24
 500 01ba 10E0      		ldi r17,lo8(0)
 501               	.LVL30:
 502               	.L97:
 503               	.LM71:
 504 01bc 8EB3      		in r24,62-0x20
 505 01be 8823      		tst r24
 506 01c0 01F0      		breq .L97
 507               	.LM72:
 508 01c2 F69B      		sbis 62-0x20,6
 509 01c4 00C0      		rjmp .L79
 510               	.LM73:
 511 01c6 1123      		tst r17
 512 01c8 01F4      		brne .L81
 513 01ca 16E0      		ldi r17,lo8(6)
 514 01cc 00C0      		rjmp .L83
 515               	.L81:
 516 01ce 1150      		subi r17,lo8(-(-1))
 517 01d0 00C0      		rjmp .L83
 518               	.L79:
 519               	.LM74:
 520 01d2 F79B      		sbis 62-0x20,7
 521 01d4 00C0      		rjmp .L84
 522               	.LM75:
 523 01d6 1630      		cpi r17,lo8(6)
 524 01d8 01F4      		brne .L86
 525 01da 10E0      		ldi r17,lo8(0)
 526 01dc 00C0      		rjmp .L83
 527               	.L86:
 528 01de 1F5F      		subi r17,lo8(-(1))
 529 01e0 00C0      		rjmp .L83
 530               	.L84:
 531               	.LM76:
 532 01e2 F49B      		sbis 62-0x20,4
 533 01e4 00C0      		rjmp .L88
 534               	.LBB33:
 535               	.LM77:
 536 01e6 E12F      		mov r30,r17
 537 01e8 FF27      		clr r31
 538               	.LVL31:
 539 01ea EE0F      		lsl r30
 540 01ec FF1F      		rol r31
 541 01ee E050      		subi r30,lo8(-(SettingFunctionPtrs))
 542 01f0 F040      		sbci r31,hi8(-(SettingFunctionPtrs))
 543               	/* #APP */
 544 01f2 8591      		lpm r24, Z+
 545 01f4 9491      		lpm r25, Z
 546               		
 547               	.LVL32:
 548               	/* #NOAPP */
 549               	.LBE33:
 550 01f6 FC01      		movw r30,r24
 551 01f8 0995      		icall
 552               	.LVL33:
 553 01fa 00C0      		rjmp .L83
 554               	.L88:
 555               	.LM78:
 556 01fc F299      		sbic 62-0x20,2
 557 01fe 00C0      		rjmp .L91
 558               	.L83:
 559               	.LBB34:
 560               	.LM79:
 561 0200 E12F      		mov r30,r17
 562 0202 FF27      		clr r31
 563               	.LVL34:
 564 0204 EE0F      		lsl r30
 565 0206 FF1F      		rol r31
 566 0208 E050      		subi r30,lo8(-(SettingFunctionNames))
 567 020a F040      		sbci r31,hi8(-(SettingFunctionNames))
 568               	.LBE34:
 569               	/* #APP */
 570 020c 8591      		lpm r24, Z+
 571 020e 9491      		lpm r25, Z
 572               		
 573               	.LVL35:
 574               	/* #NOAPP */
 575 0210 0E94 0000 		call LCD_puts_f
 576               	.LVL36:
 577               	.LM80:
 578 0214 0E94 0000 		call MAIN_WaitForJoyRelease
 579 0218 00C0      		rjmp .L97
 580               	.L91:
 581               	/* epilogue: frame size=0 */
 582 021a 1F91      		pop r17
 583 021c 0895      		ret
 584               	/* epilogue end (size=2) */
 585               	/* function FUNCChangeSettings size 61 (58) */
 586               	.LFE25:
 588               	.global	FUNCSetAutoSleepTimeOut
 590               	FUNCSetAutoSleepTimeOut:
 591               	.LFB36:
 592               	.LM81:
 593               	/* prologue: frame size=8 */
 594 021e EF92      		push r14
 595 0220 FF92      		push r15
 596 0222 0F93      		push r16
 597 0224 CF93      		push r28
 598 0226 DF93      		push r29
 599 0228 CDB7      		in r28,__SP_L__
 600 022a DEB7      		in r29,__SP_H__
 601 022c 2897      		sbiw r28,8
 602 022e 0FB6      		in __tmp_reg__,__SREG__
 603 0230 F894      		cli
 604 0232 DEBF      		out __SP_H__,r29
 605 0234 0FBE      		out __SREG__,__tmp_reg__
 606 0236 CDBF      		out __SP_L__,r28
 607               	/* prologue end (size=13) */
 608               	.LBB42:
 609               	.LBB43:
 610               	.LM82:
 611 0238 A0E0      		ldi r26,lo8(EEPROMVars+139)
 612 023a B0E0      		ldi r27,hi8(EEPROMVars+139)
 613               	/* #APP */
 614 023c 0E94 0000 		call __eeprom_read_byte_1F2021
 615 0240 802D      		mov r24,__tmp_reg__
 616               	.LVL37:
 617               	/* #NOAPP */
 618               	.LBE43:
 619               	.LBE42:
 620               	.LM83:
 621 0242 082F      		mov r16,r24
 622               	.LVL38:
 623 0244 8530      		cpi r24,lo8(5)
 624 0246 00F0      		brlo .L99
 625               	.LVL39:
 626               	.LM84:
 627 0248 04E0      		ldi r16,lo8(4)
 628               	.L99:
 629               	.LM85:
 630 024a 60E0      		ldi r22,lo8(__c.2423)
 631 024c 70E0      		ldi r23,hi8(__c.2423)
 632 024e CE01      		movw r24,r28
 633               	.LVL40:
 634 0250 0196      		adiw r24,1
 635 0252 0E94 0000 		call strcpy_P
 636               	.LVL41:
 637               	.LM86:
 638 0256 81E0      		ldi r24,lo8(1)
 639 0258 8EBB      		out 62-0x20,r24
 640               	.L122:
 641               	.LM87:
 642 025a 8EB3      		in r24,62-0x20
 643 025c 8823      		tst r24
 644 025e 01F0      		breq .L122
 645               	.LM88:
 646 0260 F69B      		sbis 62-0x20,6
 647 0262 00C0      		rjmp .L102
 648               	.LM89:
 649 0264 0023      		tst r16
 650 0266 01F4      		brne .L104
 651 0268 04E0      		ldi r16,lo8(4)
 652 026a 00C0      		rjmp .L102
 653               	.L104:
 654 026c 0150      		subi r16,lo8(-(-1))
 655               	.L102:
 656               	.LM90:
 657 026e F79B      		sbis 62-0x20,7
 658 0270 00C0      		rjmp .L106
 659               	.LM91:
 660 0272 0430      		cpi r16,lo8(4)
 661 0274 01F4      		brne .L108
 662 0276 00E0      		ldi r16,lo8(0)
 663 0278 00C0      		rjmp .L110
 664               	.L108:
 665 027a 0F5F      		subi r16,lo8(-(1))
 666 027c 00C0      		rjmp .L111
 667               	.L106:
 668               	.LM92:
 669 027e F299      		sbic 62-0x20,2
 670 0280 00C0      		rjmp .L121
 671               	.L111:
 672               	.LM93:
 673 0282 0023      		tst r16
 674 0284 01F4      		brne .L113
 675               	.L110:
 676               	.LM94:
 677 0286 80E0      		ldi r24,lo8(__c.2425)
 678 0288 90E0      		ldi r25,hi8(__c.2425)
 679 028a 0E94 0000 		call LCD_puts_f
 680 028e 00C0      		rjmp .L114
 681               	.L113:
 682               	.LBB44:
 683               	.LM95:
 684 0290 E02F      		mov r30,r16
 685 0292 FF27      		clr r31
 686 0294 E050      		subi r30,lo8(-(AutoSleepTOValues))
 687 0296 F040      		sbci r31,hi8(-(AutoSleepTOValues))
 688               	/* #APP */
 689 0298 E491      		lpm r30, Z
 690               		
 691               	.LVL42:
 692               	/* #NOAPP */
 693               	.LBE44:
 694 029a 7E01      		movw r14,r28
 695 029c 0894      		sec
 696 029e E11C      		adc r14,__zero_reg__
 697 02a0 F11C      		adc r15,__zero_reg__
 698 02a2 B701      		movw r22,r14
 699 02a4 8E2F      		mov r24,r30
 700 02a6 9927      		clr r25
 701 02a8 0E94 0000 		call MAIN_IntToStr
 702               	.LVL43:
 703               	.LM96:
 704 02ac 80E2      		ldi r24,lo8(32)
 705 02ae 8C83      		std Y+4,r24
 706               	.LM97:
 707 02b0 C701      		movw r24,r14
 708 02b2 0E94 0000 		call LCD_puts
 709               	.L114:
 710               	.LM98:
 711 02b6 0E94 0000 		call MAIN_WaitForJoyRelease
 712 02ba 00C0      		rjmp .L122
 713               	.L121:
 714               	.LBB45:
 715               	.LBB46:
 716               	.LM99:
 717 02bc A0E0      		ldi r26,lo8(EEPROMVars+139)
 718 02be B0E0      		ldi r27,hi8(EEPROMVars+139)
 719               	/* #APP */
 720 02c0 002E      		mov __tmp_reg__,r16
 721 02c2 0E94 0000 		call __eeprom_write_byte_1F2021
 722               	.LVL44:
 723               	/* #NOAPP */
 724               	.LBE46:
 725               	.LBE45:
 726               	.LM100:
 727 02c6 0E94 0000 		call TOUT_SetupSleepTimer
 728               	.LVL45:
 729               	/* epilogue: frame size=8 */
 730 02ca 2896      		adiw r28,8
 731 02cc 0FB6      		in __tmp_reg__,__SREG__
 732 02ce F894      		cli
 733 02d0 DEBF      		out __SP_H__,r29
 734 02d2 0FBE      		out __SREG__,__tmp_reg__
 735 02d4 CDBF      		out __SP_L__,r28
 736 02d6 DF91      		pop r29
 737 02d8 CF91      		pop r28
 738 02da 0F91      		pop r16
 739 02dc FF90      		pop r15
 740 02de EF90      		pop r14
 741 02e0 0895      		ret
 742               	/* epilogue end (size=12) */
 743               	/* function FUNCSetAutoSleepTimeOut size 103 (78) */
 744               	.LFE36:
 746               	.global	MAIN_ShowError
 748               	MAIN_ShowError:
 749               	.LFB21:
 750               	.LM101:
 751               	/* prologue: frame size=20 */
 752 02e2 CF93      		push r28
 753 02e4 DF93      		push r29
 754 02e6 CDB7      		in r28,__SP_L__
 755 02e8 DEB7      		in r29,__SP_H__
 756 02ea 6497      		sbiw r28,20
 757 02ec 0FB6      		in __tmp_reg__,__SREG__
 758 02ee F894      		cli
 759 02f0 DEBF      		out __SP_H__,r29
 760 02f2 0FBE      		out __SREG__,__tmp_reg__
 761 02f4 CDBF      		out __SP_L__,r28
 762               	/* prologue end (size=10) */
 763               	.LVL46:
 764               	.LM102:
 765 02f6 25E4      		ldi r18,lo8(69)
 766 02f8 2983      		std Y+1,r18
 767               	.LM103:
 768 02fa 2EE3      		ldi r18,lo8(62)
 769 02fc 2A83      		std Y+2,r18
 770               	.LM104:
 771 02fe BC01      		movw r22,r24
 772 0300 CE01      		movw r24,r28
 773               	.LVL47:
 774 0302 0396      		adiw r24,3
 775 0304 0E94 0000 		call strcpy_P
 776               	.LVL48:
 777               	.LM105:
 778 0308 CE01      		movw r24,r28
 779 030a 0196      		adiw r24,1
 780 030c 0E94 0000 		call LCD_puts
 781               	.LM106:
 782 0310 0E94 0000 		call MAIN_WaitForJoyRelease
 783               	.L124:
 784               	.LM107:
 785 0314 F49B      		sbis 62-0x20,4
 786 0316 00C0      		rjmp .L124
 787               	.LM108:
 788 0318 0E94 0000 		call MAIN_WaitForJoyRelease
 789               	/* epilogue: frame size=20 */
 790 031c 6496      		adiw r28,20
 791 031e 0FB6      		in __tmp_reg__,__SREG__
 792 0320 F894      		cli
 793 0322 DEBF      		out __SP_H__,r29
 794 0324 0FBE      		out __SREG__,__tmp_reg__
 795 0326 CDBF      		out __SP_L__,r28
 796 0328 DF91      		pop r29
 797 032a CF91      		pop r28
 798 032c 0895      		ret
 799               	/* epilogue end (size=9) */
 800               	/* function MAIN_ShowError size 38 (19) */
 801               	.LFE21:
 803               	.global	FUNCStorageInfo
 805               	FUNCStorageInfo:
 806               	.LFB38:
 807               	.LM109:
 808               	/* prologue: frame size=0 */
 809 032e 1F93      		push r17
 810               	/* prologue end (size=1) */
 811               	.LM110:
 812 0330 0E94 0000 		call MAIN_WaitForJoyRelease
 813               	.LM111:
 814 0334 81E0      		ldi r24,lo8(1)
 815 0336 8EBB      		out 62-0x20,r24
 816 0338 10E0      		ldi r17,lo8(0)
 817               	.LVL49:
 818               	.L150:
 819               	.LM112:
 820 033a 8EB3      		in r24,62-0x20
 821 033c 8823      		tst r24
 822 033e 01F0      		breq .L150
 823               	.LM113:
 824 0340 8EB3      		in r24,62-0x20
 825 0342 807C      		andi r24,lo8(-64)
 826 0344 01F0      		breq .L132
 827               	.LM114:
 828 0346 81E0      		ldi r24,lo8(1)
 829 0348 1827      		eor r17,r24
 830 034a 00C0      		rjmp .L134
 831               	.L132:
 832               	.LM115:
 833 034c F299      		sbic 62-0x20,2
 834 034e 00C0      		rjmp .L144
 835               	.LM116:
 836 0350 F49B      		sbis 62-0x20,4
 837 0352 00C0      		rjmp .L134
 838               	.LM117:
 839 0354 1130      		cpi r17,lo8(1)
 840 0356 01F4      		brne .L138
 841               	.LM118:
 842 0358 80E0      		ldi r24,lo8(gs(SPI_SPITransmit))
 843 035a 90E0      		ldi r25,hi8(gs(SPI_SPITransmit))
 844 035c 9093 0000 		sts (DFSPIRoutinePointer)+1,r25
 845 0360 8093 0000 		sts DFSPIRoutinePointer,r24
 846               	.LM119:
 847 0364 0E94 0000 		call SPI_SPIInit
 848               	.LM120:
 849 0368 1092 0000 		sts DataflashInfo+10,__zero_reg__
 850               	.LM121:
 851 036c 81E0      		ldi r24,lo8(1)
 852 036e 0E94 0000 		call DF_EnableDataflash
 853               	.LM122:
 854 0372 81E0      		ldi r24,lo8(1)
 855 0374 0E94 0000 		call PM_GetStoredDataSize
 856 0378 6115      		cp r22,__zero_reg__
 857 037a 7105      		cpc r23,__zero_reg__
 858 037c 8105      		cpc r24,__zero_reg__
 859 037e 9105      		cpc r25,__zero_reg__
 860 0380 01F4      		brne .L140
 861               	.LM123:
 862 0382 80E0      		ldi r24,lo8(__c.2479)
 863 0384 90E0      		ldi r25,hi8(__c.2479)
 864 0386 0E94 0000 		call MAIN_ShowError
 865 038a 00C0      		rjmp .L142
 866               	.L140:
 867               	.LM124:
 868 038c 0E94 0000 		call DF_CheckCorrectOnboardChip
 869 0390 8823      		tst r24
 870 0392 01F0      		breq .L142
 871               	.LM125:
 872 0394 0E94 0000 		call TM_ShowTags
 873               	.L142:
 874               	.LM126:
 875 0398 80E0      		ldi r24,lo8(0)
 876 039a 0E94 0000 		call DF_EnableDataflash
 877               	.LM127:
 878 039e 8091 6400 		lds r24,100
 879 03a2 8460      		ori r24,lo8(4)
 880 03a4 8093 6400 		sts 100,r24
 881 03a8 00C0      		rjmp .L134
 882               	.L138:
 883               	.LM128:
 884 03aa 0E94 0000 		call PM_ShowStoredItemSizes
 885               	.L134:
 886               	.LM129:
 887 03ae 8FE0      		ldi r24,lo8(15)
 888 03b0 189F      		mul r17,r24
 889 03b2 C001      		movw r24,r0
 890 03b4 1124      		clr r1
 891 03b6 8050      		subi r24,lo8(-(SIFONames))
 892 03b8 9040      		sbci r25,hi8(-(SIFONames))
 893 03ba 0E94 0000 		call LCD_puts_f
 894               	.LM130:
 895 03be 0E94 0000 		call MAIN_WaitForJoyRelease
 896 03c2 00C0      		rjmp .L150
 897               	.L144:
 898               	/* epilogue: frame size=0 */
 899 03c4 1F91      		pop r17
 900 03c6 0895      		ret
 901               	/* epilogue end (size=2) */
 902               	/* function FUNCStorageInfo size 78 (75) */
 903               	.LFE38:
 905               	.global	MAIN_ShowProgType
 907               	MAIN_ShowProgType:
 908               	.LFB20:
 909               	.LM131:
 910               	/* prologue: frame size=7 */
 911 03c8 FF92      		push r15
 912 03ca 0F93      		push r16
 913 03cc 1F93      		push r17
 914 03ce CF93      		push r28
 915 03d0 DF93      		push r29
 916 03d2 CDB7      		in r28,__SP_L__
 917 03d4 DEB7      		in r29,__SP_H__
 918 03d6 2797      		sbiw r28,7
 919 03d8 0FB6      		in __tmp_reg__,__SREG__
 920 03da F894      		cli
 921 03dc DEBF      		out __SP_H__,r29
 922 03de 0FBE      		out __SREG__,__tmp_reg__
 923 03e0 CDBF      		out __SP_L__,r28
 924               	/* prologue end (size=13) */
 925               	.LVL50:
 926 03e2 F82E      		mov r15,r24
 927               	.LM132:
 928 03e4 8E01      		movw r16,r28
 929 03e6 0F5F      		subi r16,lo8(-(1))
 930 03e8 1F4F      		sbci r17,hi8(-(1))
 931 03ea 60E0      		ldi r22,lo8(__c.2032)
 932 03ec 70E0      		ldi r23,hi8(__c.2032)
 933 03ee C801      		movw r24,r16
 934               	.LVL51:
 935 03f0 0E94 0000 		call strcpy_P
 936               	.LM133:
 937 03f4 FE82      		std Y+6,r15
 938               	.LM134:
 939 03f6 C801      		movw r24,r16
 940 03f8 0E94 0000 		call LCD_puts
 941               	/* epilogue: frame size=7 */
 942 03fc 2796      		adiw r28,7
 943 03fe 0FB6      		in __tmp_reg__,__SREG__
 944 0400 F894      		cli
 945 0402 DEBF      		out __SP_H__,r29
 946 0404 0FBE      		out __SREG__,__tmp_reg__
 947 0406 CDBF      		out __SP_L__,r28
 948 0408 DF91      		pop r29
 949 040a CF91      		pop r28
 950 040c 1F91      		pop r17
 951 040e 0F91      		pop r16
 952 0410 FF90      		pop r15
 953 0412 0895      		ret
 954               	/* epilogue end (size=12) */
 955               	/* function MAIN_ShowProgType size 38 (13) */
 956               	.LFE20:
 958               	.global	FUNCStoreProgram
 960               	FUNCStoreProgram:
 961               	.LFB30:
 962               	.LM135:
 963               	/* prologue: frame size=0 */
 964               	/* prologue end (size=0) */
 965               	.LM136:
 966 0414 80E0      		ldi r24,lo8(gs(SPI_SPITransmit))
 967 0416 90E0      		ldi r25,hi8(gs(SPI_SPITransmit))
 968 0418 9093 0000 		sts (DFSPIRoutinePointer)+1,r25
 969 041c 8093 0000 		sts DFSPIRoutinePointer,r24
 970               	.LM137:
 971 0420 0E94 0000 		call SPI_SPIInit
 972               	.LM138:
 973 0424 1092 0000 		sts DataflashInfo+10,__zero_reg__
 974               	.LM139:
 975 0428 81E0      		ldi r24,lo8(1)
 976 042a 0E94 0000 		call DF_EnableDataflash
 977               	.LM140:
 978 042e 0E94 0000 		call DF_CheckCorrectOnboardChip
 979 0432 8823      		tst r24
 980 0434 01F0      		breq .L156
 981               	.LM141:
 982 0436 80E0      		ldi r24,lo8(WaitText)
 983 0438 90E0      		ldi r25,hi8(WaitText)
 984 043a 0E94 0000 		call LCD_puts_f
 985 043e 0E94 0000 		call OSCCAL_Calibrate
 986 0442 8091 C100 		lds r24,193
 987 0446 8078      		andi r24,lo8(-128)
 988 0448 8861      		ori r24,lo8(24)
 989 044a 8093 C100 		sts 193,r24
 990               	.LM142:
 991 044e 80E0      		ldi r24,lo8(__c.2277)
 992 0450 90E0      		ldi r25,hi8(__c.2277)
 993 0452 0E94 0000 		call LCD_puts_f
 994               	.LM143:
 995 0456 80E0      		ldi r24,lo8(gs(PM_InterpretAVRISPPacket))
 996 0458 90E0      		ldi r25,hi8(gs(PM_InterpretAVRISPPacket))
 997 045a 0E94 0000 		call V2P_RunStateMachine
 998               	.LM144:
 999 045e 80E0      		ldi r24,lo8(0)
 1000 0460 0E94 0000 		call DF_EnableDataflash
 1001               	.LM145:
 1002 0464 8091 6400 		lds r24,100
 1003 0468 8460      		ori r24,lo8(4)
 1004 046a 8093 6400 		sts 100,r24
 1005               	.L156:
 1006 046e 0895      		ret
 1007               	/* epilogue: frame size=0 */
 1008               	/* epilogue: noreturn */
 1009               	/* epilogue end (size=0) */
 1010               	/* function FUNCStoreProgram size 46 (46) */
 1011               	.LFE30:
 1013               	.global	FUNCAVRISPMode
 1015               	FUNCAVRISPMode:
 1016               	.LFB27:
 1017               	.LM146:
 1018               	/* prologue: frame size=0 */
 1019               	/* prologue end (size=0) */
 1020               	.LM147:
 1021 0470 80E0      		ldi r24,lo8(WaitText)
 1022 0472 90E0      		ldi r25,hi8(WaitText)
 1023 0474 0E94 0000 		call LCD_puts_f
 1024 0478 0E94 0000 		call OSCCAL_Calibrate
 1025 047c E1EC      		ldi r30,lo8(193)
 1026 047e F0E0      		ldi r31,hi8(193)
 1027 0480 8081      		ld r24,Z
 1028 0482 8078      		andi r24,lo8(-128)
 1029 0484 8861      		ori r24,lo8(24)
 1030 0486 8083      		st Z,r24
 1031               	.LM148:
 1032 0488 80E0      		ldi r24,lo8(AVRISPModeMessage)
 1033 048a 90E0      		ldi r25,hi8(AVRISPModeMessage)
 1034 048c 0E94 0000 		call LCD_puts_f
 1035               	.LM149:
 1036 0490 80E0      		ldi r24,lo8(gs(AICI_InterpretPacket))
 1037 0492 90E0      		ldi r25,hi8(gs(AICI_InterpretPacket))
 1038 0494 0E94 0000 		call V2P_RunStateMachine
 1039               	/* epilogue: frame size=0 */
 1040 0498 0895      		ret
 1041               	/* epilogue end (size=1) */
 1042               	/* function FUNCAVRISPMode size 21 (20) */
 1043               	.LFE27:
 1045               	.global	FUNCProgramDataflash
 1047               	FUNCProgramDataflash:
 1048               	.LFB28:
 1049               	.LM150:
 1050               	/* prologue: frame size=0 */
 1051               	/* prologue end (size=0) */
 1052               	.LM151:
 1053 049a 0E94 0000 		call USI_SPIInitMaster
 1054               	.LM152:
 1055 049e 81E0      		ldi r24,lo8(1)
 1056 04a0 8093 0000 		sts DataflashInfo+10,r24
 1057               	.LM153:
 1058 04a4 80E0      		ldi r24,lo8(gs(USI_SPITransmit))
 1059 04a6 90E0      		ldi r25,hi8(gs(USI_SPITransmit))
 1060 04a8 9093 0000 		sts (DFSPIRoutinePointer)+1,r25
 1061 04ac 8093 0000 		sts DFSPIRoutinePointer,r24
 1062               	.LM154:
 1063 04b0 80E0      		ldi r24,lo8(WaitText)
 1064 04b2 90E0      		ldi r25,hi8(WaitText)
 1065 04b4 0E94 0000 		call LCD_puts_f
 1066 04b8 0E94 0000 		call OSCCAL_Calibrate
 1067 04bc E1EC      		ldi r30,lo8(193)
 1068 04be F0E0      		ldi r31,hi8(193)
 1069 04c0 8081      		ld r24,Z
 1070 04c2 8078      		andi r24,lo8(-128)
 1071 04c4 8861      		ori r24,lo8(24)
 1072 04c6 8083      		st Z,r24
 1073               	.LM155:
 1074 04c8 80E0      		ldi r24,lo8(DataFlashProgMode)
 1075 04ca 90E0      		ldi r25,hi8(DataFlashProgMode)
 1076 04cc 0E94 0000 		call LCD_puts_f
 1077               	.LM156:
 1078 04d0 80E0      		ldi r24,lo8(gs(PD_InterpretAVRISPPacket))
 1079 04d2 90E0      		ldi r25,hi8(gs(PD_InterpretAVRISPPacket))
 1080 04d4 0E94 0000 		call V2P_RunStateMachine
 1081               	.LM157:
 1082 04d8 80E0      		ldi r24,lo8(0)
 1083 04da 0E94 0000 		call DF_EnableDataflash
 1084               	.LM158:
 1085 04de E4E6      		ldi r30,lo8(100)
 1086 04e0 F0E0      		ldi r31,hi8(100)
 1087 04e2 8081      		ld r24,Z
 1088 04e4 8460      		ori r24,lo8(4)
 1089 04e6 8083      		st Z,r24
 1090               	/* epilogue: frame size=0 */
 1091 04e8 0895      		ret
 1092               	/* epilogue end (size=1) */
 1093               	/* function FUNCProgramDataflash size 40 (39) */
 1094               	.LFE28:
 1096               	.global	MAIN_CrashProgram
 1098               	MAIN_CrashProgram:
 1099               	.LFB22:
 1100               	.LM159:
 1101               	/* prologue: frame size=0 */
 1102               	/* prologue end (size=0) */
 1103               	.LVL52:
 1104 04ea 8C01      		movw r16,r24
 1105               	.LM160:
 1106 04ec 8091 6400 		lds r24,100
 1107               	.LVL53:
 1108 04f0 8460      		ori r24,lo8(4)
 1109 04f2 8093 6400 		sts 100,r24
 1110               	.LM161:
 1111 04f6 0E94 0000 		call USI_SPIOff
 1112               	.LM162:
 1113 04fa 1092 B000 		sts 176,__zero_reg__
 1114 04fe 1092 7000 		sts 112,__zero_reg__
 1115               	.LM163:
 1116 0502 1092 8100 		sts 129,__zero_reg__
 1117               	.LM164:
 1118 0506 80E8      		ldi r24,lo8(-128)
 1119 0508 8093 6100 		sts 97,r24
 1120 050c 83E0      		ldi r24,lo8(3)
 1121 050e 8093 6100 		sts 97,r24
 1122 0512 1092 C100 		sts 193,__zero_reg__
 1123               	.LM165:
 1124 0516 C801      		movw r24,r16
 1125 0518 0E94 0000 		call LCD_puts_f
 1126               	.LM166:
 1127 051c 81B3      		in r24,49-0x20
 1128 051e 8F7C      		andi r24,lo8(-49)
 1129 0520 8063      		ori r24,lo8(48)
 1130               	.L164:
 1131               	.LM167:
 1132 0522 81BB      		out 49-0x20,r24
 1133               	.LM168:
 1134 0524 82E3      		ldi r24,lo8(50)
 1135 0526 0E94 0000 		call MAIN_Delay10MS
 1136               	.LM169:
 1137 052a 81B3      		in r24,49-0x20
 1138 052c 90E1      		ldi r25,lo8(16)
 1139 052e 8927      		eor r24,r25
 1140 0530 00C0      		rjmp .L164
 1141               	/* epilogue: frame size=0 */
 1142               	/* epilogue: noreturn */
 1143               	/* epilogue end (size=0) */
 1144               	/* function MAIN_CrashProgram size 36 (36) */
 1145               	.LFE22:
 1147               	.global	__vector_default
 1149               	__vector_default:
 1150               	.LFB24:
 1151               	.LM170:
 1152               	/* prologue: frame size=0 */
 1153               	/* prologue: naked */
 1154               	/* prologue end (size=0) */
 1155               	.LM171:
 1156 0532 80E0      		ldi r24,lo8(__c.2095)
 1157 0534 90E0      		ldi r25,hi8(__c.2095)
 1158 0536 0E94 0000 		call MAIN_CrashProgram
 1159               	/* epilogue: frame size=0 */
 1160               	/* epilogue: naked */
 1161               	/* epilogue end (size=0) */
 1162               	/* function __vector_default size 4 (4) */
 1163               	.LFE24:
 1165               	.global	FUNCProgramAVR
 1167               	FUNCProgramAVR:
 1168               	.LFB29:
 1169               	.LM172:
 1170               	/* prologue: frame size=19 */
 1171 053a 0F93      		push r16
 1172 053c 1F93      		push r17
 1173 053e CF93      		push r28
 1174 0540 DF93      		push r29
 1175 0542 CDB7      		in r28,__SP_L__
 1176 0544 DEB7      		in r29,__SP_H__
 1177 0546 6397      		sbiw r28,19
 1178 0548 0FB6      		in __tmp_reg__,__SREG__
 1179 054a F894      		cli
 1180 054c DEBF      		out __SP_H__,r29
 1181 054e 0FBE      		out __SREG__,__tmp_reg__
 1182 0550 CDBF      		out __SP_L__,r28
 1183               	/* prologue end (size=12) */
 1184               	.LM173:
 1185 0552 80E0      		ldi r24,lo8(gs(SPI_SPITransmit))
 1186 0554 90E0      		ldi r25,hi8(gs(SPI_SPITransmit))
 1187 0556 9093 0000 		sts (DFSPIRoutinePointer)+1,r25
 1188 055a 8093 0000 		sts DFSPIRoutinePointer,r24
 1189               	.LM174:
 1190 055e 0E94 0000 		call SPI_SPIInit
 1191               	.LM175:
 1192 0562 1092 0000 		sts DataflashInfo+10,__zero_reg__
 1193               	.LM176:
 1194 0566 0E94 0000 		call DF_CheckCorrectOnboardChip
 1195 056a 8823      		tst r24
 1196 056c 01F4      		brne .+2
 1197 056e 00C0      		rjmp .L223
 1198               	.LM177:
 1199 0570 0E94 0000 		call MAIN_WaitForJoyRelease
 1200               	.LM178:
 1201 0574 81E0      		ldi r24,lo8(1)
 1202 0576 8EBB      		out 62-0x20,r24
 1203 0578 10E0      		ldi r17,lo8(0)
 1204               	.LVL54:
 1205               	.L232:
 1206               	.LM179:
 1207 057a 8EB3      		in r24,62-0x20
 1208 057c 8823      		tst r24
 1209 057e 01F0      		breq .L232
 1210               	.LM180:
 1211 0580 F299      		sbic 62-0x20,2
 1212 0582 00C0      		rjmp .L223
 1213               	.LM181:
 1214 0584 F499      		sbic 62-0x20,4
 1215 0586 00C0      		rjmp .L173
 1216               	.LM182:
 1217 0588 F69B      		sbis 62-0x20,6
 1218 058a 00C0      		rjmp .L175
 1219               	.LM183:
 1220 058c 1123      		tst r17
 1221 058e 01F4      		brne .L177
 1222 0590 17E0      		ldi r17,lo8(7)
 1223 0592 00C0      		rjmp .L179
 1224               	.L177:
 1225 0594 1150      		subi r17,lo8(-(-1))
 1226 0596 00C0      		rjmp .L179
 1227               	.L175:
 1228               	.LM184:
 1229 0598 F79B      		sbis 62-0x20,7
 1230 059a 00C0      		rjmp .L179
 1231               	.LM185:
 1232 059c 1730      		cpi r17,lo8(7)
 1233 059e 01F4      		brne .L181
 1234 05a0 10E0      		ldi r17,lo8(0)
 1235 05a2 00C0      		rjmp .L179
 1236               	.L181:
 1237 05a4 1F5F      		subi r17,lo8(-(1))
 1238               	.L179:
 1239               	.LBB64:
 1240               	.LM186:
 1241 05a6 E12F      		mov r30,r17
 1242 05a8 FF27      		clr r31
 1243               	.LVL55:
 1244 05aa EE0F      		lsl r30
 1245 05ac FF1F      		rol r31
 1246 05ae E050      		subi r30,lo8(-(ProgOptions))
 1247 05b0 F040      		sbci r31,hi8(-(ProgOptions))
 1248               	.LBE64:
 1249               	/* #APP */
 1250 05b2 8591      		lpm r24, Z+
 1251 05b4 9491      		lpm r25, Z
 1252               		
 1253               	.LVL56:
 1254               	/* #NOAPP */
 1255 05b6 0E94 0000 		call LCD_puts_f
 1256               	.LVL57:
 1257               	.LM187:
 1258 05ba 0E94 0000 		call MAIN_WaitForJoyRelease
 1259 05be 00C0      		rjmp .L232
 1260               	.L173:
 1261               	.LM188:
 1262 05c0 80E8      		ldi r24,lo8(-128)
 1263 05c2 8093 6100 		sts 97,r24
 1264 05c6 1092 6100 		sts 97,__zero_reg__
 1265               	.LM189:
 1266 05ca 80E0      		ldi r24,lo8(WaitText)
 1267 05cc 90E0      		ldi r25,hi8(WaitText)
 1268 05ce 0E94 0000 		call LCD_puts_f
 1269               	.LM190:
 1270 05d2 1092 8100 		sts 129,__zero_reg__
 1271               	.LM191:
 1272 05d6 0E94 0000 		call USI_SPIInitMaster
 1273               	.LM192:
 1274 05da 80E0      		ldi r24,lo8(0)
 1275 05dc 0E94 0000 		call MAIN_ResetCSLine
 1276 05e0 20E0      		ldi r18,lo8(EEPROMVars+39)
 1277 05e2 30E0      		ldi r19,hi8(EEPROMVars+39)
 1278 05e4 E0E0      		ldi r30,lo8(PacketBytes)
 1279 05e6 F0E0      		ldi r31,hi8(PacketBytes)
 1280               	.L183:
 1281               	.LBB65:
 1282               	.LBB66:
 1283               	.LBB67:
 1284               	.LM193:
 1285 05e8 D901      		movw r26,r18
 1286               	.LVL58:
 1287               	/* #APP */
 1288 05ea 0E94 0000 		call __eeprom_read_byte_1F2021
 1289 05ee 802D      		mov r24,__tmp_reg__
 1290               	.LVL59:
 1291               	/* #NOAPP */
 1292               	.LBE67:
 1293               	.LBE66:
 1294               	.LM194:
 1295 05f0 8193      		st Z+,r24
 1296 05f2 2F5F      		subi r18,lo8(-(1))
 1297 05f4 3F4F      		sbci r19,hi8(-(1))
 1298               	.LM195:
 1299 05f6 80E0      		ldi r24,hi8(EEPROMVars+51)
 1300 05f8 2030      		cpi r18,lo8(EEPROMVars+51)
 1301 05fa 3807      		cpc r19,r24
 1302               	.LVL60:
 1303 05fc 01F4      		brne .L183
 1304               	.LBE65:
 1305               	.LM196:
 1306 05fe 0E94 0000 		call ISPCC_EnterChipProgrammingMode
 1307               	.LVL61:
 1308               	.LM197:
 1309 0602 1092 0000 		sts CurrAddress,__zero_reg__
 1310 0606 1092 0000 		sts (CurrAddress)+1,__zero_reg__
 1311 060a 1092 0000 		sts (CurrAddress)+2,__zero_reg__
 1312 060e 1092 0000 		sts (CurrAddress)+3,__zero_reg__
 1313               	.LM198:
 1314 0612 8091 0000 		lds r24,PacketBytes+1
 1315 0616 8823      		tst r24
 1316 0618 01F0      		breq .+2
 1317 061a 00C0      		rjmp .L185
 1318               	.LM199:
 1319 061c 1123      		tst r17
 1320 061e 01F0      		breq .L187
 1321 0620 1730      		cpi r17,lo8(7)
 1322 0622 01F0      		breq .L187
 1323 0624 1130      		cpi r17,lo8(1)
 1324 0626 01F0      		breq .L187
 1325 0628 1330      		cpi r17,lo8(3)
 1326 062a 01F4      		brne .L231
 1327               	.L187:
 1328               	.LM200:
 1329 062c 83E4      		ldi r24,lo8(67)
 1330 062e 0E94 0000 		call MAIN_ShowProgType
 1331               	.LBB68:
 1332               	.LBB69:
 1333               	.LM201:
 1334 0632 A0E0      		ldi r26,lo8(EEPROMVars+23)
 1335 0634 B0E0      		ldi r27,hi8(EEPROMVars+23)
 1336               	/* #APP */
 1337 0636 0E94 0000 		call __eeprom_read_byte_1F2021
 1338 063a 802D      		mov r24,__tmp_reg__
 1339               	.LVL62:
 1340               	/* #NOAPP */
 1341               	.LBE69:
 1342               	.LBE68:
 1343               	.LM202:
 1344 063c 8130      		cpi r24,lo8(1)
 1345 063e 01F0      		breq .L193
 1346               	.LM203:
 1347 0640 80E0      		ldi r24,lo8(__c.2198)
 1348 0642 90E0      		ldi r25,hi8(__c.2198)
 1349               	.LVL63:
 1350 0644 0E94 0000 		call MAIN_ShowError
 1351               	.LVL64:
 1352 0648 02E0      		ldi r16,lo8(2)
 1353               	.LVL65:
 1354 064a 00C0      		rjmp .L192
 1355               	.LVL66:
 1356               	.L193:
 1357               	.LM204:
 1358 064c 0E94 0000 		call PM_SendEraseCommand
 1359               	.LVL67:
 1360               	.L231:
 1361 0650 00E0      		ldi r16,lo8(0)
 1362               	.LVL68:
 1363               	.L192:
 1364               	.LM205:
 1365 0652 1230      		cpi r17,lo8(2)
 1366 0654 00F0      		brlo .L195
 1367 0656 1330      		cpi r17,lo8(3)
 1368 0658 01F4      		brne .L197
 1369               	.L195:
 1370 065a 0023      		tst r16
 1371 065c 01F4      		brne .L198
 1372               	.LM206:
 1373 065e 84E4      		ldi r24,lo8(68)
 1374 0660 0E94 0000 		call MAIN_ShowProgType
 1375               	.LM207:
 1376 0664 81E0      		ldi r24,lo8(1)
 1377 0666 0E94 0000 		call PM_GetStoredDataSize
 1378 066a 6115      		cp r22,__zero_reg__
 1379 066c 7105      		cpc r23,__zero_reg__
 1380 066e 8105      		cpc r24,__zero_reg__
 1381 0670 9105      		cpc r25,__zero_reg__
 1382 0672 01F4      		brne .L200
 1383               	.LM208:
 1384 0674 80E0      		ldi r24,lo8(__c.2200)
 1385 0676 90E0      		ldi r25,hi8(__c.2200)
 1386 0678 0E94 0000 		call MAIN_ShowError
 1387 067c 03E0      		ldi r16,lo8(3)
 1388 067e 00C0      		rjmp .L198
 1389               	.L200:
 1390               	.LM209:
 1391 0680 81E0      		ldi r24,lo8(1)
 1392 0682 0E94 0000 		call PM_CreateProgrammingPackets
 1393               	.L198:
 1394               	.LM210:
 1395 0686 1123      		tst r17
 1396 0688 01F0      		breq .L202
 1397               	.L197:
 1398 068a 1230      		cpi r17,lo8(2)
 1399 068c 01F0      		breq .L202
 1400 068e 1330      		cpi r17,lo8(3)
 1401 0690 01F4      		brne .L204
 1402               	.L202:
 1403               	.LM211:
 1404 0692 85E4      		ldi r24,lo8(69)
 1405 0694 0E94 0000 		call MAIN_ShowProgType
 1406               	.LM212:
 1407 0698 80E0      		ldi r24,lo8(0)
 1408 069a 0E94 0000 		call PM_GetStoredDataSize
 1409 069e 6115      		cp r22,__zero_reg__
 1410 06a0 7105      		cpc r23,__zero_reg__
 1411 06a2 8105      		cpc r24,__zero_reg__
 1412 06a4 9105      		cpc r25,__zero_reg__
 1413 06a6 01F4      		brne .L205
 1414               	.LM213:
 1415 06a8 80E0      		ldi r24,lo8(__c.2202)
 1416 06aa 90E0      		ldi r25,hi8(__c.2202)
 1417 06ac 0E94 0000 		call MAIN_ShowError
 1418 06b0 03E0      		ldi r16,lo8(3)
 1419 06b2 00C0      		rjmp .L207
 1420               	.L205:
 1421               	.LM214:
 1422 06b4 80E0      		ldi r24,lo8(0)
 1423 06b6 0E94 0000 		call PM_CreateProgrammingPackets
 1424               	.L207:
 1425               	.LM215:
 1426 06ba 1123      		tst r17
 1427 06bc 01F0      		breq .L208
 1428               	.L204:
 1429 06be 1430      		cpi r17,lo8(4)
 1430 06c0 01F0      		breq .L208
 1431 06c2 1630      		cpi r17,lo8(6)
 1432 06c4 01F4      		brne .L210
 1433               	.L208:
 1434               	.LM216:
 1435 06c6 86E4      		ldi r24,lo8(70)
 1436 06c8 0E94 0000 		call MAIN_ShowProgType
 1437               	.LBB70:
 1438               	.LBB71:
 1439               	.LM217:
 1440 06cc A0E0      		ldi r26,lo8(EEPROMVars+51)
 1441 06ce B0E0      		ldi r27,hi8(EEPROMVars+51)
 1442               	/* #APP */
 1443 06d0 0E94 0000 		call __eeprom_read_byte_1F2021
 1444 06d4 802D      		mov r24,__tmp_reg__
 1445               	.LVL69:
 1446               	/* #NOAPP */
 1447               	.LBE71:
 1448               	.LBE70:
 1449               	.LM218:
 1450 06d6 8823      		tst r24
 1451 06d8 01F4      		brne .L211
 1452               	.LM219:
 1453 06da 80E0      		ldi r24,lo8(__c.2204)
 1454 06dc 90E0      		ldi r25,hi8(__c.2204)
 1455               	.LVL70:
 1456 06de 0E94 0000 		call MAIN_ShowError
 1457               	.LVL71:
 1458 06e2 03E0      		ldi r16,lo8(3)
 1459 06e4 00C0      		rjmp .L213
 1460               	.LVL72:
 1461               	.L211:
 1462               	.LM220:
 1463 06e6 82E0      		ldi r24,lo8(2)
 1464               	.LVL73:
 1465 06e8 0E94 0000 		call PM_SendFuseLockBytes
 1466               	.LVL74:
 1467               	.L213:
 1468               	.LM221:
 1469 06ec 1123      		tst r17
 1470 06ee 01F0      		breq .L214
 1471               	.L210:
 1472 06f0 1530      		cpi r17,lo8(5)
 1473 06f2 01F0      		breq .L214
 1474 06f4 1630      		cpi r17,lo8(6)
 1475 06f6 01F4      		brne .L216
 1476               	.LM222:
 1477 06f8 81E0      		ldi r24,lo8(1)
 1478 06fa 0E94 0000 		call MAIN_ResetCSLine
 1479               	.LM223:
 1480 06fe 81E0      		ldi r24,lo8(1)
 1481 0700 0E94 0000 		call MAIN_Delay10MS
 1482               	.LM224:
 1483 0704 80E0      		ldi r24,lo8(0)
 1484 0706 0E94 0000 		call MAIN_ResetCSLine
 1485               	.LM225:
 1486 070a 0E94 0000 		call ISPCC_EnterChipProgrammingMode
 1487               	.L214:
 1488               	.LM226:
 1489 070e 8CE4      		ldi r24,lo8(76)
 1490 0710 0E94 0000 		call MAIN_ShowProgType
 1491               	.LBB72:
 1492               	.LBB73:
 1493               	.LM227:
 1494 0714 A0E0      		ldi r26,lo8(EEPROMVars+52)
 1495 0716 B0E0      		ldi r27,hi8(EEPROMVars+52)
 1496               	/* #APP */
 1497 0718 0E94 0000 		call __eeprom_read_byte_1F2021
 1498 071c 802D      		mov r24,__tmp_reg__
 1499               	.LVL75:
 1500               	/* #NOAPP */
 1501               	.LBE73:
 1502               	.LBE72:
 1503               	.LM228:
 1504 071e 8823      		tst r24
 1505 0720 01F4      		brne .L218
 1506               	.LM229:
 1507 0722 80E0      		ldi r24,lo8(__c.2206)
 1508 0724 90E0      		ldi r25,hi8(__c.2206)
 1509               	.LVL76:
 1510 0726 0E94 0000 		call MAIN_ShowError
 1511               	.LVL77:
 1512               	.LM230:
 1513 072a 60E0      		ldi r22,lo8(__c.2208)
 1514 072c 70E0      		ldi r23,hi8(__c.2208)
 1515 072e CE01      		movw r24,r28
 1516 0730 0196      		adiw r24,1
 1517 0732 0E94 0000 		call strcpy_P
 1518 0736 00C0      		rjmp .L220
 1519               	.LVL78:
 1520               	.L218:
 1521               	.LM231:
 1522 0738 83E0      		ldi r24,lo8(3)
 1523               	.LVL79:
 1524 073a 0E94 0000 		call PM_SendFuseLockBytes
 1525               	.LVL80:
 1526               	.L216:
 1527               	.LM232:
 1528 073e 60E0      		ldi r22,lo8(__c.2208)
 1529 0740 70E0      		ldi r23,hi8(__c.2208)
 1530 0742 CE01      		movw r24,r28
 1531 0744 0196      		adiw r24,1
 1532 0746 0E94 0000 		call strcpy_P
 1533               	.LM233:
 1534 074a 0023      		tst r16
 1535 074c 01F0      		breq .L221
 1536               	.L220:
 1537               	.LM234:
 1538 074e 60E0      		ldi r22,lo8(__c.2210)
 1539 0750 70E0      		ldi r23,hi8(__c.2210)
 1540 0752 CE01      		movw r24,r28
 1541 0754 0D96      		adiw r24,13
 1542 0756 0E94 0000 		call strcpy_P
 1543               	.L221:
 1544               	.LM235:
 1545 075a CE01      		movw r24,r28
 1546 075c 0196      		adiw r24,1
 1547 075e 0E94 0000 		call LCD_puts
 1548               	.LM236:
 1549 0762 8AEF      		ldi r24,lo8(-6)
 1550 0764 0E94 0000 		call MAIN_Delay10MS
 1551               	.LM237:
 1552 0768 88EC      		ldi r24,lo8(-56)
 1553 076a 0E94 0000 		call MAIN_Delay10MS
 1554 076e 00C0      		rjmp .L222
 1555               	.LVL81:
 1556               	.L185:
 1557               	.LM238:
 1558 0770 80E0      		ldi r24,lo8(SyncErrorMessage)
 1559 0772 90E0      		ldi r25,hi8(SyncErrorMessage)
 1560 0774 0E94 0000 		call MAIN_ShowError
 1561               	.LVL82:
 1562               	.L222:
 1563               	.LM239:
 1564 0778 0E94 0000 		call TOUT_SetupSleepTimer
 1565               	.LM240:
 1566 077c 80E8      		ldi r24,lo8(-128)
 1567 077e 8093 6100 		sts 97,r24
 1568 0782 83E0      		ldi r24,lo8(3)
 1569 0784 8093 6100 		sts 97,r24
 1570               	.LM241:
 1571 0788 81E0      		ldi r24,lo8(1)
 1572 078a 0E94 0000 		call MAIN_ResetCSLine
 1573               	.LM242:
 1574 078e 0E94 0000 		call USI_SPIOff
 1575               	.LM243:
 1576 0792 80E0      		ldi r24,lo8(0)
 1577 0794 0E94 0000 		call DF_EnableDataflash
 1578               	.LM244:
 1579 0798 8091 6400 		lds r24,100
 1580 079c 8460      		ori r24,lo8(4)
 1581 079e 8093 6400 		sts 100,r24
 1582               	.LM245:
 1583 07a2 81B3      		in r24,49-0x20
 1584 07a4 8F7C      		andi r24,lo8(-49)
 1585 07a6 8061      		ori r24,lo8(16)
 1586 07a8 81BB      		out 49-0x20,r24
 1587               	.L223:
 1588               	/* epilogue: frame size=19 */
 1589 07aa 6396      		adiw r28,19
 1590 07ac 0FB6      		in __tmp_reg__,__SREG__
 1591 07ae F894      		cli
 1592 07b0 DEBF      		out __SP_H__,r29
 1593 07b2 0FBE      		out __SREG__,__tmp_reg__
 1594 07b4 CDBF      		out __SP_L__,r28
 1595 07b6 DF91      		pop r29
 1596 07b8 CF91      		pop r28
 1597 07ba 1F91      		pop r17
 1598 07bc 0F91      		pop r16
 1599 07be 0895      		ret
 1600               	/* epilogue end (size=11) */
 1601               	/* function FUNCProgramAVR size 331 (308) */
 1602               	.LFE29:
 1604               	.global	main
 1606               	main:
 1607               	.LFB14:
 1608               	.LM246:
 1609               	/* prologue: frame size=0 */
 1610 07c0 1F93      		push r17
 1611               	/* prologue end (size=1) */
 1612               	.LM247:
 1613 07c2 80E8      		ldi r24,lo8(-128)
 1614 07c4 85BF      		out 85-0x20,r24
 1615               	.LM248:
 1616 07c6 85BF      		out 85-0x20,r24
 1617               	.LM249:
 1618 07c8 80BF      		out 80-0x20,r24
 1619               	.LM250:
 1620 07ca 85E0      		ldi r24,lo8(5)
 1621 07cc 8093 6400 		sts 100,r24
 1622               	.LM251:
 1623 07d0 80E3      		ldi r24,lo8(48)
 1624 07d2 80BB      		out 48-0x20,r24
 1625               	.LM252:
 1626 07d4 87E2      		ldi r24,lo8(39)
 1627 07d6 84B9      		out 36-0x20,r24
 1628               	.LM253:
 1629 07d8 8FED      		ldi r24,lo8(-33)
 1630 07da 85B9      		out 37-0x20,r24
 1631               	.LM254:
 1632 07dc 8CE0      		ldi r24,lo8(12)
 1633 07de 8EB9      		out 46-0x20,r24
 1634               	.LM255:
 1635 07e0 8093 6B00 		sts 107,r24
 1636               	.LM256:
 1637 07e4 80ED      		ldi r24,lo8(-48)
 1638 07e6 8093 6C00 		sts 108,r24
 1639               	.LM257:
 1640 07ea 80EC      		ldi r24,lo8(-64)
 1641 07ec 8DBB      		out 61-0x20,r24
 1642               	.LM258:
 1643 07ee 8CBB      		out 60-0x20,r24
 1644               	.LM259:
 1645 07f0 81B3      		in r24,49-0x20
 1646 07f2 8F7C      		andi r24,lo8(-49)
 1647 07f4 8063      		ori r24,lo8(48)
 1648 07f6 81BB      		out 49-0x20,r24
 1649               	.LM260:
 1650 07f8 81E0      		ldi r24,lo8(1)
 1651 07fa 0E94 0000 		call MAIN_ResetCSLine
 1652               	.LM261:
 1653 07fe 0E94 0000 		call LCD_Init
 1654               	.LM262:
 1655 0802 8FE0      		ldi r24,lo8(15)
 1656 0804 8093 E700 		sts 231,r24
 1657               	.LM263:
 1658 0808 80E0      		ldi r24,lo8(WaitText)
 1659 080a 90E0      		ldi r25,hi8(WaitText)
 1660 080c 0E94 0000 		call LCD_puts_f
 1661               	.LM264:
 1662               	/* #APP */
 1663 0810 7894      		sei
 1664               	/* #NOAPP */
 1665               	.LBB85:
 1666               	.LBB86:
 1667               	.LM265:
 1668 0812 A0E0      		ldi r26,lo8(EEPROMVars+141)
 1669 0814 B0E0      		ldi r27,hi8(EEPROMVars+141)
 1670               	/* #APP */
 1671 0816 0E94 0000 		call __eeprom_read_byte_1F2021
 1672 081a 802D      		mov r24,__tmp_reg__
 1673               	.LVL83:
 1674               	/* #NOAPP */
 1675               	.LBE86:
 1676               	.LBE85:
 1677               	.LM266:
 1678 081c 8A37      		cpi r24,lo8(122)
 1679 081e 01F0      		breq .L234
 1680               	.LM267:
 1681 0820 80E0      		ldi r24,lo8(0)
 1682 0822 90E0      		ldi r25,hi8(0)
 1683               	.LVL84:
 1684 0824 2FEF      		ldi r18,lo8(-1)
 1685               	.L236:
 1686               	.LBB87:
 1687               	.LBB88:
 1688               	.LBB89:
 1689               	.LM268:
 1690 0826 DC01      		movw r26,r24
 1691               	.LVL85:
 1692               	/* #APP */
 1693 0828 022E      		mov __tmp_reg__,r18
 1694 082a 0E94 0000 		call __eeprom_write_byte_1F2021
 1695               	/* #NOAPP */
 1696               	.LBE89:
 1697               	.LBE88:
 1698               	.LM269:
 1699 082e 0196      		adiw r24,1
 1700 0830 8E38      		cpi r24,142
 1701 0832 9105      		cpc r25,__zero_reg__
 1702 0834 01F4      		brne .L236
 1703               	.LBE87:
 1704               	.LBB90:
 1705               	.LBB91:
 1706               	.LM270:
 1707 0836 8AE7      		ldi r24,lo8(122)
 1708               	.LVL86:
 1709 0838 A0E0      		ldi r26,lo8(EEPROMVars+141)
 1710 083a B0E0      		ldi r27,hi8(EEPROMVars+141)
 1711               	.LVL87:
 1712               	/* #APP */
 1713 083c 082E      		mov __tmp_reg__,r24
 1714 083e 0E94 0000 		call __eeprom_write_byte_1F2021
 1715               	.LVL88:
 1716               	/* #NOAPP */
 1717               	.L234:
 1718               	.LBE91:
 1719               	.LBE90:
 1720               	.LBB92:
 1721               	.LBB93:
 1722               	.LM271:
 1723 0842 A0E0      		ldi r26,lo8(EEPROMVars+137)
 1724 0844 B0E0      		ldi r27,hi8(EEPROMVars+137)
 1725               	.LVL89:
 1726               	/* #APP */
 1727 0846 0E94 0000 		call __eeprom_read_byte_1F2021
 1728 084a 802D      		mov r24,__tmp_reg__
 1729               	.LVL90:
 1730               	/* #NOAPP */
 1731               	.LBE93:
 1732               	.LBE92:
 1733               	.LM272:
 1734 084c 8F70      		andi r24,lo8(15)
 1735 084e 8093 E700 		sts 231,r24
 1736               	.LM273:
 1737 0852 80E0      		ldi r24,lo8(0)
 1738               	.LVL91:
 1739 0854 0E94 0000 		call DF_EnableDataflash
 1740               	.LVL92:
 1741               	.LM274:
 1742 0858 0E94 0000 		call USART_Init
 1743               	.LM275:
 1744 085c 0E94 0000 		call OSCCAL_Calibrate
 1745               	.LM276:
 1746 0860 0E94 0000 		call TOUT_SetupSleepTimer
 1747               	.LM277:
 1748 0864 81B3      		in r24,49-0x20
 1749 0866 8F7C      		andi r24,lo8(-49)
 1750 0868 8061      		ori r24,lo8(16)
 1751 086a 81BB      		out 49-0x20,r24
 1752               	.LM278:
 1753 086c 80E8      		ldi r24,lo8(-128)
 1754 086e 8093 6100 		sts 97,r24
 1755 0872 83E0      		ldi r24,lo8(3)
 1756 0874 8093 6100 		sts 97,r24
 1757               	.LM279:
 1758 0878 81E0      		ldi r24,lo8(1)
 1759 087a 8EBB      		out 62-0x20,r24
 1760 087c 10E0      		ldi r17,lo8(0)
 1761               	.LVL93:
 1762               	.L260:
 1763               	.LM280:
 1764 087e 8EB3      		in r24,62-0x20
 1765 0880 8823      		tst r24
 1766 0882 01F0      		breq .L260
 1767               	.LM281:
 1768 0884 F69B      		sbis 62-0x20,6
 1769 0886 00C0      		rjmp .L240
 1770               	.LM282:
 1771 0888 1123      		tst r17
 1772 088a 01F4      		brne .L242
 1773 088c 16E0      		ldi r17,lo8(6)
 1774 088e 00C0      		rjmp .L244
 1775               	.L242:
 1776 0890 1150      		subi r17,lo8(-(-1))
 1777 0892 00C0      		rjmp .L244
 1778               	.L240:
 1779               	.LM283:
 1780 0894 F79B      		sbis 62-0x20,7
 1781 0896 00C0      		rjmp .L245
 1782               	.LM284:
 1783 0898 1630      		cpi r17,lo8(6)
 1784 089a 01F4      		brne .L247
 1785 089c 10E0      		ldi r17,lo8(0)
 1786 089e 00C0      		rjmp .L244
 1787               	.L247:
 1788 08a0 1F5F      		subi r17,lo8(-(1))
 1789 08a2 00C0      		rjmp .L244
 1790               	.L245:
 1791               	.LM285:
 1792 08a4 F49B      		sbis 62-0x20,4
 1793 08a6 00C0      		rjmp .L249
 1794               	.LBB94:
 1795               	.LM286:
 1796 08a8 E12F      		mov r30,r17
 1797 08aa FF27      		clr r31
 1798               	.LVL94:
 1799 08ac EE0F      		lsl r30
 1800 08ae FF1F      		rol r31
 1801 08b0 E050      		subi r30,lo8(-(MainFunctionPtrs))
 1802 08b2 F040      		sbci r31,hi8(-(MainFunctionPtrs))
 1803               	/* #APP */
 1804 08b4 8591      		lpm r24, Z+
 1805 08b6 9491      		lpm r25, Z
 1806               		
 1807               	.LVL95:
 1808               	/* #NOAPP */
 1809               	.LBE94:
 1810 08b8 FC01      		movw r30,r24
 1811 08ba 0995      		icall
 1812               	.LVL96:
 1813 08bc 00C0      		rjmp .L244
 1814               	.L249:
 1815               	.LM287:
 1816 08be F39B      		sbis 62-0x20,3
 1817 08c0 00C0      		rjmp .L244
 1818               	.LM288:
 1819 08c2 0E94 0000 		call FUNCShowAbout
 1820               	.L244:
 1821               	.LBB95:
 1822               	.LM289:
 1823 08c6 E12F      		mov r30,r17
 1824 08c8 FF27      		clr r31
 1825               	.LVL97:
 1826 08ca EE0F      		lsl r30
 1827 08cc FF1F      		rol r31
 1828 08ce E050      		subi r30,lo8(-(MainFunctionNames))
 1829 08d0 F040      		sbci r31,hi8(-(MainFunctionNames))
 1830               	.LBE95:
 1831               	/* #APP */
 1832 08d2 8591      		lpm r24, Z+
 1833 08d4 9491      		lpm r25, Z
 1834               		
 1835               	.LVL98:
 1836               	/* #NOAPP */
 1837 08d6 0E94 0000 		call LCD_puts_f
 1838               	.LVL99:
 1839               	.LM290:
 1840 08da 0E94 0000 		call MAIN_WaitForJoyRelease
 1841 08de 00C0      		rjmp .L260
 1842               	/* epilogue: frame size=0 */
 1843               	/* epilogue: noreturn */
 1844               	/* epilogue end (size=0) */
 1845               	/* function main size 157 (156) */
 1846               	.LFE14:
 1848               	.global	FUNCClearMem
 1850               	FUNCClearMem:
 1851               	.LFB31:
 1852               	.LM291:
 1853               	/* prologue: frame size=0 */
 1854               	/* prologue end (size=0) */
 1855               	.LM292:
 1856 08e0 80E0      		ldi r24,lo8(__c.2294)
 1857 08e2 90E0      		ldi r25,hi8(__c.2294)
 1858 08e4 0E94 0000 		call LCD_puts_f
 1859               	.LM293:
 1860 08e8 84EB      		ldi r24,lo8(-76)
 1861 08ea 0E94 0000 		call MAIN_Delay10MS
 1862               	.LM294:
 1863 08ee 80E0      		ldi r24,lo8(__c.2296)
 1864 08f0 90E0      		ldi r25,hi8(__c.2296)
 1865 08f2 0E94 0000 		call LCD_puts_f
 1866               	.L277:
 1867               	.LM295:
 1868 08f6 8EB3      		in r24,62-0x20
 1869 08f8 8823      		tst r24
 1870 08fa 01F0      		breq .L277
 1871               	.LM296:
 1872 08fc F299      		sbic 62-0x20,2
 1873 08fe 00C0      		rjmp .L269
 1874               	.LM297:
 1875 0900 F39B      		sbis 62-0x20,3
 1876 0902 00C0      		rjmp .L277
 1877               	.LM298:
 1878 0904 0E94 0000 		call MAIN_WaitForJoyRelease
 1879               	.LM299:
 1880 0908 80E0      		ldi r24,lo8(WaitText)
 1881 090a 90E0      		ldi r25,hi8(WaitText)
 1882 090c 0E94 0000 		call LCD_puts_f
 1883               	.LM300:
 1884 0910 81B3      		in r24,49-0x20
 1885 0912 8F7C      		andi r24,lo8(-49)
 1886 0914 8063      		ori r24,lo8(48)
 1887 0916 81BB      		out 49-0x20,r24
 1888 0918 80E0      		ldi r24,lo8(0)
 1889 091a 90E0      		ldi r25,hi8(0)
 1890               	.LVL100:
 1891 091c 2FEF      		ldi r18,lo8(-1)
 1892               	.L267:
 1893               	.LBB102:
 1894               	.LBB103:
 1895               	.LBB104:
 1896               	.LM301:
 1897 091e DC01      		movw r26,r24
 1898               	.LVL101:
 1899               	/* #APP */
 1900 0920 022E      		mov __tmp_reg__,r18
 1901 0922 0E94 0000 		call __eeprom_write_byte_1F2021
 1902               	/* #NOAPP */
 1903               	.LBE104:
 1904               	.LBE103:
 1905               	.LM302:
 1906 0926 0196      		adiw r24,1
 1907 0928 8E38      		cpi r24,142
 1908 092a 9105      		cpc r25,__zero_reg__
 1909 092c 01F4      		brne .L267
 1910               	.LBE102:
 1911               	.LM303:
 1912 092e 81B3      		in r24,49-0x20
 1913               	.LVL102:
 1914 0930 8F7C      		andi r24,lo8(-49)
 1915 0932 8061      		ori r24,lo8(16)
 1916 0934 81BB      		out 49-0x20,r24
 1917               	.LM304:
 1918 0936 80E0      		ldi r24,lo8(__c.2304)
 1919 0938 90E0      		ldi r25,hi8(__c.2304)
 1920 093a 0E94 0000 		call LCD_puts_f
 1921               	.LVL103:
 1922               	.LM305:
 1923 093e 8AEF      		ldi r24,lo8(-6)
 1924 0940 0E94 0000 		call MAIN_Delay10MS
 1925               	.L269:
 1926 0944 0895      		ret
 1927               	/* epilogue: frame size=0 */
 1928               	/* epilogue: noreturn */
 1929               	/* epilogue end (size=0) */
 1930               	/* function FUNCClearMem size 52 (52) */
 1931               	.LFE31:
 1933               	.global	FUNCSetContrast
 1935               	FUNCSetContrast:
 1936               	.LFB32:
 1937               	.LM306:
 1938               	/* prologue: frame size=6 */
 1939 0946 1F93      		push r17
 1940 0948 CF93      		push r28
 1941 094a DF93      		push r29
 1942 094c CDB7      		in r28,__SP_L__
 1943 094e DEB7      		in r29,__SP_H__
 1944 0950 2697      		sbiw r28,6
 1945 0952 0FB6      		in __tmp_reg__,__SREG__
 1946 0954 F894      		cli
 1947 0956 DEBF      		out __SP_H__,r29
 1948 0958 0FBE      		out __SREG__,__tmp_reg__
 1949 095a CDBF      		out __SP_L__,r28
 1950               	/* prologue end (size=11) */
 1951               	.LBB109:
 1952               	.LBB110:
 1953               	.LM307:
 1954 095c A0E0      		ldi r26,lo8(EEPROMVars+137)
 1955 095e B0E0      		ldi r27,hi8(EEPROMVars+137)
 1956               	/* #APP */
 1957 0960 0E94 0000 		call __eeprom_read_byte_1F2021
 1958 0964 802D      		mov r24,__tmp_reg__
 1959               	.LVL104:
 1960               	/* #NOAPP */
 1961               	.LBE110:
 1962               	.LBE109:
 1963               	.LM308:
 1964 0966 182F      		mov r17,r24
 1965               	.LVL105:
 1966 0968 1F70      		andi r17,lo8(15)
 1967               	.LM309:
 1968 096a 81E0      		ldi r24,lo8(1)
 1969               	.LVL106:
 1970 096c 8EBB      		out 62-0x20,r24
 1971               	.L296:
 1972               	.LM310:
 1973 096e 8EB3      		in r24,62-0x20
 1974 0970 8823      		tst r24
 1975 0972 01F0      		breq .L296
 1976               	.LM311:
 1977 0974 F69B      		sbis 62-0x20,6
 1978 0976 00C0      		rjmp .L281
 1979               	.LM312:
 1980 0978 1F30      		cpi r17,lo8(15)
 1981 097a 00F4      		brsh .L283
 1982               	.LM313:
 1983 097c 1F5F      		subi r17,lo8(-(1))
 1984 097e 00C0      		rjmp .L283
 1985               	.L281:
 1986               	.LM314:
 1987 0980 F79B      		sbis 62-0x20,7
 1988 0982 00C0      		rjmp .L285
 1989               	.LM315:
 1990 0984 1230      		cpi r17,lo8(2)
 1991 0986 00F0      		brlo .L283
 1992               	.LM316:
 1993 0988 1150      		subi r17,lo8(-(-1))
 1994 098a 00C0      		rjmp .L283
 1995               	.L285:
 1996               	.LM317:
 1997 098c F299      		sbic 62-0x20,2
 1998 098e 00C0      		rjmp .L295
 1999               	.L283:
 2000               	.LM318:
 2001 0990 83E4      		ldi r24,lo8(67)
 2002 0992 8983      		std Y+1,r24
 2003               	.LM319:
 2004 0994 84E5      		ldi r24,lo8(84)
 2005 0996 8A83      		std Y+2,r24
 2006               	.LM320:
 2007 0998 80E2      		ldi r24,lo8(32)
 2008 099a 8B83      		std Y+3,r24
 2009               	.LM321:
 2010 099c BE01      		movw r22,r28
 2011 099e 6C5F      		subi r22,lo8(-(4))
 2012 09a0 7F4F      		sbci r23,hi8(-(4))
 2013 09a2 812F      		mov r24,r17
 2014 09a4 9927      		clr r25
 2015 09a6 0E94 0000 		call MAIN_IntToStr
 2016               	.LVL107:
 2017               	.LM322:
 2018 09aa CE01      		movw r24,r28
 2019 09ac 0196      		adiw r24,1
 2020 09ae 0E94 0000 		call LCD_puts
 2021               	.LM323:
 2022 09b2 812F      		mov r24,r17
 2023 09b4 8F70      		andi r24,lo8(15)
 2024 09b6 8093 E700 		sts 231,r24
 2025               	.LM324:
 2026 09ba 0E94 0000 		call MAIN_WaitForJoyRelease
 2027 09be 00C0      		rjmp .L296
 2028               	.LVL108:
 2029               	.L295:
 2030               	.LBB111:
 2031               	.LBB112:
 2032               	.LM325:
 2033 09c0 A0E0      		ldi r26,lo8(EEPROMVars+137)
 2034 09c2 B0E0      		ldi r27,hi8(EEPROMVars+137)
 2035               	.LVL109:
 2036               	/* #APP */
 2037 09c4 012E      		mov __tmp_reg__,r17
 2038 09c6 0E94 0000 		call __eeprom_write_byte_1F2021
 2039               	.LVL110:
 2040               	/* #NOAPP */
 2041               	.LBE112:
 2042               	.LBE111:
 2043               	/* epilogue: frame size=6 */
 2044 09ca 2696      		adiw r28,6
 2045 09cc 0FB6      		in __tmp_reg__,__SREG__
 2046 09ce F894      		cli
 2047 09d0 DEBF      		out __SP_H__,r29
 2048 09d2 0FBE      		out __SREG__,__tmp_reg__
 2049 09d4 CDBF      		out __SP_L__,r28
 2050 09d6 DF91      		pop r29
 2051 09d8 CF91      		pop r28
 2052 09da 1F91      		pop r17
 2053 09dc 0895      		ret
 2054               	/* epilogue end (size=10) */
 2055               	/* function FUNCSetContrast size 78 (57) */
 2056               	.LFE32:
 2058               	.global	FUNCSetISPSpeed
 2060               	FUNCSetISPSpeed:
 2061               	.LFB33:
 2062               	.LM326:
 2063               	/* prologue: frame size=0 */
 2064 09de 1F93      		push r17
 2065               	/* prologue end (size=1) */
 2066               	.LBB117:
 2067               	.LBB118:
 2068               	.LM327:
 2069 09e0 A0E0      		ldi r26,lo8(EEPROMVars+2)
 2070 09e2 B0E0      		ldi r27,hi8(EEPROMVars+2)
 2071               	/* #APP */
 2072 09e4 0E94 0000 		call __eeprom_read_byte_1F2021
 2073 09e8 802D      		mov r24,__tmp_reg__
 2074               	.LVL111:
 2075               	/* #NOAPP */
 2076               	.LBE118:
 2077               	.LBE117:
 2078               	.LM328:
 2079 09ea 182F      		mov r17,r24
 2080               	.LVL112:
 2081 09ec 8430      		cpi r24,lo8(4)
 2082 09ee 00F0      		brlo .L298
 2083               	.LVL113:
 2084               	.LM329:
 2085 09f0 13E0      		ldi r17,lo8(3)
 2086               	.L298:
 2087               	.LM330:
 2088 09f2 81E0      		ldi r24,lo8(1)
 2089               	.LVL114:
 2090 09f4 8EBB      		out 62-0x20,r24
 2091               	.L318:
 2092               	.LM331:
 2093 09f6 8EB3      		in r24,62-0x20
 2094 09f8 8823      		tst r24
 2095 09fa 01F0      		breq .L318
 2096               	.LM332:
 2097 09fc F69B      		sbis 62-0x20,6
 2098 09fe 00C0      		rjmp .L301
 2099               	.LM333:
 2100 0a00 1123      		tst r17
 2101 0a02 01F4      		brne .L303
 2102 0a04 13E0      		ldi r17,lo8(3)
 2103 0a06 00C0      		rjmp .L305
 2104               	.L303:
 2105 0a08 1150      		subi r17,lo8(-(-1))
 2106 0a0a 00C0      		rjmp .L305
 2107               	.L301:
 2108               	.LM334:
 2109 0a0c F79B      		sbis 62-0x20,7
 2110 0a0e 00C0      		rjmp .L306
 2111               	.LM335:
 2112 0a10 1330      		cpi r17,lo8(3)
 2113 0a12 01F0      		breq .L308
 2114 0a14 1F5F      		subi r17,lo8(-(1))
 2115 0a16 00C0      		rjmp .L305
 2116               	.L306:
 2117               	.LM336:
 2118 0a18 F29B      		sbis 62-0x20,2
 2119 0a1a 00C0      		rjmp .L305
 2120 0a1c 00C0      		rjmp .L317
 2121               	.L308:
 2122               	.LBB119:
 2123               	.LBB120:
 2124               	.LM337:
 2125 0a1e 10E0      		ldi r17,lo8(0)
 2126               	.L305:
 2127               	.LBE120:
 2128               	.LBE119:
 2129               	.LM338:
 2130 0a20 8AE0      		ldi r24,lo8(10)
 2131 0a22 189F      		mul r17,r24
 2132 0a24 C001      		movw r24,r0
 2133 0a26 1124      		clr r1
 2134 0a28 8050      		subi r24,lo8(-(USISpeeds))
 2135 0a2a 9040      		sbci r25,hi8(-(USISpeeds))
 2136 0a2c 0E94 0000 		call LCD_puts_f
 2137               	.LVL115:
 2138               	.LM339:
 2139 0a30 0E94 0000 		call MAIN_WaitForJoyRelease
 2140 0a34 00C0      		rjmp .L318
 2141               	.LVL116:
 2142               	.L317:
 2143               	.LBB121:
 2144               	.LBB122:
 2145               	.LM340:
 2146 0a36 A0E0      		ldi r26,lo8(EEPROMVars+2)
 2147 0a38 B0E0      		ldi r27,hi8(EEPROMVars+2)
 2148               	.LVL117:
 2149               	/* #APP */
 2150 0a3a 012E      		mov __tmp_reg__,r17
 2151 0a3c 0E94 0000 		call __eeprom_write_byte_1F2021
 2152               	.LVL118:
 2153               	/* #NOAPP */
 2154               	.LBE122:
 2155               	.LBE121:
 2156               	/* epilogue: frame size=0 */
 2157 0a40 1F91      		pop r17
 2158 0a42 0895      		ret
 2159               	/* epilogue end (size=2) */
 2160               	/* function FUNCSetISPSpeed size 53 (50) */
 2161               	.LFE33:
 2163               	.global	FUNCSetResetMode
 2165               	FUNCSetResetMode:
 2166               	.LFB34:
 2167               	.LM341:
 2168               	/* prologue: frame size=0 */
 2169 0a44 1F93      		push r17
 2170               	/* prologue end (size=1) */
 2171               	.LBB127:
 2172               	.LBB128:
 2173               	.LM342:
 2174 0a46 A0E0      		ldi r26,lo8(EEPROMVars+140)
 2175 0a48 B0E0      		ldi r27,hi8(EEPROMVars+140)
 2176               	/* #APP */
 2177 0a4a 0E94 0000 		call __eeprom_read_byte_1F2021
 2178 0a4e 802D      		mov r24,__tmp_reg__
 2179               	.LVL119:
 2180               	/* #NOAPP */
 2181               	.LBE128:
 2182               	.LBE127:
 2183               	.LM343:
 2184 0a50 182F      		mov r17,r24
 2185               	.LVL120:
 2186 0a52 1170      		andi r17,lo8(1)
 2187               	.LM344:
 2188 0a54 81E0      		ldi r24,lo8(1)
 2189               	.LVL121:
 2190 0a56 8EBB      		out 62-0x20,r24
 2191               	.L334:
 2192               	.LM345:
 2193 0a58 8EB3      		in r24,62-0x20
 2194 0a5a 8823      		tst r24
 2195 0a5c 01F0      		breq .L334
 2196               	.LM346:
 2197 0a5e F699      		sbic 62-0x20,6
 2198 0a60 00C0      		rjmp .L322
 2199 0a62 F79B      		sbis 62-0x20,7
 2200 0a64 00C0      		rjmp .L324
 2201               	.L322:
 2202               	.LM347:
 2203 0a66 81E0      		ldi r24,lo8(1)
 2204 0a68 1827      		eor r17,r24
 2205 0a6a 00C0      		rjmp .L325
 2206               	.L324:
 2207               	.LM348:
 2208 0a6c F299      		sbic 62-0x20,2
 2209 0a6e 00C0      		rjmp .L333
 2210               	.L325:
 2211               	.LM349:
 2212 0a70 86E0      		ldi r24,lo8(6)
 2213 0a72 189F      		mul r17,r24
 2214 0a74 C001      		movw r24,r0
 2215 0a76 1124      		clr r1
 2216 0a78 8050      		subi r24,lo8(-(SPIResetModes))
 2217 0a7a 9040      		sbci r25,hi8(-(SPIResetModes))
 2218 0a7c 0E94 0000 		call LCD_puts_f
 2219               	.LVL122:
 2220               	.LM350:
 2221 0a80 0E94 0000 		call MAIN_WaitForJoyRelease
 2222 0a84 00C0      		rjmp .L334
 2223               	.LVL123:
 2224               	.L333:
 2225               	.LBB129:
 2226               	.LBB130:
 2227               	.LM351:
 2228 0a86 A0E0      		ldi r26,lo8(EEPROMVars+140)
 2229 0a88 B0E0      		ldi r27,hi8(EEPROMVars+140)
 2230               	.LVL124:
 2231               	/* #APP */
 2232 0a8a 012E      		mov __tmp_reg__,r17
 2233 0a8c 0E94 0000 		call __eeprom_write_byte_1F2021
 2234               	.LVL125:
 2235               	/* #NOAPP */
 2236               	.LBE130:
 2237               	.LBE129:
 2238               	/* epilogue: frame size=0 */
 2239 0a90 1F91      		pop r17
 2240 0a92 0895      		ret
 2241               	/* epilogue end (size=2) */
 2242               	/* function FUNCSetResetMode size 42 (39) */
 2243               	.LFE34:
 2245               	.global	FUNCSetFirmMinorVer
 2247               	FUNCSetFirmMinorVer:
 2248               	.LFB35:
 2249               	.LM352:
 2250               	/* prologue: frame size=5 */
 2251 0a94 1F93      		push r17
 2252 0a96 CF93      		push r28
 2253 0a98 DF93      		push r29
 2254 0a9a CDB7      		in r28,__SP_L__
 2255 0a9c DEB7      		in r29,__SP_H__
 2256 0a9e 2597      		sbiw r28,5
 2257 0aa0 0FB6      		in __tmp_reg__,__SREG__
 2258 0aa2 F894      		cli
 2259 0aa4 DEBF      		out __SP_H__,r29
 2260 0aa6 0FBE      		out __SREG__,__tmp_reg__
 2261 0aa8 CDBF      		out __SP_L__,r28
 2262               	/* prologue end (size=11) */
 2263               	.LBB136:
 2264               	.LBB137:
 2265               	.LM353:
 2266 0aaa A0E0      		ldi r26,lo8(EEPROMVars+138)
 2267 0aac B0E0      		ldi r27,hi8(EEPROMVars+138)
 2268               	/* #APP */
 2269 0aae 0E94 0000 		call __eeprom_read_byte_1F2021
 2270 0ab2 802D      		mov r24,__tmp_reg__
 2271               	.LVL126:
 2272               	/* #NOAPP */
 2273               	.LBE137:
 2274               	.LBE136:
 2275               	.LM354:
 2276 0ab4 182F      		mov r17,r24
 2277               	.LVL127:
 2278               	.LVL128:
 2279               	.LM355:
 2280 0ab6 8A30      		cpi r24,lo8(10)
 2281 0ab8 00F0      		brlo .L336
 2282               	.LVL129:
 2283               	.LM356:
 2284 0aba 14E0      		ldi r17,lo8(4)
 2285               	.L336:
 2286               	.LM357:
 2287 0abc 60E0      		ldi r22,lo8(__c.2402)
 2288 0abe 70E0      		ldi r23,hi8(__c.2402)
 2289 0ac0 CE01      		movw r24,r28
 2290               	.LVL130:
 2291 0ac2 0196      		adiw r24,1
 2292 0ac4 0E94 0000 		call strcpy_P
 2293               	.LVL131:
 2294               	.LM358:
 2295 0ac8 81E0      		ldi r24,lo8(1)
 2296 0aca 8EBB      		out 62-0x20,r24
 2297               	.L355:
 2298               	.LM359:
 2299 0acc 8EB3      		in r24,62-0x20
 2300 0ace 8823      		tst r24
 2301 0ad0 01F0      		breq .L355
 2302               	.LM360:
 2303 0ad2 F69B      		sbis 62-0x20,6
 2304 0ad4 00C0      		rjmp .L340
 2305               	.LM361:
 2306 0ad6 1930      		cpi r17,lo8(9)
 2307 0ad8 00F4      		brsh .L340
 2308               	.LM362:
 2309 0ada 1F5F      		subi r17,lo8(-(1))
 2310               	.L340:
 2311               	.LM363:
 2312 0adc F79B      		sbis 62-0x20,7
 2313 0ade 00C0      		rjmp .L343
 2314               	.LM364:
 2315 0ae0 1123      		tst r17
 2316 0ae2 01F0      		breq .L345
 2317               	.LM365:
 2318 0ae4 1150      		subi r17,lo8(-(-1))
 2319 0ae6 00C0      		rjmp .L345
 2320               	.L343:
 2321               	.LM366:
 2322 0ae8 F299      		sbic 62-0x20,2
 2323 0aea 00C0      		rjmp .L354
 2324               	.L345:
 2325               	.LM367:
 2326 0aec 105D      		subi r17,lo8(-(48))
 2327 0aee 1C83      		std Y+4,r17
 2328 0af0 1053      		subi r17,lo8(-(-48))
 2329               	.LM368:
 2330 0af2 CE01      		movw r24,r28
 2331 0af4 0196      		adiw r24,1
 2332 0af6 0E94 0000 		call LCD_puts
 2333               	.LM369:
 2334 0afa 0E94 0000 		call MAIN_WaitForJoyRelease
 2335 0afe 00C0      		rjmp .L355
 2336               	.L354:
 2337               	.LBB138:
 2338               	.LBB139:
 2339               	.LM370:
 2340 0b00 A0E0      		ldi r26,lo8(EEPROMVars+138)
 2341 0b02 B0E0      		ldi r27,hi8(EEPROMVars+138)
 2342               	/* #APP */
 2343 0b04 012E      		mov __tmp_reg__,r17
 2344 0b06 0E94 0000 		call __eeprom_write_byte_1F2021
 2345               	.LVL132:
 2346               	/* #NOAPP */
 2347               	.LBE139:
 2348               	.LBE138:
 2349               	/* epilogue: frame size=5 */
 2350 0b0a 2596      		adiw r28,5
 2351 0b0c 0FB6      		in __tmp_reg__,__SREG__
 2352 0b0e F894      		cli
 2353 0b10 DEBF      		out __SP_H__,r29
 2354 0b12 0FBE      		out __SREG__,__tmp_reg__
 2355 0b14 CDBF      		out __SP_L__,r28
 2356 0b16 DF91      		pop r29
 2357 0b18 CF91      		pop r28
 2358 0b1a 1F91      		pop r17
 2359 0b1c 0895      		ret
 2360               	/* epilogue end (size=10) */
 2361               	/* function FUNCSetFirmMinorVer size 71 (50) */
 2362               	.LFE35:
 2364               	.global	BUTTTAG_Title
 2365               		.section	.progmem.data,"a",@progbits
 2368               	BUTTTAG_Title:
 2369 0000 40        		.byte	64
 2370 0001 28        		.byte	40
 2371 0002 23        		.byte	35
 2372 0003 29        		.byte	41
 2373 0004 4255 5454 		.string	"BUTTLOAD AVRISP"
 2373      4C4F 4144 
 2373      2041 5652 
 2373      4953 5000 
 2374               	.global	BUTTTAG_Version
 2377               	BUTTTAG_Version:
 2378 0014 40        		.byte	64
 2379 0015 28        		.byte	40
 2380 0016 23        		.byte	35
 2381 0017 29        		.byte	41
 2382 0018 56        		.byte	86
 2383 0019 31        		.byte	49
 2384 001a 2D        		.byte	45
 2385 001b 34        		.byte	52
 2386 001c 00        		.byte	0
 2387               	.global	BUTTTAG_Author
 2390               	BUTTTAG_Author:
 2391 001d 40        		.byte	64
 2392 001e 28        		.byte	40
 2393 001f 23        		.byte	35
 2394 0020 29        		.byte	41
 2395 0021 4259 2044 		.string	"BY DEAN CAMERA"
 2395      4541 4E20 
 2395      4341 4D45 
 2395      5241 00
 2396               	.global	BUTTTAG_Copyright
 2399               	BUTTTAG_Copyright:
 2400 0030 40        		.byte	64
 2401 0031 28        		.byte	40
 2402 0032 23        		.byte	35
 2403 0033 29        		.byte	41
 2404 0034 3C43 3E20 		.string	"<C> 2006 - GPL"
 2404      3230 3036 
 2404      202D 2047 
 2404      504C 00
 2405               	.global	AboutTextPtrs
 2408               	AboutTextPtrs:
 2409 0043 0000      		.word	BUTTTAG_Title+4
 2410 0045 0000      		.word	BUTTTAG_Version+4
 2411 0047 0000      		.word	BUTTTAG_Author+4
 2412 0049 0000      		.word	BUTTTAG_Copyright+4
 2413               	.global	WaitText
 2416               	WaitText:
 2417 004b 2A57 4149 		.string	"*WAIT*"
 2417      542A 00
 2418               	.global	Func_ISPPRGM
 2421               	Func_ISPPRGM:
 2422 0052 4156 5249 		.string	"AVRISP MODE"
 2422      5350 204D 
 2422      4F44 4500 
 2423               	.global	Func_STOREPRGM
 2426               	Func_STOREPRGM:
 2427 005e 5354 4F52 		.string	"STORE PRGM"
 2427      4520 5052 
 2427      474D 00
 2428               	.global	Func_PRGMAVR
 2431               	Func_PRGMAVR:
 2432 0069 5052 4F47 		.string	"PROGRAM AVR"
 2432      5241 4D20 
 2432      4156 5200 
 2433               	.global	Func_PRGMDATAFLASH
 2436               	Func_PRGMDATAFLASH:
 2437 0075 4441 5441 		.string	"DATAFLASH PRGM"
 2437      464C 4153 
 2437      4820 5052 
 2437      474D 00
 2438               	.global	Func_PRGMSTOREINFO
 2441               	Func_PRGMSTOREINFO:
 2442 0084 4441 5441 		.string	"DATASTORE INFO"
 2442      5354 4F52 
 2442      4520 494E 
 2442      464F 00
 2443               	.global	Func_SETTINGS
 2446               	Func_SETTINGS:
 2447 0093 5345 5454 		.string	"SETTINGS"
 2447      494E 4753 
 2447      00
 2448               	.global	Func_SLEEP
 2451               	Func_SLEEP:
 2452 009c 534C 4545 		.string	"SLEEP MODE"
 2452      5020 4D4F 
 2452      4445 00
 2453               	.global	MainFunctionNames
 2456               	MainFunctionNames:
 2457 00a7 0000      		.word	Func_ISPPRGM
 2458 00a9 0000      		.word	Func_STOREPRGM
 2459 00ab 0000      		.word	Func_PRGMAVR
 2460 00ad 0000      		.word	Func_PRGMDATAFLASH
 2461 00af 0000      		.word	Func_PRGMSTOREINFO
 2462 00b1 0000      		.word	Func_SETTINGS
 2463 00b3 0000      		.word	Func_SLEEP
 2464               	.global	MainFunctionPtrs
 2467               	MainFunctionPtrs:
 2468 00b5 0000      		.word	gs(FUNCAVRISPMode)
 2469 00b7 0000      		.word	gs(FUNCStoreProgram)
 2470 00b9 0000      		.word	gs(FUNCProgramAVR)
 2471 00bb 0000      		.word	gs(FUNCProgramDataflash)
 2472 00bd 0000      		.word	gs(FUNCStorageInfo)
 2473 00bf 0000      		.word	gs(FUNCChangeSettings)
 2474 00c1 0000      		.word	gs(FUNCSleepMode)
 2475               	.global	SFunc_SETCONTRAST
 2478               	SFunc_SETCONTRAST:
 2479 00c3 5345 5420 		.string	"SET CONTRAST"
 2479      434F 4E54 
 2479      5241 5354 
 2479      00
 2480               	.global	SFunc_SETSPISPEED
 2483               	SFunc_SETSPISPEED:
 2484 00d0 5345 5420 		.string	"SET ISP SPEED"
 2484      4953 5020 
 2484      5350 4545 
 2484      4400 
 2485               	.global	SFunc_SETRESETMODE
 2488               	SFunc_SETRESETMODE:
 2489 00de 5345 5420 		.string	"SET RESET MODE"
 2489      5245 5345 
 2489      5420 4D4F 
 2489      4445 00
 2490               	.global	SFunc_SETFIRMMINOR
 2493               	SFunc_SETFIRMMINOR:
 2494 00ed 5345 5420 		.string	"SET FIRM VERSION"
 2494      4649 524D 
 2494      2056 4552 
 2494      5349 4F4E 
 2494      00
 2495               	.global	SFunc_SETAUTOSLEEPTO
 2498               	SFunc_SETAUTOSLEEPTO:
 2499 00fe 5345 5420 		.string	"SET SLEEP TIMEOUT"
 2499      534C 4545 
 2499      5020 5449 
 2499      4D45 4F55 
 2499      5400 
 2500               	.global	SFunc_CLEARMEM
 2503               	SFunc_CLEARMEM:
 2504 0110 434C 4541 		.string	"CLEAR MEMORY"
 2504      5220 4D45 
 2504      4D4F 5259 
 2504      00
 2505               	.global	SFunc_GOBOOTLOADER
 2508               	SFunc_GOBOOTLOADER:
 2509 011d 4A55 4D50 		.string	"JUMP TO BOOTLOADER"
 2509      2054 4F20 
 2509      424F 4F54 
 2509      4C4F 4144 
 2509      4552 00
 2510               	.global	SettingFunctionNames
 2513               	SettingFunctionNames:
 2514 0130 0000      		.word	SFunc_SETCONTRAST
 2515 0132 0000      		.word	SFunc_SETSPISPEED
 2516 0134 0000      		.word	SFunc_SETRESETMODE
 2517 0136 0000      		.word	SFunc_SETFIRMMINOR
 2518 0138 0000      		.word	SFunc_SETAUTOSLEEPTO
 2519 013a 0000      		.word	SFunc_CLEARMEM
 2520 013c 0000      		.word	SFunc_GOBOOTLOADER
 2521               	.global	SettingFunctionPtrs
 2524               	SettingFunctionPtrs:
 2525 013e 0000      		.word	gs(FUNCSetContrast)
 2526 0140 0000      		.word	gs(FUNCSetISPSpeed)
 2527 0142 0000      		.word	gs(FUNCSetResetMode)
 2528 0144 0000      		.word	gs(FUNCSetFirmMinorVer)
 2529 0146 0000      		.word	gs(FUNCSetAutoSleepTimeOut)
 2530 0148 0000      		.word	gs(FUNCClearMem)
 2531 014a 0000      		.word	gs(FUNCGoBootloader)
 2532               	.global	PRG_A
 2535               	PRG_A:
 2536 014c 5052 474D 		.string	"PRGM ALL"
 2536      2041 4C4C 
 2536      00
 2537               	.global	PRG_D
 2540               	PRG_D:
 2541 0155 4441 5441 		.string	"DATA ONLY"
 2541      204F 4E4C 
 2541      5900 
 2542               	.global	PRG_E
 2545               	PRG_E:
 2546 015f 4545 5052 		.string	"EEPROM ONLY"
 2546      4F4D 204F 
 2546      4E4C 5900 
 2547               	.global	PRG_DE
 2550               	PRG_DE:
 2551 016b 4441 5441 		.string	"DATA AND EEPROM"
 2551      2041 4E44 
 2551      2045 4550 
 2551      524F 4D00 
 2552               	.global	PRG_F
 2555               	PRG_F:
 2556 017b 4655 5345 		.string	"FUSE BYTES ONLY"
 2556      2042 5954 
 2556      4553 204F 
 2556      4E4C 5900 
 2557               	.global	PRG_L
 2560               	PRG_L:
 2561 018b 4C4F 434B 		.string	"LOCK BYTES ONLY"
 2561      2042 5954 
 2561      4553 204F 
 2561      4E4C 5900 
 2562               	.global	PRG_FL
 2565               	PRG_FL:
 2566 019b 4655 5345 		.string	"FUSE AND LOCK BYTES"
 2566      2041 4E44 
 2566      204C 4F43 
 2566      4B20 4259 
 2566      5445 5300 
 2567               	.global	PRG_C
 2570               	PRG_C:
 2571 01af 4552 4153 		.string	"ERASE ONLY"
 2571      4520 4F4E 
 2571      4C59 00
 2572               	.global	ProgOptions
 2575               	ProgOptions:
 2576 01ba 0000      		.word	PRG_A
 2577 01bc 0000      		.word	PRG_D
 2578 01be 0000      		.word	PRG_E
 2579 01c0 0000      		.word	PRG_DE
 2580 01c2 0000      		.word	PRG_F
 2581 01c4 0000      		.word	PRG_L
 2582 01c6 0000      		.word	PRG_FL
 2583 01c8 0000      		.word	PRG_C
 2584               	.global	USISpeeds
 2587               	USISpeeds:
 2588 01ca 2035 3731 		.string	" 57153 HZ"
 2588      3533 2048 
 2588      5A00 
 2589 01d4 2038 3637 		.string	" 86738 HZ"
 2589      3338 2048 
 2589      5A00 
 2590 01de 3131 3334 		.string	"113427 HZ"
 2590      3237 2048 
 2590      5A00 
 2591 01e8 3231 3036 		.string	"210651 HZ"
 2591      3531 2048 
 2591      5A00 
 2592               	.global	SPIResetModes
 2595               	SPIResetModes:
 2596 01f2 4C4F 4749 		.string	"LOGIC"
 2596      4300 
 2597 01f8 464C 4F41 		.string	"FLOAT"
 2597      5400 
 2598               	.global	SIFONames
 2601               	SIFONames:
 2602 01fe 5354 4F52 		.string	"STORAGE SIZES"
 2602      4147 4520 
 2602      5349 5A45 
 2602      5300 
 2603 020c 00        		.skip 1,0
 2604 020d 5649 4557 		.string	"VIEW DATA TAGS"
 2604      2044 4154 
 2604      4120 5441 
 2604      4753 00
 2607               	__c.2508:
 2608 021c 2A4A 5441 		.string	"*JTAG ON*"
 2608      4720 4F4E 
 2608      2A00 
 2611               	__c.2479:
 2612 0226 4E4F 2053 		.string	"NO STORED PRGM"
 2612      544F 5245 
 2612      4420 5052 
 2612      474D 00
 2615               	__c.2425:
 2616 0235 4F46 4600 		.string	"OFF"
 2619               	__c.2423:
 2620 0239 2020 2020 		.string	"    SEC"
 2620      5345 4300 
 2623               	__c.2402:
 2624 0241 5632 2D20 		.string	"V2- "
 2624      00
 2627               	__c.2304:
 2628 0246 4D45 4D20 		.string	"MEM CLEARED"
 2628      434C 4541 
 2628      5245 4400 
 2631               	__c.2296:
 2632 0252 3C4E 2059 		.string	"<N Y>"
 2632      3E00 
 2635               	__c.2294:
 2636 0258 434F 4E46 		.string	"CONFIRM"
 2636      4952 4D00 
 2639               	__c.2277:
 2640 0260 2A53 544F 		.string	"*STORAGE MODE*"
 2640      5241 4745 
 2640      204D 4F44 
 2640      452A 00
 2643               	__c.2210:
 2644 026f 4641 494C 		.string	"FAILED"
 2644      4544 00
 2647               	__c.2208:
 2648 0276 5052 4F47 		.string	"PROGRAMMING DONE"
 2648      5241 4D4D 
 2648      494E 4720 
 2648      444F 4E45 
 2648      00
 2651               	__c.2206:
 2652 0287 4E4F 204C 		.string	"NO LOCK BYTES"
 2652      4F43 4B20 
 2652      4259 5445 
 2652      5300 
 2655               	__c.2204:
 2656 0295 4E4F 2046 		.string	"NO FUSE BYTES"
 2656      5553 4520 
 2656      4259 5445 
 2656      5300 
 2659               	__c.2202:
 2660 02a3 4E4F 2045 		.string	"NO EEPROM"
 2660      4550 524F 
 2660      4D00 
 2663               	__c.2200:
 2664 02ad 4E4F 2044 		.string	"NO DATA"
 2664      4154 4100 
 2667               	__c.2198:
 2668 02b5 4E4F 2045 		.string	"NO ERASE CMD"
 2668      5241 5345 
 2668      2043 4D44 
 2668      00
 2671               	__c.2095:
 2672 02c2 4241 4449 		.string	"BADISR"
 2672      5352 00
 2675               	__c.2032:
 2676 02c9 5052 473E 		.string	"PRG>  "
 2676      2020 00
 2677               	.global	EEPROMVars
 2678               		.section	.eeprom,"aw",@progbits
 2681               	EEPROMVars:
 2682 0000 0000 0000 		.skip 142,0
 2682      0000 0000 
 2682      0000 0000 
 2682      0000 0000 
 2682      0000 0000 
 2880               	.Letext0:
DEFINED SYMBOLS
                            *ABS*:00000000 Main.c
C:\DOCUME~1\Dean\LOCALS~1\Temp/ccqUaaaa.s:3      *ABS*:0000003f __SREG__
C:\DOCUME~1\Dean\LOCALS~1\Temp/ccqUaaaa.s:4      *ABS*:0000003e __SP_H__
C:\DOCUME~1\Dean\LOCALS~1\Temp/ccqUaaaa.s:5      *ABS*:0000003d __SP_L__
C:\DOCUME~1\Dean\LOCALS~1\Temp/ccqUaaaa.s:6      *ABS*:00000000 __tmp_reg__
C:\DOCUME~1\Dean\LOCALS~1\Temp/ccqUaaaa.s:7      *ABS*:00000001 __zero_reg__
C:\DOCUME~1\Dean\LOCALS~1\Temp/ccqUaaaa.s:20     .text:00000000 MAIN_Delay10MS
C:\DOCUME~1\Dean\LOCALS~1\Temp/ccqUaaaa.s:59     .text:00000014 MAIN_Delay1MS
C:\DOCUME~1\Dean\LOCALS~1\Temp/ccqUaaaa.s:98     .text:00000028 MAIN_ResetCSLine
C:\DOCUME~1\Dean\LOCALS~1\Temp/ccqUaaaa.s:2681   .eeprom:00000000 EEPROMVars
C:\DOCUME~1\Dean\LOCALS~1\Temp/ccqUaaaa.s:198    .text:00000076 MAIN_WaitForJoyRelease
C:\DOCUME~1\Dean\LOCALS~1\Temp/ccqUaaaa.s:231    .text:00000094 MAIN_IntToStr
C:\DOCUME~1\Dean\LOCALS~1\Temp/ccqUaaaa.s:295    .text:000000d2 __vector_3
C:\DOCUME~1\Dean\LOCALS~1\Temp/ccqUaaaa.s:336    .text:00000110 FUNCSleepMode
C:\DOCUME~1\Dean\LOCALS~1\Temp/ccqUaaaa.s:381    .text:00000144 FUNCGoBootloader
C:\DOCUME~1\Dean\LOCALS~1\Temp/ccqUaaaa.s:2607   .progmem.data:0000021c __c.2508
C:\DOCUME~1\Dean\LOCALS~1\Temp/ccqUaaaa.s:416    .text:00000164 FUNCShowAbout
C:\DOCUME~1\Dean\LOCALS~1\Temp/ccqUaaaa.s:2408   .progmem.data:00000043 AboutTextPtrs
C:\DOCUME~1\Dean\LOCALS~1\Temp/ccqUaaaa.s:491    .text:000001b4 FUNCChangeSettings
C:\DOCUME~1\Dean\LOCALS~1\Temp/ccqUaaaa.s:2524   .progmem.data:0000013e SettingFunctionPtrs
C:\DOCUME~1\Dean\LOCALS~1\Temp/ccqUaaaa.s:2513   .progmem.data:00000130 SettingFunctionNames
C:\DOCUME~1\Dean\LOCALS~1\Temp/ccqUaaaa.s:590    .text:0000021e FUNCSetAutoSleepTimeOut
C:\DOCUME~1\Dean\LOCALS~1\Temp/ccqUaaaa.s:2619   .progmem.data:00000239 __c.2423
C:\DOCUME~1\Dean\LOCALS~1\Temp/ccqUaaaa.s:2615   .progmem.data:00000235 __c.2425
C:\DOCUME~1\Dean\LOCALS~1\Temp/ccqUaaaa.s:748    .text:000002e2 MAIN_ShowError
C:\DOCUME~1\Dean\LOCALS~1\Temp/ccqUaaaa.s:805    .text:0000032e FUNCStorageInfo
C:\DOCUME~1\Dean\LOCALS~1\Temp/ccqUaaaa.s:2611   .progmem.data:00000226 __c.2479
C:\DOCUME~1\Dean\LOCALS~1\Temp/ccqUaaaa.s:2601   .progmem.data:000001fe SIFONames
C:\DOCUME~1\Dean\LOCALS~1\Temp/ccqUaaaa.s:907    .text:000003c8 MAIN_ShowProgType
C:\DOCUME~1\Dean\LOCALS~1\Temp/ccqUaaaa.s:2675   .progmem.data:000002c9 __c.2032
C:\DOCUME~1\Dean\LOCALS~1\Temp/ccqUaaaa.s:960    .text:00000414 FUNCStoreProgram
C:\DOCUME~1\Dean\LOCALS~1\Temp/ccqUaaaa.s:2416   .progmem.data:0000004b WaitText
C:\DOCUME~1\Dean\LOCALS~1\Temp/ccqUaaaa.s:2639   .progmem.data:00000260 __c.2277
C:\DOCUME~1\Dean\LOCALS~1\Temp/ccqUaaaa.s:1015   .text:00000470 FUNCAVRISPMode
C:\DOCUME~1\Dean\LOCALS~1\Temp/ccqUaaaa.s:1047   .text:0000049a FUNCProgramDataflash
C:\DOCUME~1\Dean\LOCALS~1\Temp/ccqUaaaa.s:1098   .text:000004ea MAIN_CrashProgram
C:\DOCUME~1\Dean\LOCALS~1\Temp/ccqUaaaa.s:1149   .text:00000532 __vector_default
C:\DOCUME~1\Dean\LOCALS~1\Temp/ccqUaaaa.s:2671   .progmem.data:000002c2 __c.2095
C:\DOCUME~1\Dean\LOCALS~1\Temp/ccqUaaaa.s:1167   .text:0000053a FUNCProgramAVR
C:\DOCUME~1\Dean\LOCALS~1\Temp/ccqUaaaa.s:2575   .progmem.data:000001ba ProgOptions
C:\DOCUME~1\Dean\LOCALS~1\Temp/ccqUaaaa.s:2667   .progmem.data:000002b5 __c.2198
C:\DOCUME~1\Dean\LOCALS~1\Temp/ccqUaaaa.s:2663   .progmem.data:000002ad __c.2200
C:\DOCUME~1\Dean\LOCALS~1\Temp/ccqUaaaa.s:2659   .progmem.data:000002a3 __c.2202
C:\DOCUME~1\Dean\LOCALS~1\Temp/ccqUaaaa.s:2655   .progmem.data:00000295 __c.2204
C:\DOCUME~1\Dean\LOCALS~1\Temp/ccqUaaaa.s:2651   .progmem.data:00000287 __c.2206
C:\DOCUME~1\Dean\LOCALS~1\Temp/ccqUaaaa.s:2647   .progmem.data:00000276 __c.2208
C:\DOCUME~1\Dean\LOCALS~1\Temp/ccqUaaaa.s:2643   .progmem.data:0000026f __c.2210
C:\DOCUME~1\Dean\LOCALS~1\Temp/ccqUaaaa.s:1606   .text:000007c0 main
C:\DOCUME~1\Dean\LOCALS~1\Temp/ccqUaaaa.s:2467   .progmem.data:000000b5 MainFunctionPtrs
C:\DOCUME~1\Dean\LOCALS~1\Temp/ccqUaaaa.s:2456   .progmem.data:000000a7 MainFunctionNames
C:\DOCUME~1\Dean\LOCALS~1\Temp/ccqUaaaa.s:1850   .text:000008e0 FUNCClearMem
C:\DOCUME~1\Dean\LOCALS~1\Temp/ccqUaaaa.s:2635   .progmem.data:00000258 __c.2294
C:\DOCUME~1\Dean\LOCALS~1\Temp/ccqUaaaa.s:2631   .progmem.data:00000252 __c.2296
C:\DOCUME~1\Dean\LOCALS~1\Temp/ccqUaaaa.s:2627   .progmem.data:00000246 __c.2304
C:\DOCUME~1\Dean\LOCALS~1\Temp/ccqUaaaa.s:1935   .text:00000946 FUNCSetContrast
C:\DOCUME~1\Dean\LOCALS~1\Temp/ccqUaaaa.s:2060   .text:000009de FUNCSetISPSpeed
C:\DOCUME~1\Dean\LOCALS~1\Temp/ccqUaaaa.s:2587   .progmem.data:000001ca USISpeeds
C:\DOCUME~1\Dean\LOCALS~1\Temp/ccqUaaaa.s:2165   .text:00000a44 FUNCSetResetMode
C:\DOCUME~1\Dean\LOCALS~1\Temp/ccqUaaaa.s:2595   .progmem.data:000001f2 SPIResetModes
C:\DOCUME~1\Dean\LOCALS~1\Temp/ccqUaaaa.s:2247   .text:00000a94 FUNCSetFirmMinorVer
C:\DOCUME~1\Dean\LOCALS~1\Temp/ccqUaaaa.s:2623   .progmem.data:00000241 __c.2402
C:\DOCUME~1\Dean\LOCALS~1\Temp/ccqUaaaa.s:2368   .progmem.data:00000000 BUTTTAG_Title
C:\DOCUME~1\Dean\LOCALS~1\Temp/ccqUaaaa.s:2377   .progmem.data:00000014 BUTTTAG_Version
C:\DOCUME~1\Dean\LOCALS~1\Temp/ccqUaaaa.s:2390   .progmem.data:0000001d BUTTTAG_Author
C:\DOCUME~1\Dean\LOCALS~1\Temp/ccqUaaaa.s:2399   .progmem.data:00000030 BUTTTAG_Copyright
C:\DOCUME~1\Dean\LOCALS~1\Temp/ccqUaaaa.s:2421   .progmem.data:00000052 Func_ISPPRGM
C:\DOCUME~1\Dean\LOCALS~1\Temp/ccqUaaaa.s:2426   .progmem.data:0000005e Func_STOREPRGM
C:\DOCUME~1\Dean\LOCALS~1\Temp/ccqUaaaa.s:2431   .progmem.data:00000069 Func_PRGMAVR
C:\DOCUME~1\Dean\LOCALS~1\Temp/ccqUaaaa.s:2436   .progmem.data:00000075 Func_PRGMDATAFLASH
C:\DOCUME~1\Dean\LOCALS~1\Temp/ccqUaaaa.s:2441   .progmem.data:00000084 Func_PRGMSTOREINFO
C:\DOCUME~1\Dean\LOCALS~1\Temp/ccqUaaaa.s:2446   .progmem.data:00000093 Func_SETTINGS
C:\DOCUME~1\Dean\LOCALS~1\Temp/ccqUaaaa.s:2451   .progmem.data:0000009c Func_SLEEP
C:\DOCUME~1\Dean\LOCALS~1\Temp/ccqUaaaa.s:2478   .progmem.data:000000c3 SFunc_SETCONTRAST
C:\DOCUME~1\Dean\LOCALS~1\Temp/ccqUaaaa.s:2483   .progmem.data:000000d0 SFunc_SETSPISPEED
C:\DOCUME~1\Dean\LOCALS~1\Temp/ccqUaaaa.s:2488   .progmem.data:000000de SFunc_SETRESETMODE
C:\DOCUME~1\Dean\LOCALS~1\Temp/ccqUaaaa.s:2493   .progmem.data:000000ed SFunc_SETFIRMMINOR
C:\DOCUME~1\Dean\LOCALS~1\Temp/ccqUaaaa.s:2498   .progmem.data:000000fe SFunc_SETAUTOSLEEPTO
C:\DOCUME~1\Dean\LOCALS~1\Temp/ccqUaaaa.s:2503   .progmem.data:00000110 SFunc_CLEARMEM
C:\DOCUME~1\Dean\LOCALS~1\Temp/ccqUaaaa.s:2508   .progmem.data:0000011d SFunc_GOBOOTLOADER
C:\DOCUME~1\Dean\LOCALS~1\Temp/ccqUaaaa.s:2535   .progmem.data:0000014c PRG_A
C:\DOCUME~1\Dean\LOCALS~1\Temp/ccqUaaaa.s:2540   .progmem.data:00000155 PRG_D
C:\DOCUME~1\Dean\LOCALS~1\Temp/ccqUaaaa.s:2545   .progmem.data:0000015f PRG_E
C:\DOCUME~1\Dean\LOCALS~1\Temp/ccqUaaaa.s:2550   .progmem.data:0000016b PRG_DE
C:\DOCUME~1\Dean\LOCALS~1\Temp/ccqUaaaa.s:2555   .progmem.data:0000017b PRG_F
C:\DOCUME~1\Dean\LOCALS~1\Temp/ccqUaaaa.s:2560   .progmem.data:0000018b PRG_L
C:\DOCUME~1\Dean\LOCALS~1\Temp/ccqUaaaa.s:2565   .progmem.data:0000019b PRG_FL
C:\DOCUME~1\Dean\LOCALS~1\Temp/ccqUaaaa.s:2570   .progmem.data:000001af PRG_C

UNDEFINED SYMBOLS
__do_copy_data
__do_clear_bss
__eeprom_read_byte_1F2021
SleepTimeOutTicks
LCD_puts_f
strcpy_P
AutoSleepTOValues
LCD_puts
__eeprom_write_byte_1F2021
TOUT_SetupSleepTimer
SPI_SPITransmit
DFSPIRoutinePointer
SPI_SPIInit
DataflashInfo
DF_EnableDataflash
PM_GetStoredDataSize
DF_CheckCorrectOnboardChip
TM_ShowTags
PM_ShowStoredItemSizes
OSCCAL_Calibrate
PM_InterpretAVRISPPacket
V2P_RunStateMachine
AVRISPModeMessage
AICI_InterpretPacket
USI_SPIInitMaster
USI_SPITransmit
DataFlashProgMode
PD_InterpretAVRISPPacket
USI_SPIOff
PacketBytes
ISPCC_EnterChipProgrammingMode
CurrAddress
PM_SendEraseCommand
PM_CreateProgrammingPackets
PM_SendFuseLockBytes
SyncErrorMessage
LCD_Init
USART_Init
