   1               		.file	"ProgramManager.c"
   2               		.arch atmega169
   3               	__SREG__ = 0x3f
   4               	__SP_H__ = 0x3e
   5               	__SP_L__ = 0x3d
   6               	__tmp_reg__ = 0
   7               	__zero_reg__ = 1
   8               		.global __do_copy_data
   9               		.global __do_clear_bss
  17               	.Ltext0:
  18               	.global	GPageLength
  19               	.global	GPageLength
  20               		.section .bss
  23               	GPageLength:
  24 0000 0000      		.skip 2,0
  25               	.global	CurrentMode
  26               	.global	CurrentMode
  29               	CurrentMode:
  30 0002 00        		.skip 1,0
  31               	.global	MemoryType
  32               	.global	MemoryType
  35               	MemoryType:
  36 0003 00        		.skip 1,0
  37               		.text
  38               	.global	PM_GetStoredDataSize
  40               	PM_GetStoredDataSize:
  41               	.LFB14:
  42               	.LM1:
  43               	/* prologue: frame size=4 */
  44 0000 CF93      		push r28
  45 0002 DF93      		push r29
  46 0004 CDB7      		in r28,__SP_L__
  47 0006 DEB7      		in r29,__SP_H__
  48 0008 2497      		sbiw r28,4
  49 000a 0FB6      		in __tmp_reg__,__SREG__
  50 000c F894      		cli
  51 000e DEBF      		out __SP_H__,r29
  52 0010 0FBE      		out __SREG__,__tmp_reg__
  53 0012 CDBF      		out __SP_L__,r28
  54               	/* prologue end (size=10) */
  55               	.LM2:
  56 0014 1982      		std Y+1,__zero_reg__
  57 0016 1A82      		std Y+2,__zero_reg__
  58 0018 1B82      		std Y+3,__zero_reg__
  59 001a 1C82      		std Y+4,__zero_reg__
  60               	.LBB2:
  61               	.LM3:
  62 001c FE01      		movw r30,r28
  63 001e 3196      		adiw r30,1
  64 0020 8130      		cpi r24,lo8(1)
  65 0022 19F4      		brne .L2
  66               	.LM4:
  67 0024 A0E0      		ldi r26,lo8(EEPROMVars+27)
  68 0026 B0E0      		ldi r27,hi8(EEPROMVars+27)
  69 0028 02C0      		rjmp .L3
  70               	.L2:
  71 002a A0E0      		ldi r26,lo8(EEPROMVars+31)
  72 002c B0E0      		ldi r27,hi8(EEPROMVars+31)
  73               	.L3:
  74               	.LBB3:
  75               	.LBB4:
  76               	.LM5:
  77 002e 84E0      		ldi r24,lo8(4)
  78               	.LM6:
  79               	/* #APP */
  80 0030 182E      		mov __zero_reg__,r24
  81 0032 0E94 0000 		call __eeprom_read_block_1F2021
  82               	/* #NOAPP */
  83               	.LBE4:
  84               	.LBE3:
  85               	.LBE2:
  86               	.LM7:
  87 0036 8981      		ldd r24,Y+1
  88 0038 9A81      		ldd r25,Y+2
  89 003a AB81      		ldd r26,Y+3
  90 003c BC81      		ldd r27,Y+4
  91 003e 8F5F      		subi r24,lo8(-1)
  92 0040 9F4F      		sbci r25,hi8(-1)
  93 0042 AF4F      		sbci r26,hlo8(-1)
  94 0044 BF4F      		sbci r27,hhi8(-1)
  95 0046 21F4      		brne .L11
  96               	.LM8:
  97 0048 1982      		std Y+1,__zero_reg__
  98 004a 1A82      		std Y+2,__zero_reg__
  99 004c 1B82      		std Y+3,__zero_reg__
 100 004e 1C82      		std Y+4,__zero_reg__
 101               	.L11:
 102               	.LM9:
 103 0050 8981      		ldd r24,Y+1
 104 0052 9A81      		ldd r25,Y+2
 105 0054 AB81      		ldd r26,Y+3
 106 0056 BC81      		ldd r27,Y+4
 107               	.LM10:
 108 0058 BC01      		movw r22,r24
 109 005a CD01      		movw r24,r26
 110               	/* epilogue: frame size=4 */
 111 005c 2496      		adiw r28,4
 112 005e 0FB6      		in __tmp_reg__,__SREG__
 113 0060 F894      		cli
 114 0062 DEBF      		out __SP_H__,r29
 115 0064 0FBE      		out __SREG__,__tmp_reg__
 116 0066 CDBF      		out __SP_L__,r28
 117 0068 DF91      		pop r29
 118 006a CF91      		pop r28
 119 006c 0895      		ret
 120               	/* epilogue end (size=9) */
 121               	/* function PM_GetStoredDataSize size 59 (40) */
 122               	.LFE14:
 124               	.global	PM_SetupDFAddressCounters
 126               	PM_SetupDFAddressCounters:
 127               	.LFB15:
 128               	.LM11:
 129               	/* prologue: frame size=0 */
 130               	/* prologue end (size=0) */
 131               	.LM12:
 132 006e 8093 0000 		sts MemoryType,r24
 133               	.LM13:
 134 0072 1092 0000 		sts (GPageLength)+1,__zero_reg__
 135 0076 1092 0000 		sts GPageLength,__zero_reg__
 136 007a 2091 0000 		lds r18,CurrAddress
 137 007e 3091 0000 		lds r19,(CurrAddress)+1
 138 0082 4091 0000 		lds r20,(CurrAddress)+2
 139 0086 5091 0000 		lds r21,(CurrAddress)+3
 140               	.LM14:
 141 008a 8130      		cpi r24,lo8(1)
 142 008c 39F4      		brne .L13
 143               	.LM15:
 144 008e DA01      		movw r26,r20
 145 0090 C901      		movw r24,r18
 146 0092 880F      		lsl r24
 147 0094 991F      		rol r25
 148 0096 AA1F      		rol r26
 149 0098 BB1F      		rol r27
 150 009a 06C0      		rjmp .L14
 151               	.L13:
 152               	.LM16:
 153 009c DA01      		movw r26,r20
 154 009e C901      		movw r24,r18
 155 00a0 8050      		subi r24,lo8(-(263168))
 156 00a2 9C4F      		sbci r25,hi8(-(263168))
 157 00a4 AB4F      		sbci r26,hlo8(-(263168))
 158 00a6 BF4F      		sbci r27,hhi8(-(263168))
 159               	.L14:
 160               	.LM17:
 161 00a8 1092 0000 		sts (CurrPageAddress)+1,__zero_reg__
 162 00ac 1092 0000 		sts CurrPageAddress,__zero_reg__
 163               	.LM18:
 164 00b0 8830      		cpi r24,lo8(264)
 165 00b2 21E0      		ldi r18,hi8(264)
 166 00b4 9207      		cpc r25,r18
 167 00b6 20E0      		ldi r18,hlo8(264)
 168 00b8 A207      		cpc r26,r18
 169 00ba 20E0      		ldi r18,hhi8(264)
 170 00bc B207      		cpc r27,r18
 171 00be A0F0      		brlo .L19
 172 00c0 20E0      		ldi r18,lo8(0)
 173 00c2 30E0      		ldi r19,hi8(0)
 174               	.L17:
 175               	.LM19:
 176 00c4 8850      		subi r24,lo8(-(-264))
 177 00c6 9140      		sbci r25,hi8(-(-264))
 178 00c8 A040      		sbci r26,hlo8(-(-264))
 179 00ca B040      		sbci r27,hhi8(-(-264))
 180               	.LM20:
 181 00cc 2F5F      		subi r18,lo8(-(1))
 182 00ce 3F4F      		sbci r19,hi8(-(1))
 183 00d0 8830      		cpi r24,lo8(264)
 184 00d2 41E0      		ldi r20,hi8(264)
 185 00d4 9407      		cpc r25,r20
 186 00d6 40E0      		ldi r20,hlo8(264)
 187 00d8 A407      		cpc r26,r20
 188 00da 40E0      		ldi r20,hhi8(264)
 189 00dc B407      		cpc r27,r20
 190 00de 90F7      		brsh .L17
 191 00e0 3093 0000 		sts (CurrPageAddress)+1,r19
 192 00e4 2093 0000 		sts CurrPageAddress,r18
 193               	.L19:
 194               	.LM21:
 195 00e8 9093 0000 		sts (CurrBuffByte)+1,r25
 196 00ec 8093 0000 		sts CurrBuffByte,r24
 197               	/* epilogue: frame size=0 */
 198 00f0 0895      		ret
 199               	/* epilogue end (size=1) */
 200               	/* function PM_SetupDFAddressCounters size 66 (65) */
 201               	.LFE15:
 203               	.global	PM_StoreProgramByte
 205               	PM_StoreProgramByte:
 206               	.LFB16:
 207               	.LM22:
 208               	/* prologue: frame size=0 */
 209 00f2 CF93      		push r28
 210               	/* prologue end (size=1) */
 211 00f4 C82F      		mov r28,r24
 212               	.LM23:
 213 00f6 8091 0000 		lds r24,CurrBuffByte
 214 00fa 9091 0000 		lds r25,(CurrBuffByte)+1
 215 00fe 8850      		subi r24,lo8(264)
 216 0100 9140      		sbci r25,hi8(264)
 217 0102 A9F4      		brne .L22
 218               	.LM24:
 219 0104 8091 0000 		lds r24,CurrPageAddress
 220 0108 9091 0000 		lds r25,(CurrPageAddress)+1
 221 010c 9C01      		movw r18,r24
 222 010e 0196      		adiw r24,1
 223 0110 9093 0000 		sts (CurrPageAddress)+1,r25
 224 0114 8093 0000 		sts CurrPageAddress,r24
 225 0118 C901      		movw r24,r18
 226 011a 0E94 0000 		call DF_CopyBufferToFlashPage
 227               	.LM25:
 228 011e 80E0      		ldi r24,lo8(0)
 229 0120 90E0      		ldi r25,hi8(0)
 230 0122 0E94 0000 		call DF_BufferWriteEnable
 231               	.LM26:
 232 0126 1092 0000 		sts (CurrBuffByte)+1,__zero_reg__
 233 012a 1092 0000 		sts CurrBuffByte,__zero_reg__
 234               	.L22:
 235               	.LM27:
 236 012e 8C2F      		mov r24,r28
 237 0130 0E94 0000 		call SPI_SPITransmit
 238               	.LM28:
 239 0134 8091 0000 		lds r24,CurrBuffByte
 240 0138 9091 0000 		lds r25,(CurrBuffByte)+1
 241 013c 0196      		adiw r24,1
 242 013e 9093 0000 		sts (CurrBuffByte)+1,r25
 243 0142 8093 0000 		sts CurrBuffByte,r24
 244               	.LM29:
 245 0146 8091 0000 		lds r24,GPageLength
 246 014a 9091 0000 		lds r25,(GPageLength)+1
 247 014e 0196      		adiw r24,1
 248 0150 9093 0000 		sts (GPageLength)+1,r25
 249 0154 8093 0000 		sts GPageLength,r24
 250               	/* epilogue: frame size=0 */
 251 0158 CF91      		pop r28
 252 015a 0895      		ret
 253               	/* epilogue end (size=2) */
 254               	/* function PM_StoreProgramByte size 54 (51) */
 255               	.LFE16:
 257               	.global	PM_CheckEndOfFuseLockData
 259               	PM_CheckEndOfFuseLockData:
 260               	.LFB18:
 261               	.LM30:
 262               	/* prologue: frame size=4 */
 263 015c CF93      		push r28
 264 015e DF93      		push r29
 265 0160 CDB7      		in r28,__SP_L__
 266 0162 DEB7      		in r29,__SP_H__
 267 0164 2497      		sbiw r28,4
 268 0166 0FB6      		in __tmp_reg__,__SREG__
 269 0168 F894      		cli
 270 016a DEBF      		out __SP_H__,r29
 271 016c 0FBE      		out __SREG__,__tmp_reg__
 272 016e CDBF      		out __SP_L__,r28
 273               	/* prologue end (size=10) */
 274               	.LM31:
 275 0170 8091 0000 		lds r24,CurrentMode
 276 0174 8130      		cpi r24,lo8(1)
 277 0176 09F0      		breq .+2
 278 0178 3FC0      		rjmp .L24
 279               	.LBB5:
 280               	.LM32:
 281 017a 8091 0000 		lds r24,CurrBuffByte
 282 017e 9091 0000 		lds r25,(CurrBuffByte)+1
 283 0182 892B      		or r24,r25
 284 0184 31F0      		breq .L25
 285               	.LM33:
 286 0186 8091 0000 		lds r24,CurrPageAddress
 287 018a 9091 0000 		lds r25,(CurrPageAddress)+1
 288 018e 0E94 0000 		call DF_CopyBufferToFlashPage
 289               	.L25:
 290               	.LM34:
 291 0192 2091 0000 		lds r18,CurrPageAddress
 292 0196 3091 0000 		lds r19,(CurrPageAddress)+1
 293 019a 88E0      		ldi r24,lo8(264)
 294 019c 91E0      		ldi r25,hi8(264)
 295 019e 289F      		mul r18,r24
 296 01a0 A001      		movw r20,r0
 297 01a2 299F      		mul r18,r25
 298 01a4 500D      		add r21,r0
 299 01a6 389F      		mul r19,r24
 300 01a8 500D      		add r21,r0
 301 01aa 1124      		clr r1
 302 01ac CA01      		movw r24,r20
 303 01ae 2091 0000 		lds r18,CurrBuffByte
 304 01b2 3091 0000 		lds r19,(CurrBuffByte)+1
 305 01b6 820F      		add r24,r18
 306 01b8 931F      		adc r25,r19
 307 01ba 9C01      		movw r18,r24
 308 01bc 4427      		clr r20
 309 01be 5527      		clr r21
 310 01c0 2983      		std Y+1,r18
 311 01c2 3A83      		std Y+2,r19
 312 01c4 4B83      		std Y+3,r20
 313 01c6 5C83      		std Y+4,r21
 314               	.LM35:
 315 01c8 8091 0000 		lds r24,MemoryType
 316 01cc FE01      		movw r30,r28
 317 01ce 3196      		adiw r30,1
 318 01d0 8130      		cpi r24,lo8(1)
 319 01d2 19F4      		brne .L26
 320               	.LBB6:
 321               	.LM36:
 322 01d4 A0E0      		ldi r26,lo8(EEPROMVars+27)
 323 01d6 B0E0      		ldi r27,hi8(EEPROMVars+27)
 324 01d8 0AC0      		rjmp .L47
 325               	.L26:
 326               	.LBE6:
 327               	.LM37:
 328 01da 2050      		subi r18,lo8(-(-263168))
 329 01dc 3440      		sbci r19,hi8(-(-263168))
 330 01de 4440      		sbci r20,hlo8(-(-263168))
 331 01e0 5040      		sbci r21,hhi8(-(-263168))
 332 01e2 2983      		std Y+1,r18
 333 01e4 3A83      		std Y+2,r19
 334 01e6 4B83      		std Y+3,r20
 335 01e8 5C83      		std Y+4,r21
 336               	.LBB7:
 337               	.LM38:
 338 01ea A0E0      		ldi r26,lo8(EEPROMVars+31)
 339 01ec B0E0      		ldi r27,hi8(EEPROMVars+31)
 340               	.L47:
 341               	.LBB8:
 342               	.LBB9:
 343               	.LM39:
 344 01ee 84E0      		ldi r24,lo8(4)
 345               	.LM40:
 346               	/* #APP */
 347 01f0 182E      		mov __zero_reg__,r24
 348 01f2 0E94 0000 		call __eeprom_write_block_1F2021
 349               	/* #NOAPP */
 350               	.LBE9:
 351               	.LBE8:
 352               	.LBE7:
 353               	.LBE5:
 354 01f6 10C0      		rjmp .L23
 355               	.L24:
 356               	.LM41:
 357 01f8 8330      		cpi r24,lo8(3)
 358 01fa 71F4      		brne .L23
 359               	.LBB10:
 360               	.LM42:
 361 01fc 8091 0000 		lds r24,MemoryType
 362 0200 8230      		cpi r24,lo8(2)
 363 0202 19F4      		brne .L44
 364 0204 A0E0      		ldi r26,lo8(EEPROMVars+47)
 365 0206 B0E0      		ldi r27,hi8(EEPROMVars+47)
 366 0208 02C0      		rjmp .L45
 367               	.L44:
 368 020a A0E0      		ldi r26,lo8(EEPROMVars+48)
 369 020c B0E0      		ldi r27,hi8(EEPROMVars+48)
 370               	.L45:
 371 020e 8091 0000 		lds r24,CurrBuffByte
 372               	.LBB11:
 373               	.LM43:
 374               	/* #APP */
 375 0212 082E      		mov __tmp_reg__,r24
 376 0214 0E94 0000 		call __eeprom_write_byte_1F2021
 377               	/* #NOAPP */
 378               	.L23:
 379               	.LBE11:
 380               	.LBE10:
 381               	/* epilogue: frame size=4 */
 382 0218 2496      		adiw r28,4
 383 021a 0FB6      		in __tmp_reg__,__SREG__
 384 021c F894      		cli
 385 021e DEBF      		out __SP_H__,r29
 386 0220 0FBE      		out __SREG__,__tmp_reg__
 387 0222 CDBF      		out __SP_L__,r28
 388 0224 DF91      		pop r29
 389 0226 CF91      		pop r28
 390 0228 0895      		ret
 391               	/* epilogue end (size=9) */
 392               	/* function PM_CheckEndOfFuseLockData size 105 (86) */
 393               	.LFE18:
 395               	.global	PM_InterpretAVRISPPacket
 397               	PM_InterpretAVRISPPacket:
 398               	.LFB17:
 399               	.LM44:
 400               	/* prologue: frame size=0 */
 401 022a CF92      		push r12
 402 022c DF92      		push r13
 403 022e EF92      		push r14
 404 0230 FF92      		push r15
 405 0232 0F93      		push r16
 406 0234 1F93      		push r17
 407 0236 CF93      		push r28
 408 0238 DF93      		push r29
 409               	/* prologue end (size=8) */
 410               	.LM45:
 411 023a 4091 0000 		lds r20,PacketBytes
 412 023e 842F      		mov r24,r20
 413 0240 9927      		clr r25
 414 0242 8631      		cpi r24,22
 415 0244 9105      		cpc r25,__zero_reg__
 416 0246 09F4      		brne .+2
 417 0248 BCC1      		rjmp .L115
 418               	.LM46:
 419 024a 8731      		cpi r24,23
 420 024c 9105      		cpc r25,__zero_reg__
 421 024e 94F4      		brge .L126
 422 0250 8231      		cpi r24,18
 423 0252 9105      		cpc r25,__zero_reg__
 424 0254 09F4      		brne .+2
 425 0256 66C0      		rjmp .L60
 426 0258 8331      		cpi r24,19
 427 025a 9105      		cpc r25,__zero_reg__
 428 025c 3CF4      		brge .L127
 429 025e 8031      		cpi r24,16
 430 0260 9105      		cpc r25,__zero_reg__
 431 0262 11F1      		breq .L50
 432 0264 4197      		sbiw r24,17
 433 0266 09F4      		brne .+2
 434 0268 3FC0      		rjmp .L57
 435 026a 19C2      		rjmp .L125
 436               	.L127:
 437 026c 4497      		sbiw r24,20
 438 026e 09F4      		brne .+2
 439 0270 A8C1      		rjmp .L115
 440 0272 3CC1      		rjmp .L97
 441               	.L126:
 442 0274 8931      		cpi r24,25
 443 0276 9105      		cpc r25,__zero_reg__
 444 0278 09F4      		brne .+2
 445 027a E6C0      		rjmp .L86
 446 027c 8A31      		cpi r24,26
 447 027e 9105      		cpc r25,__zero_reg__
 448 0280 44F4      		brge .L128
 449 0282 8731      		cpi r24,23
 450 0284 9105      		cpc r25,__zero_reg__
 451 0286 09F4      		brne .+2
 452 0288 DFC0      		rjmp .L86
 453 028a 4897      		sbiw r24,24
 454 028c 09F4      		brne .+2
 455 028e 89C0      		rjmp .L75
 456 0290 06C2      		rjmp .L125
 457               	.L128:
 458 0292 8B31      		cpi r24,27
 459 0294 9105      		cpc r25,__zero_reg__
 460 0296 D1F1      		breq .L59
 461 0298 8B31      		cpi r24,27
 462 029a 9105      		cpc r25,__zero_reg__
 463 029c 0CF4      		brge .+2
 464 029e 81C0      		rjmp .L75
 465 02a0 4C97      		sbiw r24,28
 466 02a2 09F4      		brne .+2
 467 02a4 71C0      		rjmp .L73
 468 02a6 FBC1      		rjmp .L125
 469               	.L50:
 470               	.LBB12:
 471               	.LM47:
 472 02a8 82E0      		ldi r24,lo8(2)
 473 02aa 90E0      		ldi r25,hi8(2)
 474 02ac 9093 0000 		sts (MessageSize)+1,r25
 475 02b0 8093 0000 		sts MessageSize,r24
 476 02b4 E0E0      		ldi r30,lo8(PacketBytes)
 477 02b6 F0E0      		ldi r31,hi8(PacketBytes)
 478 02b8 20E0      		ldi r18,lo8(0)
 479 02ba 30E0      		ldi r19,hi8(0)
 480 02bc 9BE0      		ldi r25,lo8(11)
 481               	.L55:
 482               	.LBB13:
 483               	.LBB14:
 484               	.LM48:
 485 02be D901      		movw r26,r18
 486 02c0 A050      		subi r26,lo8(-(EEPROMVars+35))
 487 02c2 B040      		sbci r27,hi8(-(EEPROMVars+35))
 488 02c4 8191      		ld r24,Z+
 489               	.LBB15:
 490               	.LM49:
 491               	/* #APP */
 492 02c6 082E      		mov __tmp_reg__,r24
 493 02c8 0E94 0000 		call __eeprom_write_byte_1F2021
 494               	/* #NOAPP */
 495               	.LBE15:
 496               	.LBE14:
 497               	.LM50:
 498 02cc 9150      		subi r25,lo8(-(-1))
 499 02ce 2F5F      		subi r18,lo8(-(1))
 500 02d0 3F4F      		sbci r19,hi8(-(1))
 501 02d2 97FF      		sbrs r25,7
 502 02d4 F4CF      		rjmp .L55
 503               	.LBE13:
 504               	.LM51:
 505 02d6 81E0      		ldi r24,lo8(1)
 506 02d8 8093 0000 		sts InProgrammingMode,r24
 507               	.LM52:
 508 02dc 1092 0000 		sts CurrentMode,__zero_reg__
 509               	.LM53:
 510 02e0 81B3      		in r24,49-0x20
 511 02e2 8F7C      		andi r24,lo8(-49)
 512 02e4 8062      		ori r24,lo8(32)
 513 02e6 10C0      		rjmp .L146
 514               	.L57:
 515               	.LM54:
 516 02e8 82E0      		ldi r24,lo8(2)
 517 02ea 90E0      		ldi r25,hi8(2)
 518 02ec 9093 0000 		sts (MessageSize)+1,r25
 519 02f0 8093 0000 		sts MessageSize,r24
 520               	.LM55:
 521 02f4 0E94 0000 		call PM_CheckEndOfFuseLockData
 522               	.LM56:
 523 02f8 1092 0000 		sts InProgrammingMode,__zero_reg__
 524               	.LM57:
 525 02fc 80E0      		ldi r24,lo8(0)
 526 02fe 0E94 0000 		call DF_EnableDataflash
 527               	.LM58:
 528 0302 81B3      		in r24,49-0x20
 529 0304 8F7C      		andi r24,lo8(-49)
 530 0306 8061      		ori r24,lo8(16)
 531               	.L146:
 532 0308 81BB      		out 49-0x20,r24
 533 030a 58C1      		rjmp .L110
 534               	.L59:
 535               	.LM59:
 536 030c 84E0      		ldi r24,lo8(4)
 537 030e 90E0      		ldi r25,hi8(4)
 538 0310 9093 0000 		sts (MessageSize)+1,r25
 539 0314 8093 0000 		sts MessageSize,r24
 540               	.LM60:
 541 0318 1092 0000 		sts PacketBytes+1,__zero_reg__
 542               	.LM61:
 543 031c 81E0      		ldi r24,lo8(1)
 544 031e 8093 0000 		sts PacketBytes+2,r24
 545 0322 3CC0      		rjmp .L145
 546               	.L60:
 547               	.LM62:
 548 0324 82E0      		ldi r24,lo8(2)
 549 0326 90E0      		ldi r25,hi8(2)
 550 0328 9093 0000 		sts (MessageSize)+1,r25
 551 032c 8093 0000 		sts MessageSize,r24
 552 0330 E0E0      		ldi r30,lo8(PacketBytes+1)
 553 0332 F0E0      		ldi r31,hi8(PacketBytes+1)
 554 0334 21E0      		ldi r18,lo8(1)
 555 0336 30E0      		ldi r19,hi8(1)
 556 0338 95E0      		ldi r25,lo8(5)
 557               	.L65:
 558               	.LBB16:
 559               	.LBB17:
 560               	.LM63:
 561 033a D901      		movw r26,r18
 562 033c A050      		subi r26,lo8(-(EEPROMVars+21))
 563 033e B040      		sbci r27,hi8(-(EEPROMVars+21))
 564 0340 8191      		ld r24,Z+
 565               	.LBB18:
 566               	.LM64:
 567               	/* #APP */
 568 0342 082E      		mov __tmp_reg__,r24
 569 0344 0E94 0000 		call __eeprom_write_byte_1F2021
 570               	/* #NOAPP */
 571               	.LBE18:
 572               	.LBE17:
 573               	.LM65:
 574 0348 9150      		subi r25,lo8(-(-1))
 575 034a 2F5F      		subi r18,lo8(-(1))
 576 034c 3F4F      		sbci r19,hi8(-(1))
 577 034e 97FF      		sbrs r25,7
 578 0350 F4CF      		rjmp .L65
 579 0352 20E0      		ldi r18,lo8(0)
 580 0354 80E0      		ldi r24,lo8(0)
 581 0356 90E0      		ldi r25,hi8(0)
 582 0358 37E0      		ldi r19,lo8(7)
 583               	.L71:
 584               	.LBE16:
 585               	.LBB19:
 586               	.LBB20:
 587               	.LM66:
 588 035a DC01      		movw r26,r24
 589 035c A050      		subi r26,lo8(-(EEPROMVars+27))
 590 035e B040      		sbci r27,hi8(-(EEPROMVars+27))
 591               	.LBB21:
 592               	.LM67:
 593               	/* #APP */
 594 0360 022E      		mov __tmp_reg__,r18
 595 0362 0E94 0000 		call __eeprom_write_byte_1F2021
 596               	/* #NOAPP */
 597               	.LBE21:
 598               	.LBE20:
 599               	.LBB22:
 600               	.LM68:
 601 0366 DC01      		movw r26,r24
 602 0368 A050      		subi r26,lo8(-(EEPROMVars+31))
 603 036a B040      		sbci r27,hi8(-(EEPROMVars+31))
 604               	.LBB23:
 605               	.LM69:
 606               	/* #APP */
 607 036c 022E      		mov __tmp_reg__,r18
 608 036e 0E94 0000 		call __eeprom_write_byte_1F2021
 609               	/* #NOAPP */
 610               	.LBE23:
 611               	.LBE22:
 612               	.LM70:
 613 0372 3150      		subi r19,lo8(-(-1))
 614 0374 0196      		adiw r24,1
 615 0376 37FF      		sbrs r19,7
 616 0378 F0CF      		rjmp .L71
 617               	.LBE19:
 618               	.LBB24:
 619               	.LM71:
 620 037a A0E0      		ldi r26,lo8(EEPROMVars+20)
 621 037c B0E0      		ldi r27,hi8(EEPROMVars+20)
 622 037e 81E0      		ldi r24,lo8(1)
 623               	.LBB25:
 624               	.LM72:
 625               	/* #APP */
 626 0380 082E      		mov __tmp_reg__,r24
 627 0382 0E94 0000 		call __eeprom_write_byte_1F2021
 628               	/* #NOAPP */
 629 0386 1AC1      		rjmp .L110
 630               	.L73:
 631               	.LBE25:
 632               	.LBE24:
 633               	.LM73:
 634 0388 84E0      		ldi r24,lo8(4)
 635 038a 90E0      		ldi r25,hi8(4)
 636 038c 9093 0000 		sts (MessageSize)+1,r25
 637 0390 8093 0000 		sts MessageSize,r24
 638               	.LM74:
 639 0394 1092 0000 		sts PacketBytes+1,__zero_reg__
 640               	.LM75:
 641 0398 1092 0000 		sts PacketBytes+2,__zero_reg__
 642               	.L145:
 643               	.LM76:
 644 039c 1092 0000 		sts PacketBytes+3,__zero_reg__
 645               	.LM77:
 646 03a0 87C1      		rjmp .L49
 647               	.L75:
 648               	.LM78:
 649 03a2 84E0      		ldi r24,lo8(4)
 650 03a4 90E0      		ldi r25,hi8(4)
 651 03a6 9093 0000 		sts (MessageSize)+1,r25
 652 03aa 8093 0000 		sts MessageSize,r24
 653               	.LM79:
 654 03ae 8091 0000 		lds r24,CurrentMode
 655 03b2 8430      		cpi r24,lo8(4)
 656 03b4 49F0      		breq .L76
 657               	.LM80:
 658 03b6 0E94 0000 		call PM_CheckEndOfFuseLockData
 659               	.LM81:
 660 03ba 1092 0000 		sts (CurrBuffByte)+1,__zero_reg__
 661 03be 1092 0000 		sts CurrBuffByte,__zero_reg__
 662               	.LM82:
 663 03c2 84E0      		ldi r24,lo8(4)
 664 03c4 8093 0000 		sts CurrentMode,r24
 665               	.L76:
 666               	.LBB26:
 667               	.LM83:
 668 03c8 6091 0000 		lds r22,PacketBytes
 669 03cc 6831      		cpi r22,lo8(24)
 670 03ce 19F4      		brne .L78
 671 03d0 A0E0      		ldi r26,lo8(EEPROMVars+47)
 672 03d2 B0E0      		ldi r27,hi8(EEPROMVars+47)
 673 03d4 02C0      		rjmp .L79
 674               	.L78:
 675 03d6 A0E0      		ldi r26,lo8(EEPROMVars+48)
 676 03d8 B0E0      		ldi r27,hi8(EEPROMVars+48)
 677               	.L79:
 678               	.LBB27:
 679               	.LM84:
 680               	/* #APP */
 681 03da 0E94 0000 		call __eeprom_read_byte_1F2021
 682 03de 802D      		mov r24,__tmp_reg__
 683               	/* #NOAPP */
 684               	.LBE27:
 685               	.LBE26:
 686               	.LM85:
 687 03e0 9927      		clr r25
 688 03e2 4091 0000 		lds r20,CurrBuffByte
 689 03e6 5091 0000 		lds r21,(CurrBuffByte)+1
 690 03ea 8417      		cp r24,r20
 691 03ec 9507      		cpc r25,r21
 692 03ee 10F4      		brsh .L77
 693               	.LM86:
 694 03f0 8FEF      		ldi r24,lo8(-1)
 695 03f2 1DC0      		rjmp .L142
 696               	.L77:
 697               	.LBB28:
 698               	.LM87:
 699 03f4 80EA      		ldi r24,lo8(160)
 700 03f6 90E0      		ldi r25,hi8(160)
 701 03f8 489F      		mul r20,r24
 702 03fa 9001      		movw r18,r0
 703 03fc 499F      		mul r20,r25
 704 03fe 300D      		add r19,r0
 705 0400 589F      		mul r21,r24
 706 0402 300D      		add r19,r0
 707 0404 1124      		clr r1
 708 0406 9091 0000 		lds r25,PacketBytes+1
 709 040a 88E2      		ldi r24,lo8(40)
 710 040c 989F      		mul r25,r24
 711 040e C001      		movw r24,r0
 712 0410 1124      		clr r1
 713 0412 280F      		add r18,r24
 714 0414 391F      		adc r19,r25
 715 0416 6831      		cpi r22,lo8(24)
 716 0418 21F4      		brne .L82
 717 041a D901      		movw r26,r18
 718 041c A050      		subi r26,lo8(-(EEPROMVars+9))
 719 041e B040      		sbci r27,hi8(-(EEPROMVars+9))
 720 0420 03C0      		rjmp .L83
 721               	.L82:
 722 0422 D901      		movw r26,r18
 723 0424 A050      		subi r26,lo8(-(EEPROMVars+49))
 724 0426 B040      		sbci r27,hi8(-(EEPROMVars+49))
 725               	.L83:
 726               	.LBB29:
 727               	.LM88:
 728               	/* #APP */
 729 0428 0E94 0000 		call __eeprom_read_byte_1F2021
 730 042c 802D      		mov r24,__tmp_reg__
 731               	/* #NOAPP */
 732               	.L142:
 733               	.LBE29:
 734               	.LBE28:
 735               	.LM89:
 736 042e 8093 0000 		sts PacketBytes+2,r24
 737               	.LM90:
 738 0432 1092 0000 		sts PacketBytes+1,__zero_reg__
 739               	.LM91:
 740 0436 1092 0000 		sts PacketBytes+3,__zero_reg__
 741               	.LM92:
 742 043a 4F5F      		subi r20,lo8(-(1))
 743 043c 5F4F      		sbci r21,hi8(-(1))
 744 043e 5093 0000 		sts (CurrBuffByte)+1,r21
 745 0442 4093 0000 		sts CurrBuffByte,r20
 746               	.LM93:
 747 0446 34C1      		rjmp .L49
 748               	.L86:
 749               	.LM94:
 750 0448 83E0      		ldi r24,lo8(3)
 751 044a 90E0      		ldi r25,hi8(3)
 752 044c 9093 0000 		sts (MessageSize)+1,r25
 753 0450 8093 0000 		sts MessageSize,r24
 754               	.LM95:
 755 0454 8091 0000 		lds r24,CurrentMode
 756 0458 8330      		cpi r24,lo8(3)
 757 045a 39F0      		breq .L87
 758               	.LM96:
 759 045c 83E0      		ldi r24,lo8(3)
 760 045e 8093 0000 		sts CurrentMode,r24
 761               	.LM97:
 762 0462 1092 0000 		sts (CurrBuffByte)+1,__zero_reg__
 763 0466 1092 0000 		sts CurrBuffByte,__zero_reg__
 764               	.L87:
 765 046a 2091 0000 		lds r18,CurrBuffByte
 766 046e 3091 0000 		lds r19,(CurrBuffByte)+1
 767               	.LM98:
 768 0472 4731      		cpi r20,lo8(23)
 769 0474 69F4      		brne .L88
 770               	.LM99:
 771 0476 80EA      		ldi r24,lo8(160)
 772 0478 90E0      		ldi r25,hi8(160)
 773 047a 289F      		mul r18,r24
 774 047c E001      		movw r28,r0
 775 047e 299F      		mul r18,r25
 776 0480 D00D      		add r29,r0
 777 0482 389F      		mul r19,r24
 778 0484 D00D      		add r29,r0
 779 0486 1124      		clr r1
 780 0488 C050      		subi r28,lo8(-(EEPROMVars+49))
 781 048a D040      		sbci r29,hi8(-(EEPROMVars+49))
 782               	.LM100:
 783 048c 82E0      		ldi r24,lo8(2)
 784 048e 0CC0      		rjmp .L143
 785               	.L88:
 786               	.LM101:
 787 0490 80EA      		ldi r24,lo8(160)
 788 0492 90E0      		ldi r25,hi8(160)
 789 0494 289F      		mul r18,r24
 790 0496 E001      		movw r28,r0
 791 0498 299F      		mul r18,r25
 792 049a D00D      		add r29,r0
 793 049c 389F      		mul r19,r24
 794 049e D00D      		add r29,r0
 795 04a0 1124      		clr r1
 796 04a2 C050      		subi r28,lo8(-(EEPROMVars+89))
 797 04a4 D040      		sbci r29,hi8(-(EEPROMVars+89))
 798               	.LM102:
 799 04a6 83E0      		ldi r24,lo8(3)
 800               	.L143:
 801 04a8 8093 0000 		sts MemoryType,r24
 802               	.LM103:
 803 04ac 8091 0000 		lds r24,CurrBuffByte
 804 04b0 9091 0000 		lds r25,(CurrBuffByte)+1
 805 04b4 0A97      		sbiw r24,10
 806 04b6 A8F4      		brsh .L90
 807 04b8 E0E0      		ldi r30,lo8(PacketBytes+1)
 808 04ba F0E0      		ldi r31,hi8(PacketBytes+1)
 809 04bc 93E0      		ldi r25,lo8(3)
 810               	.L95:
 811               	.LBB30:
 812               	.LBB31:
 813               	.LM104:
 814 04be 8191      		ld r24,Z+
 815               	.LBB32:
 816               	.LM105:
 817 04c0 DE01      		movw r26,r28
 818               	/* #APP */
 819 04c2 082E      		mov __tmp_reg__,r24
 820 04c4 0E94 0000 		call __eeprom_write_byte_1F2021
 821               	/* #NOAPP */
 822               	.LBE32:
 823               	.LBE31:
 824               	.LM106:
 825 04c8 2196      		adiw r28,1
 826               	.LM107:
 827 04ca 9150      		subi r25,lo8(-(-1))
 828 04cc 97FF      		sbrs r25,7
 829 04ce F7CF      		rjmp .L95
 830               	.LBE30:
 831               	.LM108:
 832 04d0 8091 0000 		lds r24,CurrBuffByte
 833 04d4 9091 0000 		lds r25,(CurrBuffByte)+1
 834 04d8 0196      		adiw r24,1
 835 04da 9093 0000 		sts (CurrBuffByte)+1,r25
 836 04de 8093 0000 		sts CurrBuffByte,r24
 837               	.L90:
 838               	.LM109:
 839 04e2 1092 0000 		sts PacketBytes+1,__zero_reg__
 840               	.LM110:
 841 04e6 1092 0000 		sts PacketBytes+2,__zero_reg__
 842               	.LM111:
 843 04ea E2C0      		rjmp .L49
 844               	.L97:
 845               	.LM112:
 846 04ec 82E0      		ldi r24,lo8(2)
 847 04ee 90E0      		ldi r25,hi8(2)
 848 04f0 9093 0000 		sts (MessageSize)+1,r25
 849 04f4 8093 0000 		sts MessageSize,r24
 850               	.LM113:
 851 04f8 8091 0000 		lds r24,CurrentMode
 852 04fc 8130      		cpi r24,lo8(1)
 853 04fe F9F0      		breq .L98
 854               	.LM114:
 855 0500 4331      		cpi r20,lo8(19)
 856 0502 21F4      		brne .L99
 857               	.LM115:
 858 0504 C0E0      		ldi r28,lo8(EEPROMVars+2)
 859 0506 D0E0      		ldi r29,hi8(EEPROMVars+2)
 860               	.LM116:
 861 0508 81E0      		ldi r24,lo8(1)
 862 050a 03C0      		rjmp .L144
 863               	.L99:
 864               	.LM117:
 865 050c C0E0      		ldi r28,lo8(EEPROMVars+11)
 866 050e D0E0      		ldi r29,hi8(EEPROMVars+11)
 867               	.LM118:
 868 0510 80E0      		ldi r24,lo8(0)
 869               	.L144:
 870 0512 0E94 0000 		call PM_SetupDFAddressCounters
 871               	.LM119:
 872 0516 8091 0000 		lds r24,CurrBuffByte
 873 051a 9091 0000 		lds r25,(CurrBuffByte)+1
 874 051e 0E94 0000 		call DF_BufferWriteEnable
 875               	.LM120:
 876 0522 81E0      		ldi r24,lo8(1)
 877 0524 8093 0000 		sts CurrentMode,r24
 878 0528 E0E0      		ldi r30,lo8(PacketBytes+1)
 879 052a F0E0      		ldi r31,hi8(PacketBytes+1)
 880 052c 98E0      		ldi r25,lo8(8)
 881               	.L105:
 882               	.LBB33:
 883               	.LBB34:
 884               	.LM121:
 885 052e 8191      		ld r24,Z+
 886               	.LBB35:
 887               	.LM122:
 888 0530 DE01      		movw r26,r28
 889               	/* #APP */
 890 0532 082E      		mov __tmp_reg__,r24
 891 0534 0E94 0000 		call __eeprom_write_byte_1F2021
 892               	/* #NOAPP */
 893               	.LBE35:
 894               	.LBE34:
 895               	.LM123:
 896 0538 9150      		subi r25,lo8(-(-1))
 897 053a 97FF      		sbrs r25,7
 898 053c F8CF      		rjmp .L105
 899               	.L98:
 900               	.LBE33:
 901               	.LM124:
 902 053e 8091 0000 		lds r24,PacketBytes+1
 903 0542 9927      		clr r25
 904 0544 D82F      		mov r29,r24
 905 0546 CC27      		clr r28
 906 0548 8091 0000 		lds r24,PacketBytes+2
 907 054c 9927      		clr r25
 908 054e C82B      		or r28,r24
 909 0550 D92B      		or r29,r25
 910               	.LBB36:
 911               	.LM125:
 912 0552 00E0      		ldi r16,lo8(0)
 913 0554 10E0      		ldi r17,hi8(0)
 914 0556 0C17      		cp r16,r28
 915 0558 1D07      		cpc r17,r29
 916 055a 70F4      		brsh .L139
 917 055c 50E0      		ldi r21,lo8(PacketBytes+10)
 918 055e E52E      		mov r14,r21
 919 0560 50E0      		ldi r21,hi8(PacketBytes+10)
 920 0562 F52E      		mov r15,r21
 921               	.L109:
 922               	.LM126:
 923 0564 F701      		movw r30,r14
 924 0566 8191      		ld r24,Z+
 925 0568 7F01      		movw r14,r30
 926 056a 0E94 0000 		call PM_StoreProgramByte
 927               	.LM127:
 928 056e 0F5F      		subi r16,lo8(-(1))
 929 0570 1F4F      		sbci r17,hi8(-(1))
 930 0572 0C17      		cp r16,r28
 931 0574 1D07      		cpc r17,r29
 932 0576 B0F3      		brlo .L109
 933               	.L139:
 934               	.LBE36:
 935               	.LM128:
 936 0578 2091 0000 		lds r18,GPageLength
 937 057c 3091 0000 		lds r19,(GPageLength)+1
 938 0580 37FD      		sbrc r19,7
 939 0582 1CC0      		rjmp .L110
 940 0584 8091 0000 		lds r24,PacketBytes+3
 941 0588 87FF      		sbrs r24,7
 942 058a 18C0      		rjmp .L110
 943 058c 2115      		cp r18,__zero_reg__
 944 058e 3105      		cpc r19,__zero_reg__
 945 0590 A9F0      		breq .L110
 946               	.LBB37:
 947               	.LM129:
 948 0592 8091 0000 		lds r24,MemoryType
 949 0596 8130      		cpi r24,lo8(1)
 950 0598 19F4      		brne .L111
 951 059a A0E0      		ldi r26,lo8(EEPROMVars+129)
 952 059c B0E0      		ldi r27,hi8(EEPROMVars+129)
 953 059e 02C0      		rjmp .L112
 954               	.L111:
 955 05a0 A0E0      		ldi r26,lo8(EEPROMVars+131)
 956 05a2 B0E0      		ldi r27,hi8(EEPROMVars+131)
 957               	.L112:
 958               	.LBB38:
 959               	.LM130:
 960               	/* #APP */
 961 05a4 0901      		movw __tmp_reg__,r18
 962 05a6 0E94 0000 		call __eeprom_write_word_1F2021
 963               		
 964               	/* #NOAPP */
 965               	.LBE38:
 966               	.LBE37:
 967               	.LM131:
 968 05aa 8091 0000 		lds r24,GPageLength
 969 05ae 9091 0000 		lds r25,(GPageLength)+1
 970 05b2 9068      		ori r25,hi8(-32768)
 971 05b4 9093 0000 		sts (GPageLength)+1,r25
 972 05b8 8093 0000 		sts GPageLength,r24
 973               	.L110:
 974               	.LM132:
 975 05bc 1092 0000 		sts PacketBytes+1,__zero_reg__
 976               	.LM133:
 977 05c0 77C0      		rjmp .L49
 978               	.L115:
 979               	.LM134:
 980 05c2 8091 0000 		lds r24,CurrentMode
 981 05c6 8230      		cpi r24,lo8(2)
 982 05c8 01F1      		breq .L116
 983               	.LM135:
 984 05ca 0E94 0000 		call PM_CheckEndOfFuseLockData
 985               	.LM136:
 986 05ce 90E0      		ldi r25,lo8(0)
 987 05d0 8091 0000 		lds r24,PacketBytes
 988 05d4 8431      		cpi r24,lo8(20)
 989 05d6 09F4      		brne .L117
 990 05d8 91E0      		ldi r25,lo8(1)
 991               	.L117:
 992 05da 892F      		mov r24,r25
 993 05dc 0E94 0000 		call PM_SetupDFAddressCounters
 994               	.LM137:
 995 05e0 6091 0000 		lds r22,CurrBuffByte
 996 05e4 7091 0000 		lds r23,(CurrBuffByte)+1
 997 05e8 8091 0000 		lds r24,CurrPageAddress
 998 05ec 9091 0000 		lds r25,(CurrPageAddress)+1
 999 05f0 0E94 0000 		call DF_ContinuousReadEnable
 1000               	.LM138:
 1001 05f4 82E0      		ldi r24,lo8(2)
 1002 05f6 8093 0000 		sts CurrentMode,r24
 1003               	.LM139:
 1004 05fa 1092 0000 		sts CurrAddress,__zero_reg__
 1005 05fe 1092 0000 		sts (CurrAddress)+1,__zero_reg__
 1006 0602 1092 0000 		sts (CurrAddress)+2,__zero_reg__
 1007 0606 1092 0000 		sts (CurrAddress)+3,__zero_reg__
 1008               	.L116:
 1009               	.LM140:
 1010 060a 8091 0000 		lds r24,PacketBytes+1
 1011 060e 9927      		clr r25
 1012 0610 D82F      		mov r29,r24
 1013 0612 CC27      		clr r28
 1014 0614 8091 0000 		lds r24,PacketBytes+2
 1015 0618 9927      		clr r25
 1016 061a C82B      		or r28,r24
 1017 061c D92B      		or r29,r25
 1018               	.LM141:
 1019 061e 90E0      		ldi r25,lo8(0)
 1020 0620 8091 0000 		lds r24,PacketBytes
 1021 0624 8431      		cpi r24,lo8(20)
 1022 0626 09F4      		brne .L118
 1023 0628 91E0      		ldi r25,lo8(1)
 1024               	.L118:
 1025 062a 892F      		mov r24,r25
 1026 062c 0E94 0000 		call PM_GetStoredDataSize
 1027 0630 DC01      		movw r26,r24
 1028 0632 CB01      		movw r24,r22
 1029 0634 7C01      		movw r14,r24
 1030               	.LBB39:
 1031               	.LM142:
 1032 0636 00E0      		ldi r16,lo8(0)
 1033 0638 10E0      		ldi r17,hi8(0)
 1034 063a 0C17      		cp r16,r28
 1035 063c 1D07      		cpc r17,r29
 1036 063e 18F5      		brsh .L141
 1037 0640 30E0      		ldi r19,lo8(PacketBytes+2)
 1038 0642 C32E      		mov r12,r19
 1039 0644 30E0      		ldi r19,hi8(PacketBytes+2)
 1040 0646 D32E      		mov r13,r19
 1041               	.L124:
 1042               	.LM143:
 1043 0648 9701      		movw r18,r14
 1044 064a 4427      		clr r20
 1045 064c 5527      		clr r21
 1046 064e 8091 0000 		lds r24,CurrAddress
 1047 0652 9091 0000 		lds r25,(CurrAddress)+1
 1048 0656 A091 0000 		lds r26,(CurrAddress)+2
 1049 065a B091 0000 		lds r27,(CurrAddress)+3
 1050 065e 8217      		cp r24,r18
 1051 0660 9307      		cpc r25,r19
 1052 0662 A407      		cpc r26,r20
 1053 0664 B507      		cpc r27,r21
 1054 0666 20F4      		brsh .L122
 1055 0668 80E0      		ldi r24,lo8(0)
 1056 066a 0E94 0000 		call SPI_SPITransmit
 1057 066e 01C0      		rjmp .L123
 1058               	.L122:
 1059 0670 8FEF      		ldi r24,lo8(-1)
 1060               	.L123:
 1061 0672 F601      		movw r30,r12
 1062 0674 8193      		st Z+,r24
 1063 0676 6F01      		movw r12,r30
 1064               	.LM144:
 1065 0678 0E94 0000 		call V2P_IncrementCurrAddress
 1066               	.LM145:
 1067 067c 0F5F      		subi r16,lo8(-(1))
 1068 067e 1F4F      		sbci r17,hi8(-(1))
 1069 0680 0C17      		cp r16,r28
 1070 0682 1D07      		cpc r17,r29
 1071 0684 08F3      		brlo .L124
 1072               	.L141:
 1073               	.LBE39:
 1074               	.LM146:
 1075 0686 2396      		adiw r28,3
 1076 0688 D093 0000 		sts (MessageSize)+1,r29
 1077 068c C093 0000 		sts MessageSize,r28
 1078 0690 2397      		sbiw r28,3
 1079               	.LM147:
 1080 0692 1092 0000 		sts PacketBytes+1,__zero_reg__
 1081               	.LM148:
 1082 0696 C050      		subi r28,lo8(-(PacketBytes))
 1083 0698 D040      		sbci r29,hi8(-(PacketBytes))
 1084 069a 1A82      		std Y+2,__zero_reg__
 1085               	.LM149:
 1086 069c 09C0      		rjmp .L49
 1087               	.L125:
 1088               	.LM150:
 1089 069e 81E0      		ldi r24,lo8(1)
 1090 06a0 90E0      		ldi r25,hi8(1)
 1091 06a2 9093 0000 		sts (MessageSize)+1,r25
 1092 06a6 8093 0000 		sts MessageSize,r24
 1093               	.LM151:
 1094 06aa 89EC      		ldi r24,lo8(-55)
 1095 06ac 8093 0000 		sts PacketBytes+1,r24
 1096               	.L49:
 1097               	.LBE12:
 1098               	.LM152:
 1099 06b0 0E94 0000 		call V2P_SendPacket
 1100               	/* epilogue: frame size=0 */
 1101 06b4 DF91      		pop r29
 1102 06b6 CF91      		pop r28
 1103 06b8 1F91      		pop r17
 1104 06ba 0F91      		pop r16
 1105 06bc FF90      		pop r15
 1106 06be EF90      		pop r14
 1107 06c0 DF90      		pop r13
 1108 06c2 CF90      		pop r12
 1109 06c4 0895      		ret
 1110               	/* epilogue end (size=9) */
 1111               	/* function PM_InterpretAVRISPPacket size 607 (590) */
 1112               	.LFE17:
 1114               	.global	PM_SendFuseLockBytes
 1116               	PM_SendFuseLockBytes:
 1117               	.LFB19:
 1118               	.LM153:
 1119               	/* prologue: frame size=0 */
 1120 06c6 0F93      		push r16
 1121 06c8 1F93      		push r17
 1122 06ca CF93      		push r28
 1123 06cc DF93      		push r29
 1124               	/* prologue end (size=4) */
 1125               	.LM154:
 1126 06ce 8230      		cpi r24,lo8(2)
 1127 06d0 49F4      		brne .L148
 1128               	.LBB40:
 1129               	.LM155:
 1130 06d2 A0E0      		ldi r26,lo8(EEPROMVars+47)
 1131 06d4 B0E0      		ldi r27,hi8(EEPROMVars+47)
 1132               	.LBB41:
 1133               	.LM156:
 1134               	/* #APP */
 1135 06d6 0E94 0000 		call __eeprom_read_byte_1F2021
 1136 06da 802D      		mov r24,__tmp_reg__
 1137               	/* #NOAPP */
 1138               	.LBE41:
 1139               	.LBE40:
 1140               	.LM157:
 1141 06dc 182F      		mov r17,r24
 1142               	.LM158:
 1143 06de C0E0      		ldi r28,lo8(EEPROMVars+49)
 1144 06e0 D0E0      		ldi r29,hi8(EEPROMVars+49)
 1145 06e2 08C0      		rjmp .L150
 1146               	.L148:
 1147               	.LBB42:
 1148               	.LM159:
 1149 06e4 A0E0      		ldi r26,lo8(EEPROMVars+48)
 1150 06e6 B0E0      		ldi r27,hi8(EEPROMVars+48)
 1151               	.LBB43:
 1152               	.LM160:
 1153               	/* #APP */
 1154 06e8 0E94 0000 		call __eeprom_read_byte_1F2021
 1155 06ec 802D      		mov r24,__tmp_reg__
 1156               	/* #NOAPP */
 1157               	.LBE43:
 1158               	.LBE42:
 1159               	.LM161:
 1160 06ee 182F      		mov r17,r24
 1161               	.LM162:
 1162 06f0 C0E0      		ldi r28,lo8(EEPROMVars+89)
 1163 06f2 D0E0      		ldi r29,hi8(EEPROMVars+89)
 1164               	.L150:
 1165               	.LM163:
 1166 06f4 1150      		subi r17,lo8(-(-1))
 1167 06f6 1F3F      		cpi r17,lo8(-1)
 1168 06f8 91F0      		breq .L162
 1169               	.L160:
 1170 06fa 03E0      		ldi r16,lo8(3)
 1171               	.L158:
 1172               	.LBB44:
 1173               	.LBB45:
 1174               	.LBB46:
 1175               	.LM164:
 1176 06fc DE01      		movw r26,r28
 1177               	/* #APP */
 1178 06fe 0E94 0000 		call __eeprom_read_byte_1F2021
 1179 0702 802D      		mov r24,__tmp_reg__
 1180               	/* #NOAPP */
 1181               	.LBE46:
 1182               	.LBE45:
 1183               	.LM165:
 1184 0704 0E94 0000 		call USI_SPITransmit
 1185               	.LM166:
 1186 0708 2196      		adiw r28,1
 1187               	.LM167:
 1188 070a 0150      		subi r16,lo8(-(-1))
 1189 070c 07FF      		sbrs r16,7
 1190 070e F6CF      		rjmp .L158
 1191               	.LBE44:
 1192               	.LM168:
 1193 0710 1123      		tst r17
 1194 0712 19F0      		breq .L152
 1195               	.LM169:
 1196 0714 85E0      		ldi r24,lo8(5)
 1197 0716 0E94 0000 		call MAIN_Delay10MS
 1198               	.L152:
 1199 071a 1150      		subi r17,1
 1200 071c 70F7      		brcc .L160
 1201               	.L162:
 1202               	/* epilogue: frame size=0 */
 1203 071e DF91      		pop r29
 1204 0720 CF91      		pop r28
 1205 0722 1F91      		pop r17
 1206 0724 0F91      		pop r16
 1207 0726 0895      		ret
 1208               	/* epilogue end (size=5) */
 1209               	/* function PM_SendFuseLockBytes size 53 (44) */
 1210               	.LFE19:
 1212               	.global	PM_SendEraseCommand
 1214               	PM_SendEraseCommand:
 1215               	.LFB20:
 1216               	.LM170:
 1217               	/* prologue: frame size=0 */
 1218 0728 1F93      		push r17
 1219 072a CF93      		push r28
 1220 072c DF93      		push r29
 1221               	/* prologue end (size=3) */
 1222 072e C2E0      		ldi r28,lo8(2)
 1223 0730 D0E0      		ldi r29,hi8(2)
 1224 0732 13E0      		ldi r17,lo8(3)
 1225               	.L170:
 1226               	.LBB47:
 1227               	.LBB48:
 1228               	.LM171:
 1229 0734 DE01      		movw r26,r28
 1230 0736 A050      		subi r26,lo8(-(EEPROMVars+21))
 1231 0738 B040      		sbci r27,hi8(-(EEPROMVars+21))
 1232               	.LBB49:
 1233               	.LM172:
 1234               	/* #APP */
 1235 073a 0E94 0000 		call __eeprom_read_byte_1F2021
 1236 073e 802D      		mov r24,__tmp_reg__
 1237               	/* #NOAPP */
 1238               	.LBE49:
 1239               	.LBE48:
 1240               	.LM173:
 1241 0740 0E94 0000 		call USI_SPITransmit
 1242               	.LM174:
 1243 0744 1150      		subi r17,lo8(-(-1))
 1244 0746 2196      		adiw r28,1
 1245 0748 17FF      		sbrs r17,7
 1246 074a F4CF      		rjmp .L170
 1247               	.LBE47:
 1248               	.LBB50:
 1249               	.LM175:
 1250 074c A0E0      		ldi r26,lo8(EEPROMVars+22)
 1251 074e B0E0      		ldi r27,hi8(EEPROMVars+22)
 1252               	.LBB51:
 1253               	.LM176:
 1254               	/* #APP */
 1255 0750 0E94 0000 		call __eeprom_read_byte_1F2021
 1256 0754 802D      		mov r24,__tmp_reg__
 1257               	/* #NOAPP */
 1258               	.LBE51:
 1259               	.LBE50:
 1260               	.LM177:
 1261 0756 8823      		tst r24
 1262 0758 59F0      		breq .L171
 1263               	.L173:
 1264               	.LM178:
 1265 075a 80E0      		ldi r24,lo8(-4096)
 1266 075c 90EF      		ldi r25,hi8(-4096)
 1267 075e 0E94 0000 		call USI_SPITransmitWord
 1268 0762 80E0      		ldi r24,lo8(0)
 1269 0764 90E0      		ldi r25,hi8(0)
 1270 0766 0E94 0000 		call USI_SPITransmitWord
 1271 076a 80FD      		sbrc r24,0
 1272 076c F6CF      		rjmp .L173
 1273 076e 07C0      		rjmp .L165
 1274               	.L171:
 1275               	.LBB52:
 1276               	.LM179:
 1277 0770 A0E0      		ldi r26,lo8(EEPROMVars+21)
 1278 0772 B0E0      		ldi r27,hi8(EEPROMVars+21)
 1279               	.LBB53:
 1280               	.LM180:
 1281               	/* #APP */
 1282 0774 0E94 0000 		call __eeprom_read_byte_1F2021
 1283 0778 802D      		mov r24,__tmp_reg__
 1284               	/* #NOAPP */
 1285               	.LBE53:
 1286               	.LBE52:
 1287               	.LM181:
 1288 077a 0E94 0000 		call MAIN_Delay1MS
 1289               	.L165:
 1290               	/* epilogue: frame size=0 */
 1291 077e DF91      		pop r29
 1292 0780 CF91      		pop r28
 1293 0782 1F91      		pop r17
 1294 0784 0895      		ret
 1295               	/* epilogue end (size=4) */
 1296               	/* function PM_SendEraseCommand size 50 (43) */
 1297               	.LFE20:
 1299               	.global	PM_CreateProgrammingPackets
 1301               	PM_CreateProgrammingPackets:
 1302               	.LFB21:
 1303               	.LM182:
 1304               	/* prologue: frame size=0 */
 1305 0786 3F92      		push r3
 1306 0788 4F92      		push r4
 1307 078a 5F92      		push r5
 1308 078c 6F92      		push r6
 1309 078e 7F92      		push r7
 1310 0790 8F92      		push r8
 1311 0792 9F92      		push r9
 1312 0794 AF92      		push r10
 1313 0796 BF92      		push r11
 1314 0798 CF92      		push r12
 1315 079a DF92      		push r13
 1316 079c EF92      		push r14
 1317 079e FF92      		push r15
 1318 07a0 0F93      		push r16
 1319 07a2 1F93      		push r17
 1320 07a4 CF93      		push r28
 1321 07a6 DF93      		push r29
 1322               	/* prologue end (size=17) */
 1323 07a8 C82F      		mov r28,r24
 1324               	.LM183:
 1325 07aa AA24      		clr r10
 1326 07ac BB24      		clr r11
 1327 07ae 6501      		movw r12,r10
 1328               	.LM184:
 1329 07b0 0E94 0000 		call PM_GetStoredDataSize
 1330 07b4 2B01      		movw r4,r22
 1331 07b6 3C01      		movw r6,r24
 1332               	.LM185:
 1333 07b8 3324      		clr r3
 1334               	.LBB54:
 1335               	.LM186:
 1336 07ba C130      		cpi r28,lo8(1)
 1337 07bc 19F4      		brne .L181
 1338               	.LM187:
 1339 07be A0E0      		ldi r26,lo8(EEPROMVars+129)
 1340 07c0 B0E0      		ldi r27,hi8(EEPROMVars+129)
 1341 07c2 02C0      		rjmp .L182
 1342               	.L181:
 1343 07c4 A0E0      		ldi r26,lo8(EEPROMVars+131)
 1344 07c6 B0E0      		ldi r27,hi8(EEPROMVars+131)
 1345               	.L182:
 1346               	.LBB55:
 1347               	.LM188:
 1348               	/* #APP */
 1349 07c8 0E94 0000 		call __eeprom_read_word_1F2021
 1350               		
 1351               	/* #NOAPP */
 1352 07cc 4F01      		movw r8,r30
 1353               	.LBE55:
 1354               	.LBE54:
 1355               	.LM189:
 1356 07ce 1092 0000 		sts CurrAddress,__zero_reg__
 1357 07d2 1092 0000 		sts (CurrAddress)+1,__zero_reg__
 1358 07d6 1092 0000 		sts (CurrAddress)+2,__zero_reg__
 1359 07da 1092 0000 		sts (CurrAddress)+3,__zero_reg__
 1360               	.LM190:
 1361 07de C130      		cpi r28,lo8(1)
 1362 07e0 49F4      		brne .L184
 1363               	.LM191:
 1364 07e2 C0E0      		ldi r28,lo8(EEPROMVars+2)
 1365 07e4 D0E0      		ldi r29,hi8(EEPROMVars+2)
 1366               	.LM192:
 1367 07e6 60E0      		ldi r22,lo8(0)
 1368 07e8 70E0      		ldi r23,hi8(0)
 1369 07ea CB01      		movw r24,r22
 1370 07ec 0E94 0000 		call DF_ContinuousReadEnable
 1371               	.LM193:
 1372 07f0 83E1      		ldi r24,lo8(19)
 1373 07f2 09C0      		rjmp .L224
 1374               	.L184:
 1375               	.LM194:
 1376 07f4 C0E0      		ldi r28,lo8(EEPROMVars+11)
 1377 07f6 D0E0      		ldi r29,hi8(EEPROMVars+11)
 1378               	.LM195:
 1379 07f8 60EE      		ldi r22,lo8(224)
 1380 07fa 70E0      		ldi r23,hi8(224)
 1381 07fc 84EE      		ldi r24,lo8(996)
 1382 07fe 93E0      		ldi r25,hi8(996)
 1383 0800 0E94 0000 		call DF_ContinuousReadEnable
 1384               	.LM196:
 1385 0804 85E1      		ldi r24,lo8(21)
 1386               	.L224:
 1387 0806 8093 0000 		sts PacketBytes,r24
 1388 080a E0E0      		ldi r30,lo8(PacketBytes+1)
 1389 080c F0E0      		ldi r31,hi8(PacketBytes+1)
 1390 080e 98E0      		ldi r25,lo8(8)
 1391               	.L190:
 1392               	.LBB56:
 1393               	.LBB57:
 1394               	.LBB58:
 1395               	.LM197:
 1396 0810 DE01      		movw r26,r28
 1397               	/* #APP */
 1398 0812 0E94 0000 		call __eeprom_read_byte_1F2021
 1399 0816 802D      		mov r24,__tmp_reg__
 1400               	/* #NOAPP */
 1401               	.LBE58:
 1402               	.LBE57:
 1403               	.LM198:
 1404 0818 8193      		st Z+,r24
 1405               	.LM199:
 1406 081a 2196      		adiw r28,1
 1407               	.LM200:
 1408 081c 9150      		subi r25,lo8(-(-1))
 1409 081e 97FF      		sbrs r25,7
 1410 0820 F7CF      		rjmp .L190
 1411               	.LBE56:
 1412               	.LM201:
 1413 0822 8091 0000 		lds r24,PacketBytes+1
 1414 0826 9927      		clr r25
 1415 0828 D82F      		mov r29,r24
 1416 082a CC27      		clr r28
 1417 082c 8091 0000 		lds r24,PacketBytes+2
 1418 0830 9927      		clr r25
 1419 0832 C82B      		or r28,r24
 1420 0834 D92B      		or r29,r25
 1421               	.LM202:
 1422 0836 A414      		cp r10,r4
 1423 0838 B504      		cpc r11,r5
 1424 083a C604      		cpc r12,r6
 1425 083c D704      		cpc r13,r7
 1426 083e 08F0      		brlo .+2
 1427 0840 B2C0      		rjmp .L217
 1428               	.L213:
 1429               	.LM203:
 1430 0842 2091 0000 		lds r18,PacketBytes+3
 1431 0846 822F      		mov r24,r18
 1432 0848 9927      		clr r25
 1433 084a AC01      		movw r20,r24
 1434 084c 4170      		andi r20,lo8(1)
 1435 084e 5070      		andi r21,hi8(1)
 1436 0850 80FF      		sbrs r24,0
 1437 0852 53C0      		rjmp .L193
 1438               	.LM204:
 1439 0854 F1EA      		ldi r31,lo8(161)
 1440 0856 8F16      		cp r8,r31
 1441 0858 9104      		cpc r9,__zero_reg__
 1442 085a 60F1      		brlo .L194
 1443               	.LM205:
 1444 085c 3320      		tst r3
 1445 085e 41F4      		brne .L195
 1446               	.LM206:
 1447 0860 C0EA      		ldi r28,lo8(160)
 1448 0862 D0E0      		ldi r29,hi8(160)
 1449               	.LM207:
 1450 0864 2F77      		andi r18,lo8(127)
 1451 0866 2093 0000 		sts PacketBytes+3,r18
 1452               	.LM208:
 1453 086a 31E0      		ldi r19,lo8(1)
 1454 086c 332E      		mov r3,r19
 1455 086e 07C0      		rjmp .L196
 1456               	.L195:
 1457               	.LM209:
 1458 0870 E401      		movw r28,r8
 1459 0872 C05A      		subi r28,lo8(-(-160))
 1460 0874 D040      		sbci r29,hi8(-(-160))
 1461               	.LM210:
 1462 0876 2068      		ori r18,lo8(-128)
 1463 0878 2093 0000 		sts PacketBytes+3,r18
 1464               	.LM211:
 1465 087c 3324      		clr r3
 1466               	.L196:
 1467               	.LBB59:
 1468               	.LM212:
 1469 087e 00E0      		ldi r16,lo8(0)
 1470 0880 10E0      		ldi r17,hi8(0)
 1471 0882 0C17      		cp r16,r28
 1472 0884 1D07      		cpc r17,r29
 1473 0886 78F4      		brsh .L219
 1474 0888 20E0      		ldi r18,lo8(PacketBytes+10)
 1475 088a E22E      		mov r14,r18
 1476 088c 20E0      		ldi r18,hi8(PacketBytes+10)
 1477 088e F22E      		mov r15,r18
 1478               	.L200:
 1479               	.LM213:
 1480 0890 80E0      		ldi r24,lo8(0)
 1481 0892 0E94 0000 		call SPI_SPITransmit
 1482 0896 F701      		movw r30,r14
 1483 0898 8193      		st Z+,r24
 1484 089a 7F01      		movw r14,r30
 1485               	.LM214:
 1486 089c 0F5F      		subi r16,lo8(-(1))
 1487 089e 1F4F      		sbci r17,hi8(-(1))
 1488 08a0 0C17      		cp r16,r28
 1489 08a2 1D07      		cpc r17,r29
 1490 08a4 A8F3      		brlo .L200
 1491               	.L219:
 1492               	.LBE59:
 1493               	.LM215:
 1494 08a6 8D2F      		mov r24,r29
 1495 08a8 9927      		clr r25
 1496 08aa 8093 0000 		sts PacketBytes+1,r24
 1497               	.LM216:
 1498 08ae C093 0000 		sts PacketBytes+2,r28
 1499 08b2 4BC0      		rjmp .L223
 1500               	.L194:
 1501               	.LBB60:
 1502               	.LM217:
 1503 08b4 00E0      		ldi r16,lo8(0)
 1504 08b6 10E0      		ldi r17,hi8(0)
 1505 08b8 0815      		cp r16,r8
 1506 08ba 1905      		cpc r17,r9
 1507 08bc 78F4      		brsh .L221
 1508 08be 80E0      		ldi r24,lo8(PacketBytes+10)
 1509 08c0 E82E      		mov r14,r24
 1510 08c2 80E0      		ldi r24,hi8(PacketBytes+10)
 1511 08c4 F82E      		mov r15,r24
 1512               	.L205:
 1513               	.LM218:
 1514 08c6 80E0      		ldi r24,lo8(0)
 1515 08c8 0E94 0000 		call SPI_SPITransmit
 1516 08cc F701      		movw r30,r14
 1517 08ce 8193      		st Z+,r24
 1518 08d0 7F01      		movw r14,r30
 1519               	.LM219:
 1520 08d2 0F5F      		subi r16,lo8(-(1))
 1521 08d4 1F4F      		sbci r17,hi8(-(1))
 1522 08d6 0815      		cp r16,r8
 1523 08d8 1905      		cpc r17,r9
 1524 08da A8F3      		brlo .L205
 1525               	.L221:
 1526               	.LBE60:
 1527               	.LM220:
 1528 08dc 892D      		mov r24,r9
 1529 08de 9927      		clr r25
 1530 08e0 8093 0000 		sts PacketBytes+1,r24
 1531               	.LM221:
 1532 08e4 8092 0000 		sts PacketBytes+2,r8
 1533               	.LM222:
 1534 08e8 8091 0000 		lds r24,PacketBytes+3
 1535 08ec 8068      		ori r24,lo8(-128)
 1536 08ee 8093 0000 		sts PacketBytes+3,r24
 1537               	.LM223:
 1538 08f2 C401      		movw r24,r8
 1539 08f4 AA27      		clr r26
 1540 08f6 BB27      		clr r27
 1541 08f8 2BC0      		rjmp .L225
 1542               	.L193:
 1543               	.LM224:
 1544 08fa CE01      		movw r24,r28
 1545 08fc AA27      		clr r26
 1546 08fe BB27      		clr r27
 1547 0900 8A0D      		add r24,r10
 1548 0902 9B1D      		adc r25,r11
 1549 0904 AC1D      		adc r26,r12
 1550 0906 BD1D      		adc r27,r13
 1551 0908 4816      		cp r4,r24
 1552 090a 5906      		cpc r5,r25
 1553 090c 6A06      		cpc r6,r26
 1554 090e 7B06      		cpc r7,r27
 1555 0910 48F4      		brsh .L207
 1556               	.LM225:
 1557 0912 E201      		movw r28,r4
 1558 0914 CA19      		sub r28,r10
 1559 0916 DB09      		sbc r29,r11
 1560               	.LM226:
 1561 0918 8D2F      		mov r24,r29
 1562 091a 9927      		clr r25
 1563 091c 8093 0000 		sts PacketBytes+1,r24
 1564               	.LM227:
 1565 0920 C093 0000 		sts PacketBytes+2,r28
 1566               	.L207:
 1567               	.LBB61:
 1568               	.LM228:
 1569 0924 8A01      		movw r16,r20
 1570 0926 4C17      		cp r20,r28
 1571 0928 5D07      		cpc r21,r29
 1572 092a 78F4      		brsh .L223
 1573 092c F0E0      		ldi r31,lo8(PacketBytes+10)
 1574 092e EF2E      		mov r14,r31
 1575 0930 F0E0      		ldi r31,hi8(PacketBytes+10)
 1576 0932 FF2E      		mov r15,r31
 1577               	.L211:
 1578               	.LM229:
 1579 0934 80E0      		ldi r24,lo8(0)
 1580 0936 0E94 0000 		call SPI_SPITransmit
 1581 093a F701      		movw r30,r14
 1582 093c 8193      		st Z+,r24
 1583 093e 7F01      		movw r14,r30
 1584               	.LM230:
 1585 0940 0F5F      		subi r16,lo8(-(1))
 1586 0942 1F4F      		sbci r17,hi8(-(1))
 1587 0944 0C17      		cp r16,r28
 1588 0946 1D07      		cpc r17,r29
 1589 0948 A8F3      		brlo .L211
 1590               	.L223:
 1591               	.LBE61:
 1592               	.LM231:
 1593 094a CE01      		movw r24,r28
 1594 094c AA27      		clr r26
 1595 094e BB27      		clr r27
 1596               	.L225:
 1597 0950 A80E      		add r10,r24
 1598 0952 B91E      		adc r11,r25
 1599 0954 CA1E      		adc r12,r26
 1600 0956 DB1E      		adc r13,r27
 1601               	.LM232:
 1602 0958 A114      		cp r10,__zero_reg__
 1603 095a B104      		cpc r11,__zero_reg__
 1604 095c E1F4      		brne .L212
 1605 095e E12C      		mov r14,__zero_reg__
 1606 0960 F12C      		mov r15,__zero_reg__
 1607 0962 EFEF      		ldi r30,hlo8(16711680)
 1608 0964 0E2F      		mov r16,r30
 1609 0966 112D      		mov r17,__zero_reg__
 1610 0968 EA20      		and r14,r10
 1611 096a FB20      		and r15,r11
 1612 096c 0C21      		and r16,r12
 1613 096e 1D21      		and r17,r13
 1614 0970 E114      		cp r14,__zero_reg__
 1615 0972 F104      		cpc r15,__zero_reg__
 1616 0974 0105      		cpc r16,__zero_reg__
 1617 0976 1105      		cpc r17,__zero_reg__
 1618 0978 71F0      		breq .L212
 1619               	.LM233:
 1620 097a 8DE4      		ldi r24,lo8(77)
 1621 097c 0E94 0000 		call USI_SPITransmit
 1622               	.LM234:
 1623 0980 80E0      		ldi r24,lo8(0)
 1624 0982 0E94 0000 		call USI_SPITransmit
 1625               	.LM235:
 1626 0986 C801      		movw r24,r16
 1627 0988 AA27      		clr r26
 1628 098a BB27      		clr r27
 1629 098c 0E94 0000 		call USI_SPITransmit
 1630               	.LM236:
 1631 0990 80E0      		ldi r24,lo8(0)
 1632 0992 0E94 0000 		call USI_SPITransmit
 1633               	.L212:
 1634               	.LM237:
 1635 0996 0E94 0000 		call ISPCC_ProgramChip
 1636 099a A414      		cp r10,r4
 1637 099c B504      		cpc r11,r5
 1638 099e C604      		cpc r12,r6
 1639 09a0 D704      		cpc r13,r7
 1640 09a2 08F4      		brsh .+2
 1641 09a4 4ECF      		rjmp .L213
 1642               	.L217:
 1643               	/* epilogue: frame size=0 */
 1644 09a6 DF91      		pop r29
 1645 09a8 CF91      		pop r28
 1646 09aa 1F91      		pop r17
 1647 09ac 0F91      		pop r16
 1648 09ae FF90      		pop r15
 1649 09b0 EF90      		pop r14
 1650 09b2 DF90      		pop r13
 1651 09b4 CF90      		pop r12
 1652 09b6 BF90      		pop r11
 1653 09b8 AF90      		pop r10
 1654 09ba 9F90      		pop r9
 1655 09bc 8F90      		pop r8
 1656 09be 7F90      		pop r7
 1657 09c0 6F90      		pop r6
 1658 09c2 5F90      		pop r5
 1659 09c4 4F90      		pop r4
 1660 09c6 3F90      		pop r3
 1661 09c8 0895      		ret
 1662               	/* epilogue end (size=18) */
 1663               	/* function PM_CreateProgrammingPackets size 293 (258) */
 1664               	.LFE21:
 1666               		.section	.progmem.data,"a",@progbits
 1669               	__c.0:
 1670 0000 4441 5441 		.string	"DATA-"
 1670      2D00 
 1673               	__c.1:
 1674 0006 4550 524D 		.string	"EPRM-"
 1674      2D00 
 1677               	__c.2:
 1678 000c 4655 5345 		.string	"FUSE-"
 1678      2D00 
 1681               	__c.3:
 1682 0012 4C4F 434B 		.string	"LOCK-"
 1682      2D00 
 1683               		.text
 1684               	.global	PM_ShowStoredItemSizes
 1686               	PM_ShowStoredItemSizes:
 1687               	.LFB22:
 1688               	.LM238:
 1689               	/* prologue: frame size=14 */
 1690 09ca 1F93      		push r17
 1691 09cc CF93      		push r28
 1692 09ce DF93      		push r29
 1693 09d0 CDB7      		in r28,__SP_L__
 1694 09d2 DEB7      		in r29,__SP_H__
 1695 09d4 2E97      		sbiw r28,14
 1696 09d6 0FB6      		in __tmp_reg__,__SREG__
 1697 09d8 F894      		cli
 1698 09da DEBF      		out __SP_H__,r29
 1699 09dc 0FBE      		out __SREG__,__tmp_reg__
 1700 09de CDBF      		out __SP_L__,r28
 1701               	/* prologue end (size=11) */
 1702               	.LM239:
 1703 09e0 10E0      		ldi r17,lo8(0)
 1704               	.LM240:
 1705 09e2 81E0      		ldi r24,lo8(1)
 1706 09e4 8EBB      		out 62-0x20,r24
 1707               	.L257:
 1708               	.LM241:
 1709 09e6 8EB3      		in r24,62-0x20
 1710 09e8 8823      		tst r24
 1711 09ea E9F3      		breq .L257
 1712               	.LM242:
 1713 09ec F69B      		sbis 62-0x20,6
 1714 09ee 06C0      		rjmp .L230
 1715               	.LM243:
 1716 09f0 1123      		tst r17
 1717 09f2 11F4      		brne .L231
 1718 09f4 13E0      		ldi r17,lo8(3)
 1719 09f6 0CC0      		rjmp .L233
 1720               	.L231:
 1721 09f8 1150      		subi r17,lo8(-(-1))
 1722 09fa 0AC0      		rjmp .L233
 1723               	.L230:
 1724               	.LM244:
 1725 09fc F79B      		sbis 62-0x20,7
 1726 09fe 06C0      		rjmp .L234
 1727               	.LM245:
 1728 0a00 1330      		cpi r17,lo8(3)
 1729 0a02 11F4      		brne .L235
 1730 0a04 10E0      		ldi r17,lo8(0)
 1731 0a06 04C0      		rjmp .L233
 1732               	.L235:
 1733 0a08 1F5F      		subi r17,lo8(-(1))
 1734 0a0a 02C0      		rjmp .L233
 1735               	.L234:
 1736               	.LM246:
 1737 0a0c F299      		sbic 62-0x20,2
 1738 0a0e 54C0      		rjmp .L226
 1739               	.L233:
 1740               	.LM247:
 1741 0a10 812F      		mov r24,r17
 1742 0a12 9927      		clr r25
 1743 0a14 8130      		cpi r24,1
 1744 0a16 9105      		cpc r25,__zero_reg__
 1745 0a18 A1F0      		breq .L241
 1746 0a1a 8230      		cpi r24,2
 1747 0a1c 9105      		cpc r25,__zero_reg__
 1748 0a1e 1CF4      		brge .L250
 1749 0a20 892B      		or r24,r25
 1750 0a22 39F0      		breq .L240
 1751 0a24 42C0      		rjmp .L239
 1752               	.L250:
 1753 0a26 8230      		cpi r24,2
 1754 0a28 9105      		cpc r25,__zero_reg__
 1755 0a2a 01F1      		breq .L242
 1756 0a2c 0397      		sbiw r24,3
 1757 0a2e 39F1      		breq .L246
 1758 0a30 3CC0      		rjmp .L239
 1759               	.L240:
 1760               	.LM248:
 1761 0a32 60E0      		ldi r22,lo8(__c.0)
 1762 0a34 70E0      		ldi r23,hi8(__c.0)
 1763 0a36 CE01      		movw r24,r28
 1764 0a38 0196      		adiw r24,1
 1765 0a3a 0E94 0000 		call strcpy_P
 1766               	.LM249:
 1767 0a3e 81E0      		ldi r24,lo8(1)
 1768 0a40 07C0      		rjmp .L254
 1769               	.L241:
 1770               	.LM250:
 1771 0a42 60E0      		ldi r22,lo8(__c.1)
 1772 0a44 70E0      		ldi r23,hi8(__c.1)
 1773 0a46 CE01      		movw r24,r28
 1774 0a48 0196      		adiw r24,1
 1775 0a4a 0E94 0000 		call strcpy_P
 1776               	.LM251:
 1777 0a4e 80E0      		ldi r24,lo8(0)
 1778               	.L254:
 1779 0a50 0E94 0000 		call PM_GetStoredDataSize
 1780 0a54 DC01      		movw r26,r24
 1781 0a56 CB01      		movw r24,r22
 1782 0a58 2AE0      		ldi r18,lo8(10)
 1783 0a5a 30E0      		ldi r19,hi8(10)
 1784 0a5c AE01      		movw r20,r28
 1785 0a5e 4A5F      		subi r20,lo8(-(6))
 1786 0a60 5F4F      		sbci r21,hi8(-(6))
 1787 0a62 BC01      		movw r22,r24
 1788 0a64 CD01      		movw r24,r26
 1789 0a66 0E94 0000 		call ultoa
 1790               	.LM252:
 1791 0a6a 1FC0      		rjmp .L239
 1792               	.L242:
 1793               	.LM253:
 1794 0a6c 60E0      		ldi r22,lo8(__c.2)
 1795 0a6e 70E0      		ldi r23,hi8(__c.2)
 1796 0a70 CE01      		movw r24,r28
 1797 0a72 0196      		adiw r24,1
 1798 0a74 0E94 0000 		call strcpy_P
 1799               	.LBB62:
 1800               	.LM254:
 1801 0a78 A0E0      		ldi r26,lo8(EEPROMVars+47)
 1802 0a7a B0E0      		ldi r27,hi8(EEPROMVars+47)
 1803 0a7c 08C0      		rjmp .L256
 1804               	.L246:
 1805               	.LBE62:
 1806               	.LM255:
 1807 0a7e 60E0      		ldi r22,lo8(__c.3)
 1808 0a80 70E0      		ldi r23,hi8(__c.3)
 1809 0a82 CE01      		movw r24,r28
 1810 0a84 0196      		adiw r24,1
 1811 0a86 0E94 0000 		call strcpy_P
 1812               	.LBB63:
 1813               	.LM256:
 1814 0a8a A0E0      		ldi r26,lo8(EEPROMVars+48)
 1815 0a8c B0E0      		ldi r27,hi8(EEPROMVars+48)
 1816               	.L256:
 1817               	.LBB64:
 1818               	.LM257:
 1819               	/* #APP */
 1820 0a8e 0E94 0000 		call __eeprom_read_byte_1F2021
 1821 0a92 802D      		mov r24,__tmp_reg__
 1822               	/* #NOAPP */
 1823               	.LBE64:
 1824               	.LBE63:
 1825               	.LM258:
 1826 0a94 8F3F      		cpi r24,lo8(-1)
 1827 0a96 11F0      		breq .L248
 1828 0a98 9927      		clr r25
 1829 0a9a 02C0      		rjmp .L249
 1830               	.L248:
 1831 0a9c 80E0      		ldi r24,lo8(0)
 1832 0a9e 90E0      		ldi r25,hi8(0)
 1833               	.L249:
 1834 0aa0 BE01      		movw r22,r28
 1835 0aa2 6A5F      		subi r22,lo8(-(6))
 1836 0aa4 7F4F      		sbci r23,hi8(-(6))
 1837 0aa6 0E94 0000 		call MAIN_IntToStr
 1838               	.L239:
 1839               	.LM259:
 1840 0aaa CE01      		movw r24,r28
 1841 0aac 0196      		adiw r24,1
 1842 0aae 0E94 0000 		call LCD_puts
 1843               	.LM260:
 1844 0ab2 0E94 0000 		call MAIN_WaitForJoyRelease
 1845 0ab6 97CF      		rjmp .L257
 1846               	.L226:
 1847               	/* epilogue: frame size=14 */
 1848 0ab8 2E96      		adiw r28,14
 1849 0aba 0FB6      		in __tmp_reg__,__SREG__
 1850 0abc F894      		cli
 1851 0abe DEBF      		out __SP_H__,r29
 1852 0ac0 0FBE      		out __SREG__,__tmp_reg__
 1853 0ac2 CDBF      		out __SP_L__,r28
 1854 0ac4 DF91      		pop r29
 1855 0ac6 CF91      		pop r28
 1856 0ac8 1F91      		pop r17
 1857 0aca 0895      		ret
 1858               	/* epilogue end (size=10) */
 1859               	/* function PM_ShowStoredItemSizes size 131 (110) */
 1860               	.LFE22:
 1862               	.Letext0:
DEFINED SYMBOLS
                            *ABS*:00000000 ProgramManager.c
C:\DOCUME~1\Dean\LOCALS~1\Temp/ccATaaaa.s:3      *ABS*:0000003f __SREG__
C:\DOCUME~1\Dean\LOCALS~1\Temp/ccATaaaa.s:4      *ABS*:0000003e __SP_H__
C:\DOCUME~1\Dean\LOCALS~1\Temp/ccATaaaa.s:5      *ABS*:0000003d __SP_L__
C:\DOCUME~1\Dean\LOCALS~1\Temp/ccATaaaa.s:6      *ABS*:00000000 __tmp_reg__
C:\DOCUME~1\Dean\LOCALS~1\Temp/ccATaaaa.s:7      *ABS*:00000001 __zero_reg__
C:\DOCUME~1\Dean\LOCALS~1\Temp/ccATaaaa.s:23     .bss:00000000 GPageLength
C:\DOCUME~1\Dean\LOCALS~1\Temp/ccATaaaa.s:29     .bss:00000002 CurrentMode
C:\DOCUME~1\Dean\LOCALS~1\Temp/ccATaaaa.s:35     .bss:00000003 MemoryType
C:\DOCUME~1\Dean\LOCALS~1\Temp/ccATaaaa.s:40     .text:00000000 PM_GetStoredDataSize
C:\DOCUME~1\Dean\LOCALS~1\Temp/ccATaaaa.s:126    .text:0000006e PM_SetupDFAddressCounters
C:\DOCUME~1\Dean\LOCALS~1\Temp/ccATaaaa.s:205    .text:000000f2 PM_StoreProgramByte
C:\DOCUME~1\Dean\LOCALS~1\Temp/ccATaaaa.s:259    .text:0000015c PM_CheckEndOfFuseLockData
C:\DOCUME~1\Dean\LOCALS~1\Temp/ccATaaaa.s:397    .text:0000022a PM_InterpretAVRISPPacket
C:\DOCUME~1\Dean\LOCALS~1\Temp/ccATaaaa.s:1116   .text:000006c6 PM_SendFuseLockBytes
C:\DOCUME~1\Dean\LOCALS~1\Temp/ccATaaaa.s:1214   .text:00000728 PM_SendEraseCommand
C:\DOCUME~1\Dean\LOCALS~1\Temp/ccATaaaa.s:1301   .text:00000786 PM_CreateProgrammingPackets
C:\DOCUME~1\Dean\LOCALS~1\Temp/ccATaaaa.s:1669   .progmem.data:00000000 __c.0
C:\DOCUME~1\Dean\LOCALS~1\Temp/ccATaaaa.s:1673   .progmem.data:00000006 __c.1
C:\DOCUME~1\Dean\LOCALS~1\Temp/ccATaaaa.s:1677   .progmem.data:0000000c __c.2
C:\DOCUME~1\Dean\LOCALS~1\Temp/ccATaaaa.s:1681   .progmem.data:00000012 __c.3
C:\DOCUME~1\Dean\LOCALS~1\Temp/ccATaaaa.s:1686   .text:000009ca PM_ShowStoredItemSizes

UNDEFINED SYMBOLS
__do_copy_data
__do_clear_bss
EEPROMVars
__eeprom_read_block_1F2021
CurrAddress
CurrPageAddress
CurrBuffByte
DF_CopyBufferToFlashPage
DF_BufferWriteEnable
SPI_SPITransmit
__eeprom_write_block_1F2021
__eeprom_write_byte_1F2021
PacketBytes
MessageSize
InProgrammingMode
DF_EnableDataflash
__eeprom_read_byte_1F2021
__eeprom_write_word_1F2021
DF_ContinuousReadEnable
V2P_IncrementCurrAddress
V2P_SendPacket
USI_SPITransmit
MAIN_Delay10MS
USI_SPITransmitWord
MAIN_Delay1MS
__eeprom_read_word_1F2021
ISPCC_ProgramChip
strcpy_P
ultoa
MAIN_IntToStr
LCD_puts
MAIN_WaitForJoyRelease
