   1               		.file	"ProgramManager.c"
   2               		.arch atmega169
   3               	__SREG__ = 0x3f
   4               	__SP_H__ = 0x3e
   5               	__SP_L__ = 0x3d
   6               	__tmp_reg__ = 0
   7               	__zero_reg__ = 1
   8               		.global __do_copy_data
   9               		.global __do_clear_bss
  17               	.Ltext0:
  18               	.global	PM_SetupDFAddressCounters
  20               	PM_SetupDFAddressCounters:
  21               	.LFB15:
  22               	.LM1:
  23               	/* prologue: frame size=0 */
  24               	/* prologue end (size=0) */
  25               	.LVL0:
  26               	.LM2:
  27 0000 8093 0000 		sts MemoryType,r24
  28               	.LM3:
  29 0004 1092 0000 		sts (GPageLength)+1,__zero_reg__
  30 0008 1092 0000 		sts GPageLength,__zero_reg__
  31 000c 2091 0000 		lds r18,CurrAddress
  32 0010 3091 0000 		lds r19,(CurrAddress)+1
  33 0014 4091 0000 		lds r20,(CurrAddress)+2
  34 0018 5091 0000 		lds r21,(CurrAddress)+3
  35               	.LM4:
  36 001c 8130      		cpi r24,lo8(1)
  37 001e 01F4      		brne .L2
  38               	.LM5:
  39 0020 DA01      		movw r26,r20
  40 0022 C901      		movw r24,r18
  41               	.LVL1:
  42 0024 880F      		lsl r24
  43 0026 991F      		rol r25
  44 0028 AA1F      		rol r26
  45 002a BB1F      		rol r27
  46 002c 00C0      		rjmp .L4
  47               	.LVL2:
  48               	.L2:
  49               	.LM6:
  50 002e DA01      		movw r26,r20
  51 0030 C901      		movw r24,r18
  52               	.LVL3:
  53 0032 8050      		subi r24,lo8(-(263168))
  54 0034 9C4F      		sbci r25,hi8(-(263168))
  55 0036 AB4F      		sbci r26,hlo8(-(263168))
  56 0038 BF4F      		sbci r27,hhi8(-(263168))
  57               	.L4:
  58               	.LM7:
  59 003a 1092 0000 		sts (CurrPageAddress)+1,__zero_reg__
  60 003e 1092 0000 		sts CurrPageAddress,__zero_reg__
  61 0042 20E0      		ldi r18,lo8(0)
  62 0044 30E0      		ldi r19,hi8(0)
  63 0046 00C0      		rjmp .L5
  64               	.L6:
  65               	.LM8:
  66 0048 8850      		subi r24,lo8(-(-264))
  67 004a 9140      		sbci r25,hi8(-(-264))
  68 004c A040      		sbci r26,hlo8(-(-264))
  69 004e B040      		sbci r27,hhi8(-(-264))
  70 0050 2F5F      		subi r18,lo8(-(1))
  71 0052 3F4F      		sbci r19,hi8(-(1))
  72               	.L5:
  73               	.LM9:
  74 0054 8830      		cpi r24,lo8(264)
  75 0056 41E0      		ldi r20,hi8(264)
  76 0058 9407      		cpc r25,r20
  77 005a 40E0      		ldi r20,hlo8(264)
  78 005c A407      		cpc r26,r20
  79 005e 40E0      		ldi r20,hhi8(264)
  80 0060 B407      		cpc r27,r20
  81 0062 00F4      		brsh .L6
  82 0064 3093 0000 		sts (CurrPageAddress)+1,r19
  83 0068 2093 0000 		sts CurrPageAddress,r18
  84               	.LM10:
  85 006c 9093 0000 		sts (CurrBuffByte)+1,r25
  86 0070 8093 0000 		sts CurrBuffByte,r24
  87               	/* epilogue: frame size=0 */
  88 0074 0895      		ret
  89               	/* epilogue end (size=1) */
  90               	/* function PM_SetupDFAddressCounters size 59 (58) */
  91               	.LFE15:
  93               	.global	PM_CheckEndOfFuseLockData
  95               	PM_CheckEndOfFuseLockData:
  96               	.LFB18:
  97               	.LM11:
  98               	/* prologue: frame size=4 */
  99 0076 CF93      		push r28
 100 0078 DF93      		push r29
 101 007a CDB7      		in r28,__SP_L__
 102 007c DEB7      		in r29,__SP_H__
 103 007e 2497      		sbiw r28,4
 104 0080 0FB6      		in __tmp_reg__,__SREG__
 105 0082 F894      		cli
 106 0084 DEBF      		out __SP_H__,r29
 107 0086 0FBE      		out __SREG__,__tmp_reg__
 108 0088 CDBF      		out __SP_L__,r28
 109               	/* prologue end (size=10) */
 110               	.LM12:
 111 008a 8091 0000 		lds r24,CurrentMode
 112 008e 8130      		cpi r24,lo8(1)
 113 0090 01F0      		breq .+2
 114 0092 00C0      		rjmp .L10
 115               	.LBB17:
 116               	.LM13:
 117 0094 8091 0000 		lds r24,CurrBuffByte
 118 0098 9091 0000 		lds r25,(CurrBuffByte)+1
 119 009c 892B      		or r24,r25
 120 009e 01F0      		breq .L12
 121               	.LM14:
 122 00a0 8091 0000 		lds r24,CurrPageAddress
 123 00a4 9091 0000 		lds r25,(CurrPageAddress)+1
 124 00a8 0E94 0000 		call DF_CopyBufferToFlashPage
 125               	.L12:
 126               	.LM15:
 127 00ac 2091 0000 		lds r18,CurrPageAddress
 128 00b0 3091 0000 		lds r19,(CurrPageAddress)+1
 129 00b4 88E0      		ldi r24,lo8(264)
 130 00b6 91E0      		ldi r25,hi8(264)
 131 00b8 AC01      		movw r20,r24
 132 00ba 249F      		mul r18,r20
 133 00bc C001      		movw r24,r0
 134 00be 259F      		mul r18,r21
 135 00c0 900D      		add r25,r0
 136 00c2 349F      		mul r19,r20
 137 00c4 900D      		add r25,r0
 138 00c6 1124      		clr r1
 139 00c8 2091 0000 		lds r18,CurrBuffByte
 140 00cc 3091 0000 		lds r19,(CurrBuffByte)+1
 141 00d0 820F      		add r24,r18
 142 00d2 931F      		adc r25,r19
 143 00d4 9C01      		movw r18,r24
 144 00d6 4427      		clr r20
 145 00d8 5527      		clr r21
 146 00da 2983      		std Y+1,r18
 147 00dc 3A83      		std Y+2,r19
 148 00de 4B83      		std Y+3,r20
 149 00e0 5C83      		std Y+4,r21
 150               	.LVL4:
 151               	.LM16:
 152 00e2 8091 0000 		lds r24,MemoryType
 153 00e6 FE01      		movw r30,r28
 154 00e8 3196      		adiw r30,1
 155 00ea 8130      		cpi r24,lo8(1)
 156 00ec 01F4      		brne .L14
 157               	.LBB18:
 158               	.LBB19:
 159               	.LBB20:
 160               	.LM17:
 161 00ee 84E0      		ldi r24,lo8(4)
 162 00f0 A0E0      		ldi r26,lo8(EEPROMVars+28)
 163 00f2 B0E0      		ldi r27,hi8(EEPROMVars+28)
 164 00f4 00C0      		rjmp .L22
 165               	.L14:
 166               	.LBE20:
 167               	.LBE19:
 168               	.LBE18:
 169               	.LM18:
 170 00f6 2050      		subi r18,lo8(-(-263168))
 171 00f8 3440      		sbci r19,hi8(-(-263168))
 172 00fa 4440      		sbci r20,hlo8(-(-263168))
 173 00fc 5040      		sbci r21,hhi8(-(-263168))
 174 00fe 2983      		std Y+1,r18
 175 0100 3A83      		std Y+2,r19
 176 0102 4B83      		std Y+3,r20
 177 0104 5C83      		std Y+4,r21
 178               	.LBB21:
 179               	.LBB22:
 180               	.LBB23:
 181               	.LM19:
 182 0106 84E0      		ldi r24,lo8(4)
 183 0108 A0E0      		ldi r26,lo8(EEPROMVars+32)
 184 010a B0E0      		ldi r27,hi8(EEPROMVars+32)
 185               	.L22:
 186               	/* #APP */
 187 010c 182E      		mov __zero_reg__,r24
 188 010e 0E94 0000 		call __eeprom_write_block_1F2021
 189               	.LVL5:
 190               	/* #NOAPP */
 191 0112 00C0      		rjmp .L21
 192               	.LVL6:
 193               	.L10:
 194               	.LBE23:
 195               	.LBE22:
 196               	.LBE21:
 197               	.LBE17:
 198               	.LM20:
 199 0114 8330      		cpi r24,lo8(3)
 200 0116 01F4      		brne .L21
 201               	.LM21:
 202 0118 2091 0000 		lds r18,CurrBuffByte
 203 011c 3091 0000 		lds r19,(CurrBuffByte)+1
 204 0120 8091 0000 		lds r24,MemoryType
 205 0124 8230      		cpi r24,lo8(2)
 206 0126 01F4      		brne .L18
 207 0128 A0E0      		ldi r26,lo8(EEPROMVars+48)
 208 012a B0E0      		ldi r27,hi8(EEPROMVars+48)
 209               	.LVL7:
 210 012c 00C0      		rjmp .L20
 211               	.LVL8:
 212               	.L18:
 213 012e A0E0      		ldi r26,lo8(EEPROMVars+49)
 214 0130 B0E0      		ldi r27,hi8(EEPROMVars+49)
 215               	.LVL9:
 216               	.L20:
 217               	.LBB24:
 218               	.LBB25:
 219               	.LM22:
 220               	/* #APP */
 221 0132 022E      		mov __tmp_reg__,r18
 222 0134 0E94 0000 		call __eeprom_write_byte_1F2021
 223               	.LVL10:
 224               	/* #NOAPP */
 225               	.L21:
 226               	.LBE25:
 227               	.LBE24:
 228               	/* epilogue: frame size=4 */
 229 0138 2496      		adiw r28,4
 230 013a 0FB6      		in __tmp_reg__,__SREG__
 231 013c F894      		cli
 232 013e DEBF      		out __SP_H__,r29
 233 0140 0FBE      		out __SREG__,__tmp_reg__
 234 0142 CDBF      		out __SP_L__,r28
 235 0144 DF91      		pop r29
 236 0146 CF91      		pop r28
 237 0148 0895      		ret
 238               	/* epilogue end (size=9) */
 239               	/* function PM_CheckEndOfFuseLockData size 108 (89) */
 240               	.LFE18:
 242               	.global	PM_GetStoredDataSize
 244               	PM_GetStoredDataSize:
 245               	.LFB14:
 246               	.LM23:
 247               	/* prologue: frame size=4 */
 248 014a CF93      		push r28
 249 014c DF93      		push r29
 250 014e CDB7      		in r28,__SP_L__
 251 0150 DEB7      		in r29,__SP_H__
 252 0152 2497      		sbiw r28,4
 253 0154 0FB6      		in __tmp_reg__,__SREG__
 254 0156 F894      		cli
 255 0158 DEBF      		out __SP_H__,r29
 256 015a 0FBE      		out __SREG__,__tmp_reg__
 257 015c CDBF      		out __SP_L__,r28
 258               	/* prologue end (size=10) */
 259               	.LVL11:
 260               	.LM24:
 261 015e 8130      		cpi r24,lo8(1)
 262 0160 01F4      		brne .L24
 263               	.LM25:
 264 0162 A0E0      		ldi r26,lo8(EEPROMVars+28)
 265 0164 B0E0      		ldi r27,hi8(EEPROMVars+28)
 266 0166 00C0      		rjmp .L26
 267               	.L24:
 268 0168 A0E0      		ldi r26,lo8(EEPROMVars+32)
 269 016a B0E0      		ldi r27,hi8(EEPROMVars+32)
 270               	.L26:
 271               	.LM26:
 272 016c 1982      		std Y+1,__zero_reg__
 273 016e 1A82      		std Y+2,__zero_reg__
 274 0170 1B82      		std Y+3,__zero_reg__
 275 0172 1C82      		std Y+4,__zero_reg__
 276               	.LVL12:
 277               	.LBB26:
 278               	.LBB27:
 279               	.LBB28:
 280               	.LM27:
 281 0174 84E0      		ldi r24,lo8(4)
 282               	.LVL13:
 283 0176 FE01      		movw r30,r28
 284 0178 3196      		adiw r30,1
 285               	/* #APP */
 286 017a 182E      		mov __zero_reg__,r24
 287 017c 0E94 0000 		call __eeprom_read_block_1F2021
 288               	.LVL14:
 289               	/* #NOAPP */
 290               	.LBE28:
 291               	.LBE27:
 292               	.LBE26:
 293               	.LM28:
 294 0180 8981      		ldd r24,Y+1
 295 0182 9A81      		ldd r25,Y+2
 296 0184 AB81      		ldd r26,Y+3
 297 0186 BC81      		ldd r27,Y+4
 298 0188 8F5F      		subi r24,lo8(-1)
 299 018a 9F4F      		sbci r25,hi8(-1)
 300 018c AF4F      		sbci r26,hlo8(-1)
 301 018e BF4F      		sbci r27,hhi8(-1)
 302 0190 01F4      		brne .L27
 303               	.LVL15:
 304               	.LM29:
 305 0192 1982      		std Y+1,__zero_reg__
 306 0194 1A82      		std Y+2,__zero_reg__
 307 0196 1B82      		std Y+3,__zero_reg__
 308 0198 1C82      		std Y+4,__zero_reg__
 309               	.L27:
 310 019a 6981      		ldd r22,Y+1
 311 019c 7A81      		ldd r23,Y+2
 312 019e 8B81      		ldd r24,Y+3
 313 01a0 9C81      		ldd r25,Y+4
 314               	/* epilogue: frame size=4 */
 315 01a2 2496      		adiw r28,4
 316 01a4 0FB6      		in __tmp_reg__,__SREG__
 317 01a6 F894      		cli
 318 01a8 DEBF      		out __SP_H__,r29
 319 01aa 0FBE      		out __SREG__,__tmp_reg__
 320 01ac CDBF      		out __SP_L__,r28
 321 01ae DF91      		pop r29
 322 01b0 CF91      		pop r28
 323 01b2 0895      		ret
 324               	/* epilogue end (size=9) */
 325               	/* function PM_GetStoredDataSize size 57 (38) */
 326               	.LFE14:
 328               	.global	PM_StoreProgramByte
 330               	PM_StoreProgramByte:
 331               	.LFB16:
 332               	.LM30:
 333               	/* prologue: frame size=0 */
 334 01b4 1F93      		push r17
 335               	/* prologue end (size=1) */
 336               	.LVL16:
 337 01b6 182F      		mov r17,r24
 338               	.LM31:
 339 01b8 8091 0000 		lds r24,CurrBuffByte
 340 01bc 9091 0000 		lds r25,(CurrBuffByte)+1
 341               	.LVL17:
 342 01c0 8850      		subi r24,lo8(264)
 343 01c2 9140      		sbci r25,hi8(264)
 344 01c4 01F4      		brne .L31
 345               	.LM32:
 346 01c6 8091 0000 		lds r24,CurrPageAddress
 347 01ca 9091 0000 		lds r25,(CurrPageAddress)+1
 348 01ce 0196      		adiw r24,1
 349 01d0 9093 0000 		sts (CurrPageAddress)+1,r25
 350 01d4 8093 0000 		sts CurrPageAddress,r24
 351 01d8 0197      		sbiw r24,1
 352 01da 0E94 0000 		call DF_CopyBufferToFlashPage
 353               	.LM33:
 354 01de 80E0      		ldi r24,lo8(0)
 355 01e0 90E0      		ldi r25,hi8(0)
 356 01e2 0E94 0000 		call DF_BufferWriteEnable
 357               	.LM34:
 358 01e6 1092 0000 		sts (CurrBuffByte)+1,__zero_reg__
 359 01ea 1092 0000 		sts CurrBuffByte,__zero_reg__
 360               	.L31:
 361               	.LM35:
 362 01ee 812F      		mov r24,r17
 363 01f0 0E94 0000 		call SPI_SPITransmit
 364               	.LM36:
 365 01f4 8091 0000 		lds r24,CurrBuffByte
 366 01f8 9091 0000 		lds r25,(CurrBuffByte)+1
 367 01fc 0196      		adiw r24,1
 368 01fe 9093 0000 		sts (CurrBuffByte)+1,r25
 369 0202 8093 0000 		sts CurrBuffByte,r24
 370               	.LM37:
 371 0206 8091 0000 		lds r24,GPageLength
 372 020a 9091 0000 		lds r25,(GPageLength)+1
 373 020e 0196      		adiw r24,1
 374 0210 9093 0000 		sts (GPageLength)+1,r25
 375 0214 8093 0000 		sts GPageLength,r24
 376               	/* epilogue: frame size=0 */
 377 0218 1F91      		pop r17
 378 021a 0895      		ret
 379               	/* epilogue end (size=2) */
 380               	/* function PM_StoreProgramByte size 53 (50) */
 381               	.LFE16:
 383               	.global	PM_SendFuseLockBytes
 385               	PM_SendFuseLockBytes:
 386               	.LFB19:
 387               	.LM38:
 388               	/* prologue: frame size=0 */
 389 021c EF92      		push r14
 390 021e FF92      		push r15
 391 0220 0F93      		push r16
 392 0222 1F93      		push r17
 393 0224 CF93      		push r28
 394 0226 DF93      		push r29
 395               	/* prologue end (size=6) */
 396               	.LVL18:
 397               	.LM39:
 398 0228 8230      		cpi r24,lo8(2)
 399 022a 01F4      		brne .L35
 400               	.LBB36:
 401               	.LBB37:
 402               	.LM40:
 403 022c 40E0      		ldi r20,lo8(EEPROMVars+48)
 404 022e 50E0      		ldi r21,hi8(EEPROMVars+48)
 405 0230 DA01      		movw r26,r20
 406               	/* #APP */
 407 0232 0E94 0000 		call __eeprom_read_byte_1F2021
 408 0236 802D      		mov r24,__tmp_reg__
 409               	.LVL19:
 410               	/* #NOAPP */
 411               	.LBE37:
 412               	.LBE36:
 413               	.LM41:
 414 0238 182F      		mov r17,r24
 415               	.LVL20:
 416 023a 62E0      		ldi r22,lo8(2)
 417 023c E62E      		mov r14,r22
 418 023e F12C      		mov r15,__zero_reg__
 419               	.LVL21:
 420 0240 00C0      		rjmp .L52
 421               	.LVL22:
 422               	.L35:
 423               	.LBB38:
 424               	.LBB39:
 425               	.LM42:
 426 0242 40E0      		ldi r20,lo8(EEPROMVars+49)
 427 0244 50E0      		ldi r21,hi8(EEPROMVars+49)
 428 0246 DA01      		movw r26,r20
 429               	/* #APP */
 430 0248 0E94 0000 		call __eeprom_read_byte_1F2021
 431 024c 802D      		mov r24,__tmp_reg__
 432               	.LVL23:
 433               	/* #NOAPP */
 434               	.LBE39:
 435               	.LBE38:
 436               	.LM43:
 437 024e 182F      		mov r17,r24
 438               	.LVL24:
 439 0250 39E2      		ldi r19,lo8(41)
 440 0252 E32E      		mov r14,r19
 441 0254 F12C      		mov r15,__zero_reg__
 442               	.LVL25:
 443               	.L52:
 444 0256 E40E      		add r14,r20
 445 0258 F51E      		adc r15,r21
 446 025a 00C0      		rjmp .L53
 447               	.LVL26:
 448               	.L38:
 449 025c E701      		movw r28,r14
 450 025e 00E0      		ldi r16,lo8(0)
 451               	.L39:
 452               	.LBB40:
 453               	.LBB41:
 454               	.LBB42:
 455               	.LM44:
 456 0260 DE01      		movw r26,r28
 457               	.LVL27:
 458               	/* #APP */
 459 0262 0E94 0000 		call __eeprom_read_byte_1F2021
 460 0266 802D      		mov r24,__tmp_reg__
 461               	.LVL28:
 462               	/* #NOAPP */
 463               	.LBE42:
 464               	.LBE41:
 465               	.LM45:
 466 0268 0E94 0000 		call USI_SPITransmit
 467               	.LVL29:
 468               	.LM46:
 469 026c 2196      		adiw r28,1
 470               	.LM47:
 471 026e 0F5F      		subi r16,lo8(-(1))
 472 0270 0430      		cpi r16,lo8(4)
 473 0272 01F4      		brne .L39
 474 0274 84E0      		ldi r24,lo8(4)
 475 0276 90E0      		ldi r25,hi8(4)
 476 0278 E80E      		add r14,r24
 477 027a F91E      		adc r15,r25
 478               	.LBE40:
 479               	.LM48:
 480 027c 1123      		tst r17
 481 027e 01F0      		breq .L53
 482               	.LM49:
 483 0280 85E0      		ldi r24,lo8(5)
 484 0282 0E94 0000 		call MAIN_Delay10MS
 485               	.LVL30:
 486               	.L53:
 487               	.LM50:
 488 0286 1150      		subi r17,1
 489 0288 00F4      		brcc .L38
 490               	/* epilogue: frame size=0 */
 491 028a DF91      		pop r29
 492 028c CF91      		pop r28
 493 028e 1F91      		pop r17
 494 0290 0F91      		pop r16
 495 0292 FF90      		pop r15
 496 0294 EF90      		pop r14
 497 0296 0895      		ret
 498               	/* epilogue end (size=7) */
 499               	/* function PM_SendFuseLockBytes size 64 (51) */
 500               	.LFE19:
 502               	.global	PM_SendEraseCommand
 504               	PM_SendEraseCommand:
 505               	.LFB20:
 506               	.LM51:
 507               	/* prologue: frame size=0 */
 508 0298 CF93      		push r28
 509 029a DF93      		push r29
 510               	/* prologue end (size=2) */
 511 029c C0E0      		ldi r28,lo8(EEPROMVars+24)
 512 029e D0E0      		ldi r29,hi8(EEPROMVars+24)
 513               	.L55:
 514               	.LBB50:
 515               	.LBB51:
 516               	.LBB52:
 517               	.LM52:
 518 02a0 DE01      		movw r26,r28
 519               	.LVL31:
 520               	/* #APP */
 521 02a2 0E94 0000 		call __eeprom_read_byte_1F2021
 522 02a6 802D      		mov r24,__tmp_reg__
 523               	.LVL32:
 524               	/* #NOAPP */
 525               	.LBE52:
 526               	.LBE51:
 527               	.LM53:
 528 02a8 0E94 0000 		call USI_SPITransmit
 529               	.LVL33:
 530 02ac 2196      		adiw r28,1
 531               	.LM54:
 532 02ae 80E0      		ldi r24,hi8(EEPROMVars+28)
 533 02b0 C030      		cpi r28,lo8(EEPROMVars+28)
 534 02b2 D807      		cpc r29,r24
 535 02b4 01F4      		brne .L55
 536               	.LBE50:
 537               	.LBB53:
 538               	.LBB54:
 539               	.LM55:
 540 02b6 2597      		sbiw r28,5
 541 02b8 DE01      		movw r26,r28
 542               	.LVL34:
 543               	/* #APP */
 544 02ba 0E94 0000 		call __eeprom_read_byte_1F2021
 545 02be 802D      		mov r24,__tmp_reg__
 546               	.LVL35:
 547               	/* #NOAPP */
 548 02c0 2596      		adiw r28,5
 549               	.LBE54:
 550               	.LBE53:
 551               	.LM56:
 552 02c2 8823      		tst r24
 553 02c4 01F0      		breq .L57
 554               	.L61:
 555               	.LM57:
 556 02c6 80E0      		ldi r24,lo8(-4096)
 557 02c8 90EF      		ldi r25,hi8(-4096)
 558               	.LVL36:
 559 02ca 0E94 0000 		call USI_SPITransmitWord
 560               	.LVL37:
 561               	.LM58:
 562 02ce 80E0      		ldi r24,lo8(0)
 563 02d0 90E0      		ldi r25,hi8(0)
 564 02d2 0E94 0000 		call USI_SPITransmitWord
 565 02d6 80FF      		sbrs r24,0
 566 02d8 00C0      		rjmp .L60
 567 02da 00C0      		rjmp .L61
 568               	.LVL38:
 569               	.L57:
 570               	.LBB55:
 571               	.LBB56:
 572               	.LM59:
 573 02dc 2697      		sbiw r28,6
 574 02de DE01      		movw r26,r28
 575               	.LVL39:
 576               	/* #APP */
 577 02e0 0E94 0000 		call __eeprom_read_byte_1F2021
 578 02e4 802D      		mov r24,__tmp_reg__
 579               	.LVL40:
 580               	/* #NOAPP */
 581               	.LBE56:
 582               	.LBE55:
 583               	.LM60:
 584 02e6 0E94 0000 		call MAIN_Delay1MS
 585               	.LVL41:
 586               	.L60:
 587               	/* epilogue: frame size=0 */
 588 02ea DF91      		pop r29
 589 02ec CF91      		pop r28
 590 02ee 0895      		ret
 591               	/* epilogue end (size=3) */
 592               	/* function PM_SendEraseCommand size 47 (42) */
 593               	.LFE20:
 595               	.global	PM_CreateProgrammingPackets
 597               	PM_CreateProgrammingPackets:
 598               	.LFB21:
 599               	.LM61:
 600               	/* prologue: frame size=0 */
 601 02f0 3F92      		push r3
 602 02f2 4F92      		push r4
 603 02f4 5F92      		push r5
 604 02f6 6F92      		push r6
 605 02f8 7F92      		push r7
 606 02fa 8F92      		push r8
 607 02fc 9F92      		push r9
 608 02fe AF92      		push r10
 609 0300 BF92      		push r11
 610 0302 CF92      		push r12
 611 0304 DF92      		push r13
 612 0306 EF92      		push r14
 613 0308 FF92      		push r15
 614 030a 0F93      		push r16
 615 030c 1F93      		push r17
 616 030e CF93      		push r28
 617 0310 DF93      		push r29
 618               	/* prologue end (size=17) */
 619               	.LVL42:
 620 0312 182F      		mov r17,r24
 621               	.LM62:
 622 0314 0E94 0000 		call PM_GetStoredDataSize
 623               	.LVL43:
 624 0318 2B01      		movw r4,r22
 625 031a 3C01      		movw r6,r24
 626               	.LVL44:
 627               	.LM63:
 628 031c 1130      		cpi r17,lo8(1)
 629 031e 01F0      		breq .+2
 630 0320 00C0      		rjmp .L66
 631               	.LBB65:
 632               	.LBB66:
 633               	.LM64:
 634 0322 A0E0      		ldi r26,lo8(EEPROMVars+130)
 635 0324 B0E0      		ldi r27,hi8(EEPROMVars+130)
 636               	/* #APP */
 637 0326 0E94 0000 		call __eeprom_read_word_1F2021
 638               		
 639               	.LVL45:
 640               	/* #NOAPP */
 641 032a 4F01      		movw r8,r30
 642               	.LVL46:
 643               	.LBE66:
 644               	.LBE65:
 645               	.LM65:
 646 032c 1092 0000 		sts CurrAddress,__zero_reg__
 647 0330 1092 0000 		sts (CurrAddress)+1,__zero_reg__
 648 0334 1092 0000 		sts (CurrAddress)+2,__zero_reg__
 649 0338 1092 0000 		sts (CurrAddress)+3,__zero_reg__
 650               	.LM66:
 651 033c 60E0      		ldi r22,lo8(0)
 652 033e 70E0      		ldi r23,hi8(0)
 653 0340 80E0      		ldi r24,lo8(0)
 654 0342 90E0      		ldi r25,hi8(0)
 655 0344 0E94 0000 		call DF_ContinuousReadEnable
 656               	.LVL47:
 657               	.LM67:
 658 0348 83E1      		ldi r24,lo8(19)
 659 034a 8093 0000 		sts PacketBytes,r24
 660 034e 20E0      		ldi r18,lo8(EEPROMVars+3)
 661 0350 30E0      		ldi r19,hi8(EEPROMVars+3)
 662               	.LVL48:
 663               	.L68:
 664 0352 E0E0      		ldi r30,lo8(PacketBytes+1)
 665 0354 F0E0      		ldi r31,hi8(PacketBytes+1)
 666               	.L69:
 667               	.LBB67:
 668               	.LBB68:
 669               	.LBB69:
 670               	.LM68:
 671 0356 D901      		movw r26,r18
 672               	.LVL49:
 673               	/* #APP */
 674 0358 0E94 0000 		call __eeprom_read_byte_1F2021
 675 035c 802D      		mov r24,__tmp_reg__
 676               	.LVL50:
 677               	/* #NOAPP */
 678               	.LBE69:
 679               	.LBE68:
 680               	.LM69:
 681 035e 8193      		st Z+,r24
 682               	.LM70:
 683 0360 2F5F      		subi r18,lo8(-(1))
 684 0362 3F4F      		sbci r19,hi8(-(1))
 685               	.LM71:
 686 0364 80E0      		ldi r24,hi8(PacketBytes+10)
 687 0366 E030      		cpi r30,lo8(PacketBytes+10)
 688 0368 F807      		cpc r31,r24
 689               	.LVL51:
 690 036a 01F4      		brne .L69
 691               	.LBE67:
 692               	.LM72:
 693 036c 8091 0000 		lds r24,PacketBytes+1
 694 0370 9927      		clr r25
 695 0372 D82F      		mov r29,r24
 696 0374 CC27      		clr r28
 697               	.LVL52:
 698 0376 8091 0000 		lds r24,PacketBytes+2
 699 037a 9927      		clr r25
 700 037c C82B      		or r28,r24
 701 037e D92B      		or r29,r25
 702 0380 AA24      		clr r10
 703 0382 BB24      		clr r11
 704 0384 6501      		movw r12,r10
 705               	.LVL53:
 706 0386 3324      		clr r3
 707               	.LVL54:
 708 0388 00C0      		rjmp .L71
 709               	.L72:
 710               	.LM73:
 711 038a 8091 0000 		lds r24,PacketBytes+3
 712 038e 80FF      		sbrs r24,0
 713 0390 00C0      		rjmp .L73
 714               	.LM74:
 715 0392 91EA      		ldi r25,lo8(161)
 716 0394 8916      		cp r8,r25
 717 0396 9104      		cpc r9,__zero_reg__
 718 0398 00F4      		brsh .L75
 719 039a 00E0      		ldi r16,lo8(PacketBytes)
 720 039c 10E0      		ldi r17,hi8(PacketBytes)
 721 039e 00C0      		rjmp .L77
 722               	.L75:
 723               	.LM75:
 724 03a0 3320      		tst r3
 725 03a2 01F4      		brne .L78
 726               	.LM76:
 727 03a4 8F77      		andi r24,lo8(127)
 728 03a6 8093 0000 		sts PacketBytes+3,r24
 729 03aa C0EA      		ldi r28,lo8(160)
 730 03ac D0E0      		ldi r29,hi8(160)
 731 03ae 11E0      		ldi r17,lo8(1)
 732 03b0 312E      		mov r3,r17
 733               	.LVL55:
 734 03b2 00C0      		rjmp .L80
 735               	.LVL56:
 736               	.L78:
 737               	.LM77:
 738 03b4 E401      		movw r28,r8
 739 03b6 C05A      		subi r28,lo8(-(-160))
 740 03b8 D040      		sbci r29,hi8(-(-160))
 741               	.LM78:
 742 03ba 8068      		ori r24,lo8(-128)
 743 03bc 8093 0000 		sts PacketBytes+3,r24
 744 03c0 3324      		clr r3
 745               	.L80:
 746 03c2 00E0      		ldi r16,lo8(PacketBytes)
 747 03c4 10E0      		ldi r17,hi8(PacketBytes)
 748 03c6 00C0      		rjmp .L81
 749               	.L82:
 750               	.LBB70:
 751               	.LM79:
 752 03c8 80E0      		ldi r24,lo8(0)
 753 03ca 0E94 0000 		call SPI_SPITransmit
 754               	.LVL57:
 755 03ce F801      		movw r30,r16
 756 03d0 8287      		std Z+10,r24
 757 03d2 0F5F      		subi r16,lo8(-(1))
 758 03d4 1F4F      		sbci r17,hi8(-(1))
 759               	.LVL58:
 760               	.L81:
 761               	.LM80:
 762 03d6 CE01      		movw r24,r28
 763 03d8 8050      		subi r24,lo8(-(PacketBytes))
 764 03da 9040      		sbci r25,hi8(-(PacketBytes))
 765 03dc 0817      		cp r16,r24
 766 03de 1907      		cpc r17,r25
 767 03e0 01F4      		brne .L82
 768               	.LBE70:
 769               	.LM81:
 770 03e2 8D2F      		mov r24,r29
 771 03e4 9927      		clr r25
 772 03e6 8093 0000 		sts PacketBytes+1,r24
 773               	.LM82:
 774 03ea C093 0000 		sts PacketBytes+2,r28
 775 03ee 00C0      		rjmp .L100
 776               	.L85:
 777               	.LBB71:
 778               	.LM83:
 779 03f0 80E0      		ldi r24,lo8(0)
 780 03f2 0E94 0000 		call SPI_SPITransmit
 781               	.LVL59:
 782 03f6 F801      		movw r30,r16
 783 03f8 8287      		std Z+10,r24
 784 03fa 0F5F      		subi r16,lo8(-(1))
 785 03fc 1F4F      		sbci r17,hi8(-(1))
 786               	.LVL60:
 787               	.L77:
 788               	.LM84:
 789 03fe C401      		movw r24,r8
 790 0400 8050      		subi r24,lo8(-(PacketBytes))
 791 0402 9040      		sbci r25,hi8(-(PacketBytes))
 792 0404 0817      		cp r16,r24
 793 0406 1907      		cpc r17,r25
 794 0408 01F4      		brne .L85
 795               	.LBE71:
 796               	.LM85:
 797 040a 892D      		mov r24,r9
 798 040c 9927      		clr r25
 799               	.LVL61:
 800 040e 8093 0000 		sts PacketBytes+1,r24
 801               	.LM86:
 802 0412 8092 0000 		sts PacketBytes+2,r8
 803               	.LM87:
 804 0416 8091 0000 		lds r24,PacketBytes+3
 805 041a 8068      		ori r24,lo8(-128)
 806 041c 8093 0000 		sts PacketBytes+3,r24
 807               	.LM88:
 808 0420 C401      		movw r24,r8
 809 0422 AA27      		clr r26
 810 0424 BB27      		clr r27
 811 0426 00C0      		rjmp .L101
 812               	.LVL62:
 813               	.L73:
 814               	.LM89:
 815 0428 CE01      		movw r24,r28
 816 042a AA27      		clr r26
 817 042c BB27      		clr r27
 818 042e 8A0D      		add r24,r10
 819 0430 9B1D      		adc r25,r11
 820 0432 AC1D      		adc r26,r12
 821 0434 BD1D      		adc r27,r13
 822 0436 4816      		cp r4,r24
 823 0438 5906      		cpc r5,r25
 824 043a 6A06      		cpc r6,r26
 825 043c 7B06      		cpc r7,r27
 826 043e 00F4      		brsh .L87
 827               	.LVL63:
 828               	.LVL64:
 829               	.LM90:
 830 0440 E201      		movw r28,r4
 831 0442 CA19      		sub r28,r10
 832 0444 DB09      		sbc r29,r11
 833               	.LM91:
 834 0446 8D2F      		mov r24,r29
 835 0448 9927      		clr r25
 836               	.LVL65:
 837 044a 8093 0000 		sts PacketBytes+1,r24
 838               	.LM92:
 839 044e C093 0000 		sts PacketBytes+2,r28
 840               	.LVL66:
 841               	.L87:
 842 0452 00E0      		ldi r16,lo8(PacketBytes)
 843 0454 10E0      		ldi r17,hi8(PacketBytes)
 844 0456 00C0      		rjmp .L89
 845               	.LVL67:
 846               	.L90:
 847               	.LBB72:
 848               	.LM93:
 849 0458 80E0      		ldi r24,lo8(0)
 850 045a 0E94 0000 		call SPI_SPITransmit
 851               	.LVL68:
 852 045e F801      		movw r30,r16
 853 0460 8287      		std Z+10,r24
 854 0462 0F5F      		subi r16,lo8(-(1))
 855 0464 1F4F      		sbci r17,hi8(-(1))
 856               	.LVL69:
 857               	.L89:
 858               	.LM94:
 859 0466 CE01      		movw r24,r28
 860 0468 8050      		subi r24,lo8(-(PacketBytes))
 861 046a 9040      		sbci r25,hi8(-(PacketBytes))
 862 046c 0817      		cp r16,r24
 863 046e 1907      		cpc r17,r25
 864 0470 01F4      		brne .L90
 865               	.L100:
 866               	.LBE72:
 867               	.LM95:
 868 0472 CE01      		movw r24,r28
 869 0474 AA27      		clr r26
 870 0476 BB27      		clr r27
 871               	.LVL70:
 872               	.L101:
 873 0478 A80E      		add r10,r24
 874 047a B91E      		adc r11,r25
 875 047c CA1E      		adc r12,r26
 876 047e DB1E      		adc r13,r27
 877               	.LM96:
 878 0480 A114      		cp r10,__zero_reg__
 879 0482 B104      		cpc r11,__zero_reg__
 880 0484 01F4      		brne .L92
 881               	.LVL71:
 882 0486 E12C      		mov r14,__zero_reg__
 883 0488 F12C      		mov r15,__zero_reg__
 884 048a EFEF      		ldi r30,hlo8(16711680)
 885 048c 0E2F      		mov r16,r30
 886 048e 112D      		mov r17,__zero_reg__
 887 0490 EA20      		and r14,r10
 888 0492 FB20      		and r15,r11
 889 0494 0C21      		and r16,r12
 890 0496 1D21      		and r17,r13
 891 0498 E114      		cp r14,__zero_reg__
 892 049a F104      		cpc r15,__zero_reg__
 893 049c 0105      		cpc r16,__zero_reg__
 894 049e 1105      		cpc r17,__zero_reg__
 895 04a0 01F0      		breq .L92
 896               	.LM97:
 897 04a2 8DE4      		ldi r24,lo8(77)
 898               	.LVL72:
 899 04a4 0E94 0000 		call USI_SPITransmit
 900               	.LVL73:
 901               	.LM98:
 902 04a8 80E0      		ldi r24,lo8(0)
 903 04aa 0E94 0000 		call USI_SPITransmit
 904               	.LM99:
 905 04ae C801      		movw r24,r16
 906 04b0 AA27      		clr r26
 907 04b2 BB27      		clr r27
 908 04b4 0E94 0000 		call USI_SPITransmit
 909               	.LM100:
 910 04b8 80E0      		ldi r24,lo8(0)
 911 04ba 0E94 0000 		call USI_SPITransmit
 912               	.LVL74:
 913               	.L92:
 914               	.LM101:
 915 04be 0E94 0000 		call ISPCC_ProgramChip
 916               	.LVL75:
 917               	.L71:
 918               	.LM102:
 919 04c2 A414      		cp r10,r4
 920 04c4 B504      		cpc r11,r5
 921 04c6 C604      		cpc r12,r6
 922 04c8 D704      		cpc r13,r7
 923 04ca 00F4      		brsh .+2
 924 04cc 00C0      		rjmp .L72
 925 04ce 00C0      		rjmp .L99
 926               	.LVL76:
 927               	.L66:
 928               	.LBB73:
 929               	.LBB74:
 930               	.LM103:
 931 04d0 A0E0      		ldi r26,lo8(EEPROMVars+132)
 932 04d2 B0E0      		ldi r27,hi8(EEPROMVars+132)
 933               	/* #APP */
 934 04d4 0E94 0000 		call __eeprom_read_word_1F2021
 935               		
 936               	.LVL77:
 937               	/* #NOAPP */
 938 04d8 4F01      		movw r8,r30
 939               	.LVL78:
 940               	.LBE74:
 941               	.LBE73:
 942               	.LM104:
 943 04da 1092 0000 		sts CurrAddress,__zero_reg__
 944 04de 1092 0000 		sts (CurrAddress)+1,__zero_reg__
 945 04e2 1092 0000 		sts (CurrAddress)+2,__zero_reg__
 946 04e6 1092 0000 		sts (CurrAddress)+3,__zero_reg__
 947               	.LM105:
 948 04ea 60EE      		ldi r22,lo8(224)
 949 04ec 70E0      		ldi r23,hi8(224)
 950 04ee 84EE      		ldi r24,lo8(996)
 951 04f0 93E0      		ldi r25,hi8(996)
 952 04f2 0E94 0000 		call DF_ContinuousReadEnable
 953               	.LVL79:
 954               	.LM106:
 955 04f6 85E1      		ldi r24,lo8(21)
 956 04f8 8093 0000 		sts PacketBytes,r24
 957 04fc 20E0      		ldi r18,lo8(EEPROMVars+12)
 958 04fe 30E0      		ldi r19,hi8(EEPROMVars+12)
 959               	.LVL80:
 960 0500 00C0      		rjmp .L68
 961               	.LVL81:
 962               	.L99:
 963               	/* epilogue: frame size=0 */
 964 0502 DF91      		pop r29
 965 0504 CF91      		pop r28
 966 0506 1F91      		pop r17
 967 0508 0F91      		pop r16
 968 050a FF90      		pop r15
 969 050c EF90      		pop r14
 970 050e DF90      		pop r13
 971 0510 CF90      		pop r12
 972 0512 BF90      		pop r11
 973 0514 AF90      		pop r10
 974 0516 9F90      		pop r9
 975 0518 8F90      		pop r8
 976 051a 7F90      		pop r7
 977 051c 6F90      		pop r6
 978 051e 5F90      		pop r5
 979 0520 4F90      		pop r4
 980 0522 3F90      		pop r3
 981 0524 0895      		ret
 982               	/* epilogue end (size=18) */
 983               	/* function PM_CreateProgrammingPackets size 288 (253) */
 984               	.LFE21:
 986               	.global	PM_ShowStoredItemSizes
 988               	PM_ShowStoredItemSizes:
 989               	.LFB22:
 990               	.LM107:
 991               	/* prologue: frame size=14 */
 992 0526 1F93      		push r17
 993 0528 CF93      		push r28
 994 052a DF93      		push r29
 995 052c CDB7      		in r28,__SP_L__
 996 052e DEB7      		in r29,__SP_H__
 997 0530 2E97      		sbiw r28,14
 998 0532 0FB6      		in __tmp_reg__,__SREG__
 999 0534 F894      		cli
 1000 0536 DEBF      		out __SP_H__,r29
 1001 0538 0FBE      		out __SREG__,__tmp_reg__
 1002 053a CDBF      		out __SP_L__,r28
 1003               	/* prologue end (size=11) */
 1004               	.LM108:
 1005 053c 81E0      		ldi r24,lo8(1)
 1006 053e 8EBB      		out 62-0x20,r24
 1007 0540 10E0      		ldi r17,lo8(0)
 1008               	.LVL82:
 1009               	.L135:
 1010               	.LM109:
 1011 0542 8EB3      		in r24,62-0x20
 1012 0544 8823      		tst r24
 1013 0546 01F0      		breq .L135
 1014               	.LM110:
 1015 0548 F69B      		sbis 62-0x20,6
 1016 054a 00C0      		rjmp .L105
 1017               	.LM111:
 1018 054c 1123      		tst r17
 1019 054e 01F0      		breq .L107
 1020 0550 1150      		subi r17,lo8(-(-1))
 1021 0552 00C0      		rjmp .L109
 1022               	.L105:
 1023               	.LM112:
 1024 0554 F79B      		sbis 62-0x20,7
 1025 0556 00C0      		rjmp .L110
 1026               	.LM113:
 1027 0558 1330      		cpi r17,lo8(3)
 1028 055a 01F4      		brne .L112
 1029 055c 10E0      		ldi r17,lo8(0)
 1030 055e 00C0      		rjmp .L114
 1031               	.L112:
 1032 0560 1F5F      		subi r17,lo8(-(1))
 1033 0562 00C0      		rjmp .L109
 1034               	.L110:
 1035               	.LM114:
 1036 0564 F299      		sbic 62-0x20,2
 1037 0566 00C0      		rjmp .L126
 1038               	.L109:
 1039               	.LM115:
 1040 0568 1130      		cpi r17,lo8(1)
 1041 056a 01F0      		breq .L117
 1042 056c 1130      		cpi r17,lo8(1)
 1043 056e 00F0      		brlo .L114
 1044 0570 1230      		cpi r17,lo8(2)
 1045 0572 01F0      		breq .L118
 1046 0574 1330      		cpi r17,lo8(3)
 1047 0576 01F4      		brne .L116
 1048 0578 00C0      		rjmp .L119
 1049               	.L114:
 1050               	.LM116:
 1051 057a 60E0      		ldi r22,lo8(__c.2130)
 1052 057c 70E0      		ldi r23,hi8(__c.2130)
 1053 057e CE01      		movw r24,r28
 1054 0580 0196      		adiw r24,1
 1055 0582 0E94 0000 		call strcpy_P
 1056               	.LM117:
 1057 0586 81E0      		ldi r24,lo8(1)
 1058 0588 00C0      		rjmp .L132
 1059               	.L117:
 1060               	.LM118:
 1061 058a 60E0      		ldi r22,lo8(__c.2134)
 1062 058c 70E0      		ldi r23,hi8(__c.2134)
 1063 058e CE01      		movw r24,r28
 1064 0590 0196      		adiw r24,1
 1065 0592 0E94 0000 		call strcpy_P
 1066               	.LM119:
 1067 0596 80E0      		ldi r24,lo8(0)
 1068               	.L132:
 1069 0598 0E94 0000 		call PM_GetStoredDataSize
 1070 059c 2AE0      		ldi r18,lo8(10)
 1071 059e 30E0      		ldi r19,hi8(10)
 1072 05a0 AE01      		movw r20,r28
 1073 05a2 4A5F      		subi r20,lo8(-(6))
 1074 05a4 5F4F      		sbci r21,hi8(-(6))
 1075 05a6 0E94 0000 		call ultoa
 1076 05aa 00C0      		rjmp .L116
 1077               	.L118:
 1078               	.LM120:
 1079 05ac 60E0      		ldi r22,lo8(__c.2137)
 1080 05ae 70E0      		ldi r23,hi8(__c.2137)
 1081 05b0 CE01      		movw r24,r28
 1082 05b2 0196      		adiw r24,1
 1083 05b4 0E94 0000 		call strcpy_P
 1084               	.LBB83:
 1085               	.LBB84:
 1086               	.LM121:
 1087 05b8 A0E0      		ldi r26,lo8(EEPROMVars+48)
 1088 05ba B0E0      		ldi r27,hi8(EEPROMVars+48)
 1089 05bc 00C0      		rjmp .L134
 1090               	.L107:
 1091               	.LBE84:
 1092               	.LBE83:
 1093               	.LM122:
 1094 05be 13E0      		ldi r17,lo8(3)
 1095               	.L119:
 1096               	.LM123:
 1097 05c0 60E0      		ldi r22,lo8(__c.2140)
 1098 05c2 70E0      		ldi r23,hi8(__c.2140)
 1099 05c4 CE01      		movw r24,r28
 1100 05c6 0196      		adiw r24,1
 1101 05c8 0E94 0000 		call strcpy_P
 1102               	.LBB85:
 1103               	.LBB86:
 1104               	.LM124:
 1105 05cc A0E0      		ldi r26,lo8(EEPROMVars+49)
 1106 05ce B0E0      		ldi r27,hi8(EEPROMVars+49)
 1107               	.L134:
 1108               	/* #APP */
 1109 05d0 0E94 0000 		call __eeprom_read_byte_1F2021
 1110 05d4 802D      		mov r24,__tmp_reg__
 1111               	.LVL83:
 1112               	.LVL84:
 1113               	/* #NOAPP */
 1114               	.LBE86:
 1115               	.LBE85:
 1116               	.LM125:
 1117 05d6 8F3F      		cpi r24,lo8(-1)
 1118 05d8 01F4      		brne .L123
 1119 05da 80E0      		ldi r24,lo8(0)
 1120 05dc 90E0      		ldi r25,hi8(0)
 1121               	.LVL85:
 1122 05de 00C0      		rjmp .L125
 1123               	.LVL86:
 1124               	.L123:
 1125 05e0 9927      		clr r25
 1126               	.LVL87:
 1127               	.L125:
 1128 05e2 BE01      		movw r22,r28
 1129 05e4 6A5F      		subi r22,lo8(-(6))
 1130 05e6 7F4F      		sbci r23,hi8(-(6))
 1131 05e8 0E94 0000 		call MAIN_IntToStr
 1132               	.LVL88:
 1133               	.L116:
 1134               	.LM126:
 1135 05ec CE01      		movw r24,r28
 1136 05ee 0196      		adiw r24,1
 1137 05f0 0E94 0000 		call LCD_puts
 1138               	.LM127:
 1139 05f4 0E94 0000 		call MAIN_WaitForJoyRelease
 1140 05f8 00C0      		rjmp .L135
 1141               	.L126:
 1142               	/* epilogue: frame size=14 */
 1143 05fa 2E96      		adiw r28,14
 1144 05fc 0FB6      		in __tmp_reg__,__SREG__
 1145 05fe F894      		cli
 1146 0600 DEBF      		out __SP_H__,r29
 1147 0602 0FBE      		out __SREG__,__tmp_reg__
 1148 0604 CDBF      		out __SP_L__,r28
 1149 0606 DF91      		pop r29
 1150 0608 CF91      		pop r28
 1151 060a 1F91      		pop r17
 1152 060c 0895      		ret
 1153               	/* epilogue end (size=10) */
 1154               	/* function PM_ShowStoredItemSizes size 117 (96) */
 1155               	.LFE22:
 1157               	.global	PM_InterpretAVRISPPacket
 1159               	PM_InterpretAVRISPPacket:
 1160               	.LFB17:
 1161               	.LM128:
 1162               	/* prologue: frame size=0 */
 1163 060e EF92      		push r14
 1164 0610 FF92      		push r15
 1165 0612 0F93      		push r16
 1166 0614 1F93      		push r17
 1167 0616 CF93      		push r28
 1168 0618 DF93      		push r29
 1169               	/* prologue end (size=6) */
 1170               	.LM129:
 1171 061a 2091 0000 		lds r18,PacketBytes
 1172 061e 2631      		cpi r18,lo8(22)
 1173 0620 01F4      		brne .+2
 1174 0622 00C0      		rjmp .L142
 1175               	.LM130:
 1176 0624 2731      		cpi r18,lo8(23)
 1177 0626 00F4      		brsh .L147
 1178 0628 2231      		cpi r18,lo8(18)
 1179 062a 01F4      		brne .+2
 1180 062c 00C0      		rjmp .L140
 1181 062e 2331      		cpi r18,lo8(19)
 1182 0630 00F4      		brsh .L148
 1183 0632 2031      		cpi r18,lo8(16)
 1184 0634 01F0      		breq .L138
 1185 0636 2131      		cpi r18,lo8(17)
 1186 0638 01F0      		breq .+2
 1187 063a 00C0      		rjmp .L137
 1188 063c 00C0      		rjmp .L139
 1189               	.L148:
 1190 063e 2431      		cpi r18,lo8(20)
 1191 0640 01F0      		breq .+2
 1192 0642 00C0      		rjmp .L209
 1193 0644 00C0      		rjmp .L142
 1194               	.L147:
 1195 0646 2931      		cpi r18,lo8(25)
 1196 0648 01F4      		brne .+2
 1197 064a 00C0      		rjmp .L143
 1198 064c 2A31      		cpi r18,lo8(26)
 1199 064e 00F4      		brsh .L149
 1200 0650 2731      		cpi r18,lo8(23)
 1201 0652 01F4      		brne .+2
 1202 0654 00C0      		rjmp .L143
 1203 0656 2831      		cpi r18,lo8(24)
 1204 0658 01F0      		breq .+2
 1205 065a 00C0      		rjmp .L137
 1206 065c 00C0      		rjmp .L144
 1207               	.L149:
 1208 065e 2B31      		cpi r18,lo8(27)
 1209 0660 01F0      		breq .L145
 1210 0662 2B31      		cpi r18,lo8(27)
 1211 0664 00F4      		brsh .+2
 1212 0666 00C0      		rjmp .L144
 1213 0668 2C31      		cpi r18,lo8(28)
 1214 066a 01F0      		breq .+2
 1215 066c 00C0      		rjmp .L137
 1216 066e 00C0      		rjmp .L146
 1217               	.L138:
 1218               	.LBB115:
 1219               	.LM131:
 1220 0670 82E0      		ldi r24,lo8(2)
 1221 0672 90E0      		ldi r25,hi8(2)
 1222 0674 9093 0000 		sts (MessageSize)+1,r25
 1223 0678 8093 0000 		sts MessageSize,r24
 1224 067c E0E0      		ldi r30,lo8(PacketBytes)
 1225 067e F0E0      		ldi r31,hi8(PacketBytes)
 1226 0680 20E0      		ldi r18,lo8(EEPROMVars+36)
 1227 0682 30E0      		ldi r19,hi8(EEPROMVars+36)
 1228               	.L150:
 1229               	.LBB116:
 1230               	.LBB117:
 1231               	.LBB118:
 1232               	.LM132:
 1233 0684 8191      		ld r24,Z+
 1234 0686 D901      		movw r26,r18
 1235               	.LVL89:
 1236               	/* #APP */
 1237 0688 082E      		mov __tmp_reg__,r24
 1238 068a 0E94 0000 		call __eeprom_write_byte_1F2021
 1239               	/* #NOAPP */
 1240 068e 2F5F      		subi r18,lo8(-(1))
 1241 0690 3F4F      		sbci r19,hi8(-(1))
 1242               	.LBE118:
 1243               	.LBE117:
 1244               	.LM133:
 1245 0692 80E0      		ldi r24,hi8(PacketBytes+12)
 1246 0694 E030      		cpi r30,lo8(PacketBytes+12)
 1247 0696 F807      		cpc r31,r24
 1248 0698 01F4      		brne .L150
 1249               	.LBE116:
 1250               	.LM134:
 1251 069a 81E0      		ldi r24,lo8(1)
 1252 069c 8093 0000 		sts InProgrammingMode,r24
 1253               	.LM135:
 1254 06a0 1092 0000 		sts CurrentMode,__zero_reg__
 1255               	.LM136:
 1256 06a4 81B3      		in r24,49-0x20
 1257 06a6 8F7C      		andi r24,lo8(-49)
 1258 06a8 8062      		ori r24,lo8(32)
 1259 06aa 00C0      		rjmp .L216
 1260               	.LVL90:
 1261               	.L139:
 1262               	.LM137:
 1263 06ac 82E0      		ldi r24,lo8(2)
 1264 06ae 90E0      		ldi r25,hi8(2)
 1265 06b0 9093 0000 		sts (MessageSize)+1,r25
 1266 06b4 8093 0000 		sts MessageSize,r24
 1267               	.LM138:
 1268 06b8 0E94 0000 		call PM_CheckEndOfFuseLockData
 1269               	.LM139:
 1270 06bc 1092 0000 		sts InProgrammingMode,__zero_reg__
 1271               	.LM140:
 1272 06c0 80E0      		ldi r24,lo8(0)
 1273 06c2 0E94 0000 		call DF_EnableDataflash
 1274               	.LM141:
 1275 06c6 81B3      		in r24,49-0x20
 1276 06c8 8F7C      		andi r24,lo8(-49)
 1277 06ca 8061      		ori r24,lo8(16)
 1278               	.LVL91:
 1279               	.L216:
 1280 06cc 81BB      		out 49-0x20,r24
 1281               	.LVL92:
 1282               	.L218:
 1283               	.LM142:
 1284 06ce 1092 0000 		sts PacketBytes+1,__zero_reg__
 1285 06d2 00C0      		rjmp .L152
 1286               	.LVL93:
 1287               	.L145:
 1288               	.LM143:
 1289 06d4 84E0      		ldi r24,lo8(4)
 1290 06d6 90E0      		ldi r25,hi8(4)
 1291 06d8 9093 0000 		sts (MessageSize)+1,r25
 1292 06dc 8093 0000 		sts MessageSize,r24
 1293               	.LM144:
 1294 06e0 1092 0000 		sts PacketBytes+1,__zero_reg__
 1295               	.LM145:
 1296 06e4 81E0      		ldi r24,lo8(1)
 1297 06e6 8093 0000 		sts PacketBytes+2,r24
 1298 06ea 00C0      		rjmp .L217
 1299               	.L140:
 1300               	.LM146:
 1301 06ec 82E0      		ldi r24,lo8(2)
 1302 06ee 90E0      		ldi r25,hi8(2)
 1303 06f0 9093 0000 		sts (MessageSize)+1,r25
 1304 06f4 8093 0000 		sts MessageSize,r24
 1305 06f8 E0E0      		ldi r30,lo8(PacketBytes+1)
 1306 06fa F0E0      		ldi r31,hi8(PacketBytes+1)
 1307 06fc 20E0      		ldi r18,lo8(EEPROMVars+23)
 1308 06fe 30E0      		ldi r19,hi8(EEPROMVars+23)
 1309               	.L153:
 1310               	.LBB119:
 1311               	.LBB120:
 1312               	.LBB121:
 1313               	.LM147:
 1314 0700 8191      		ld r24,Z+
 1315 0702 D901      		movw r26,r18
 1316               	.LVL94:
 1317               	/* #APP */
 1318 0704 082E      		mov __tmp_reg__,r24
 1319 0706 0E94 0000 		call __eeprom_write_byte_1F2021
 1320               	/* #NOAPP */
 1321 070a 2F5F      		subi r18,lo8(-(1))
 1322 070c 3F4F      		sbci r19,hi8(-(1))
 1323               	.LBE121:
 1324               	.LBE120:
 1325               	.LM148:
 1326 070e 90E0      		ldi r25,hi8(PacketBytes+7)
 1327 0710 E030      		cpi r30,lo8(PacketBytes+7)
 1328 0712 F907      		cpc r31,r25
 1329 0714 01F4      		brne .L153
 1330 0716 20E0      		ldi r18,lo8(EEPROMVars+28)
 1331 0718 30E0      		ldi r19,hi8(EEPROMVars+28)
 1332 071a 80E0      		ldi r24,lo8(0)
 1333               	.L155:
 1334               	.LBE119:
 1335               	.LBB122:
 1336               	.LBB123:
 1337               	.LBB124:
 1338               	.LM149:
 1339 071c D901      		movw r26,r18
 1340               	.LVL95:
 1341               	/* #APP */
 1342 071e 082E      		mov __tmp_reg__,r24
 1343 0720 0E94 0000 		call __eeprom_write_byte_1F2021
 1344               	/* #NOAPP */
 1345 0724 D901      		movw r26,r18
 1346               	.LVL96:
 1347 0726 1496      		adiw r26,4
 1348               	.LBE124:
 1349               	.LBE123:
 1350               	.LBB125:
 1351               	.LBB126:
 1352               	/* #APP */
 1353 0728 082E      		mov __tmp_reg__,r24
 1354 072a 0E94 0000 		call __eeprom_write_byte_1F2021
 1355               	/* #NOAPP */
 1356 072e 2F5F      		subi r18,lo8(-(1))
 1357 0730 3F4F      		sbci r19,hi8(-(1))
 1358               	.LBE126:
 1359               	.LBE125:
 1360               	.LM150:
 1361 0732 E0E0      		ldi r30,hi8(EEPROMVars+36)
 1362 0734 2030      		cpi r18,lo8(EEPROMVars+36)
 1363 0736 3E07      		cpc r19,r30
 1364 0738 01F4      		brne .L155
 1365               	.LBE122:
 1366               	.LBB127:
 1367               	.LBB128:
 1368               	.LM151:
 1369 073a 81E0      		ldi r24,lo8(1)
 1370 073c 2F50      		subi r18,lo8(-(-15))
 1371 073e 3040      		sbci r19,hi8(-(-15))
 1372 0740 D901      		movw r26,r18
 1373               	.LVL97:
 1374               	/* #APP */
 1375 0742 082E      		mov __tmp_reg__,r24
 1376 0744 0E94 0000 		call __eeprom_write_byte_1F2021
 1377               	/* #NOAPP */
 1378 0748 00C0      		rjmp .L218
 1379               	.LVL98:
 1380               	.L146:
 1381               	.LBE128:
 1382               	.LBE127:
 1383               	.LM152:
 1384 074a 84E0      		ldi r24,lo8(4)
 1385 074c 90E0      		ldi r25,hi8(4)
 1386 074e 9093 0000 		sts (MessageSize)+1,r25
 1387 0752 8093 0000 		sts MessageSize,r24
 1388               	.LM153:
 1389 0756 1092 0000 		sts PacketBytes+1,__zero_reg__
 1390               	.LM154:
 1391 075a 1092 0000 		sts PacketBytes+2,__zero_reg__
 1392               	.L217:
 1393               	.LM155:
 1394 075e 1092 0000 		sts PacketBytes+3,__zero_reg__
 1395 0762 00C0      		rjmp .L152
 1396               	.L144:
 1397               	.LM156:
 1398 0764 84E0      		ldi r24,lo8(4)
 1399 0766 90E0      		ldi r25,hi8(4)
 1400 0768 9093 0000 		sts (MessageSize)+1,r25
 1401 076c 8093 0000 		sts MessageSize,r24
 1402               	.LM157:
 1403 0770 8091 0000 		lds r24,CurrentMode
 1404 0774 8430      		cpi r24,lo8(4)
 1405 0776 01F0      		breq .L157
 1406               	.LM158:
 1407 0778 0E94 0000 		call PM_CheckEndOfFuseLockData
 1408               	.LM159:
 1409 077c 1092 0000 		sts (CurrBuffByte)+1,__zero_reg__
 1410 0780 1092 0000 		sts CurrBuffByte,__zero_reg__
 1411               	.LM160:
 1412 0784 84E0      		ldi r24,lo8(4)
 1413 0786 8093 0000 		sts CurrentMode,r24
 1414               	.L157:
 1415               	.LM161:
 1416 078a 4091 0000 		lds r20,CurrBuffByte
 1417 078e 5091 0000 		lds r21,(CurrBuffByte)+1
 1418 0792 2091 0000 		lds r18,PacketBytes
 1419 0796 2831      		cpi r18,lo8(24)
 1420 0798 01F0      		breq .L159
 1421 079a A0E0      		ldi r26,lo8(EEPROMVars+49)
 1422 079c B0E0      		ldi r27,hi8(EEPROMVars+49)
 1423 079e 00C0      		rjmp .L161
 1424               	.L159:
 1425 07a0 A0E0      		ldi r26,lo8(EEPROMVars+48)
 1426 07a2 B0E0      		ldi r27,hi8(EEPROMVars+48)
 1427               	.L161:
 1428               	.LBB129:
 1429               	.LBB130:
 1430               	.LM162:
 1431               	/* #APP */
 1432 07a4 0E94 0000 		call __eeprom_read_byte_1F2021
 1433 07a8 802D      		mov r24,__tmp_reg__
 1434               	.LVL99:
 1435               	/* #NOAPP */
 1436               	.LBE130:
 1437               	.LBE129:
 1438               	.LM163:
 1439 07aa 9927      		clr r25
 1440 07ac 8417      		cp r24,r20
 1441 07ae 9507      		cpc r25,r21
 1442 07b0 00F4      		brsh .L162
 1443               	.LM164:
 1444 07b2 8FEF      		ldi r24,lo8(-1)
 1445               	.LVL100:
 1446 07b4 00C0      		rjmp .L214
 1447               	.LVL101:
 1448               	.L162:
 1449               	.LM165:
 1450 07b6 2831      		cpi r18,lo8(24)
 1451 07b8 01F4      		brne .L165
 1452 07ba 20E0      		ldi r18,lo8(EEPROMVars+50)
 1453 07bc 30E0      		ldi r19,hi8(EEPROMVars+50)
 1454 07be 00C0      		rjmp .L167
 1455               	.L165:
 1456 07c0 20E0      		ldi r18,lo8(EEPROMVars+90)
 1457 07c2 30E0      		ldi r19,hi8(EEPROMVars+90)
 1458               	.L167:
 1459 07c4 80EA      		ldi r24,lo8(160)
 1460 07c6 90E0      		ldi r25,hi8(160)
 1461               	.LVL102:
 1462 07c8 489F      		mul r20,r24
 1463 07ca D001      		movw r26,r0
 1464 07cc 499F      		mul r20,r25
 1465 07ce B00D      		add r27,r0
 1466 07d0 589F      		mul r21,r24
 1467 07d2 B00D      		add r27,r0
 1468 07d4 1124      		clr r1
 1469               	.LVL103:
 1470 07d6 A20F      		add r26,r18
 1471 07d8 B31F      		adc r27,r19
 1472 07da 8091 0000 		lds r24,PacketBytes+1
 1473 07de 28E2      		ldi r18,lo8(40)
 1474 07e0 829F      		mul r24,r18
 1475 07e2 C001      		movw r24,r0
 1476 07e4 1124      		clr r1
 1477 07e6 A80F      		add r26,r24
 1478 07e8 B91F      		adc r27,r25
 1479 07ea 9897      		sbiw r26,40
 1480               	.LBB131:
 1481               	.LBB132:
 1482               	.LM166:
 1483               	/* #APP */
 1484 07ec 0E94 0000 		call __eeprom_read_byte_1F2021
 1485 07f0 802D      		mov r24,__tmp_reg__
 1486               	.LVL104:
 1487               	/* #NOAPP */
 1488               	.L214:
 1489               	.LBE132:
 1490               	.LBE131:
 1491               	.LM167:
 1492 07f2 8093 0000 		sts PacketBytes+2,r24
 1493               	.LM168:
 1494 07f6 1092 0000 		sts PacketBytes+1,__zero_reg__
 1495               	.LM169:
 1496 07fa 1092 0000 		sts PacketBytes+3,__zero_reg__
 1497               	.LM170:
 1498 07fe 4F5F      		subi r20,lo8(-(1))
 1499 0800 5F4F      		sbci r21,hi8(-(1))
 1500 0802 5093 0000 		sts (CurrBuffByte)+1,r21
 1501 0806 4093 0000 		sts CurrBuffByte,r20
 1502 080a 00C0      		rjmp .L152
 1503               	.LVL105:
 1504               	.L143:
 1505               	.LM171:
 1506 080c 83E0      		ldi r24,lo8(3)
 1507 080e 90E0      		ldi r25,hi8(3)
 1508 0810 9093 0000 		sts (MessageSize)+1,r25
 1509 0814 8093 0000 		sts MessageSize,r24
 1510               	.LM172:
 1511 0818 8091 0000 		lds r24,CurrentMode
 1512 081c 8330      		cpi r24,lo8(3)
 1513 081e 01F0      		breq .L168
 1514               	.LM173:
 1515 0820 83E0      		ldi r24,lo8(3)
 1516 0822 8093 0000 		sts CurrentMode,r24
 1517               	.LM174:
 1518 0826 1092 0000 		sts (CurrBuffByte)+1,__zero_reg__
 1519 082a 1092 0000 		sts CurrBuffByte,__zero_reg__
 1520               	.L168:
 1521 082e 4091 0000 		lds r20,CurrBuffByte
 1522 0832 5091 0000 		lds r21,(CurrBuffByte)+1
 1523               	.LM175:
 1524 0836 2731      		cpi r18,lo8(23)
 1525 0838 01F4      		brne .L170
 1526               	.LM176:
 1527 083a 80EA      		ldi r24,lo8(160)
 1528 083c 90E0      		ldi r25,hi8(160)
 1529 083e 489F      		mul r20,r24
 1530 0840 9001      		movw r18,r0
 1531 0842 499F      		mul r20,r25
 1532 0844 300D      		add r19,r0
 1533 0846 589F      		mul r21,r24
 1534 0848 300D      		add r19,r0
 1535 084a 1124      		clr r1
 1536               	.LVL106:
 1537 084c 2050      		subi r18,lo8(-(EEPROMVars+50))
 1538 084e 3040      		sbci r19,hi8(-(EEPROMVars+50))
 1539               	.LM177:
 1540 0850 82E0      		ldi r24,lo8(2)
 1541 0852 00C0      		rjmp .L215
 1542               	.LVL107:
 1543               	.L170:
 1544               	.LM178:
 1545 0854 80EA      		ldi r24,lo8(160)
 1546 0856 90E0      		ldi r25,hi8(160)
 1547 0858 489F      		mul r20,r24
 1548 085a 9001      		movw r18,r0
 1549 085c 499F      		mul r20,r25
 1550 085e 300D      		add r19,r0
 1551 0860 589F      		mul r21,r24
 1552 0862 300D      		add r19,r0
 1553 0864 1124      		clr r1
 1554               	.LVL108:
 1555 0866 2050      		subi r18,lo8(-(EEPROMVars+90))
 1556 0868 3040      		sbci r19,hi8(-(EEPROMVars+90))
 1557               	.LM179:
 1558 086a 83E0      		ldi r24,lo8(3)
 1559               	.L215:
 1560 086c 8093 0000 		sts MemoryType,r24
 1561               	.LM180:
 1562 0870 8091 0000 		lds r24,CurrBuffByte
 1563 0874 9091 0000 		lds r25,(CurrBuffByte)+1
 1564 0878 0A97      		sbiw r24,10
 1565 087a 00F4      		brsh .L173
 1566 087c E0E0      		ldi r30,lo8(PacketBytes+1)
 1567 087e F0E0      		ldi r31,hi8(PacketBytes+1)
 1568               	.L175:
 1569               	.LBB133:
 1570               	.LBB134:
 1571               	.LBB135:
 1572               	.LM181:
 1573 0880 8191      		ld r24,Z+
 1574 0882 D901      		movw r26,r18
 1575               	.LVL109:
 1576               	/* #APP */
 1577 0884 082E      		mov __tmp_reg__,r24
 1578 0886 0E94 0000 		call __eeprom_write_byte_1F2021
 1579               	/* #NOAPP */
 1580               	.LBE135:
 1581               	.LBE134:
 1582               	.LM182:
 1583 088a 2F5F      		subi r18,lo8(-(1))
 1584 088c 3F4F      		sbci r19,hi8(-(1))
 1585               	.LM183:
 1586 088e 80E0      		ldi r24,hi8(PacketBytes+5)
 1587 0890 E030      		cpi r30,lo8(PacketBytes+5)
 1588 0892 F807      		cpc r31,r24
 1589 0894 01F4      		brne .L175
 1590               	.LBE133:
 1591               	.LM184:
 1592 0896 8091 0000 		lds r24,CurrBuffByte
 1593 089a 9091 0000 		lds r25,(CurrBuffByte)+1
 1594 089e 0196      		adiw r24,1
 1595 08a0 9093 0000 		sts (CurrBuffByte)+1,r25
 1596 08a4 8093 0000 		sts CurrBuffByte,r24
 1597               	.L173:
 1598               	.LM185:
 1599 08a8 1092 0000 		sts PacketBytes+1,__zero_reg__
 1600               	.LM186:
 1601 08ac 1092 0000 		sts PacketBytes+2,__zero_reg__
 1602 08b0 00C0      		rjmp .L152
 1603               	.LVL110:
 1604               	.L209:
 1605               	.LM187:
 1606 08b2 82E0      		ldi r24,lo8(2)
 1607 08b4 90E0      		ldi r25,hi8(2)
 1608 08b6 9093 0000 		sts (MessageSize)+1,r25
 1609 08ba 8093 0000 		sts MessageSize,r24
 1610               	.LM188:
 1611 08be 8091 0000 		lds r24,CurrentMode
 1612 08c2 8130      		cpi r24,lo8(1)
 1613 08c4 01F0      		breq .L177
 1614               	.LM189:
 1615 08c6 2331      		cpi r18,lo8(19)
 1616 08c8 01F4      		brne .L179
 1617               	.LM190:
 1618 08ca 81E0      		ldi r24,lo8(1)
 1619 08cc 0E94 0000 		call PM_SetupDFAddressCounters
 1620 08d0 C0E0      		ldi r28,lo8(EEPROMVars+3)
 1621 08d2 D0E0      		ldi r29,hi8(EEPROMVars+3)
 1622               	.LVL111:
 1623 08d4 00C0      		rjmp .L181
 1624               	.LVL112:
 1625               	.L179:
 1626               	.LM191:
 1627 08d6 80E0      		ldi r24,lo8(0)
 1628 08d8 0E94 0000 		call PM_SetupDFAddressCounters
 1629 08dc C0E0      		ldi r28,lo8(EEPROMVars+12)
 1630 08de D0E0      		ldi r29,hi8(EEPROMVars+12)
 1631               	.LVL113:
 1632               	.L181:
 1633               	.LM192:
 1634 08e0 8091 0000 		lds r24,CurrBuffByte
 1635 08e4 9091 0000 		lds r25,(CurrBuffByte)+1
 1636 08e8 0E94 0000 		call DF_BufferWriteEnable
 1637               	.LM193:
 1638 08ec 81E0      		ldi r24,lo8(1)
 1639 08ee 8093 0000 		sts CurrentMode,r24
 1640 08f2 E0E0      		ldi r30,lo8(PacketBytes+1)
 1641 08f4 F0E0      		ldi r31,hi8(PacketBytes+1)
 1642               	.L182:
 1643               	.LBB136:
 1644               	.LBB137:
 1645               	.LBB138:
 1646               	.LM194:
 1647 08f6 8191      		ld r24,Z+
 1648 08f8 DE01      		movw r26,r28
 1649               	.LVL114:
 1650               	/* #APP */
 1651 08fa 082E      		mov __tmp_reg__,r24
 1652 08fc 0E94 0000 		call __eeprom_write_byte_1F2021
 1653               	/* #NOAPP */
 1654               	.LBE138:
 1655               	.LBE137:
 1656               	.LM195:
 1657 0900 90E0      		ldi r25,hi8(PacketBytes+10)
 1658 0902 E030      		cpi r30,lo8(PacketBytes+10)
 1659 0904 F907      		cpc r31,r25
 1660 0906 01F4      		brne .L182
 1661               	.L177:
 1662               	.LBE136:
 1663               	.LM196:
 1664 0908 8091 0000 		lds r24,PacketBytes+1
 1665 090c 9927      		clr r25
 1666 090e D82F      		mov r29,r24
 1667 0910 CC27      		clr r28
 1668               	.LVL115:
 1669 0912 8091 0000 		lds r24,PacketBytes+2
 1670 0916 9927      		clr r25
 1671 0918 C82B      		or r28,r24
 1672 091a D92B      		or r29,r25
 1673 091c 00E0      		ldi r16,lo8(PacketBytes)
 1674 091e 10E0      		ldi r17,hi8(PacketBytes)
 1675 0920 00C0      		rjmp .L183
 1676               	.L184:
 1677               	.LBB139:
 1678               	.LM197:
 1679 0922 F801      		movw r30,r16
 1680 0924 8285      		ldd r24,Z+10
 1681 0926 0E94 0000 		call PM_StoreProgramByte
 1682               	.LVL116:
 1683 092a 0F5F      		subi r16,lo8(-(1))
 1684 092c 1F4F      		sbci r17,hi8(-(1))
 1685               	.LVL117:
 1686               	.L183:
 1687               	.LM198:
 1688 092e CE01      		movw r24,r28
 1689 0930 8050      		subi r24,lo8(-(PacketBytes))
 1690 0932 9040      		sbci r25,hi8(-(PacketBytes))
 1691 0934 0817      		cp r16,r24
 1692 0936 1907      		cpc r17,r25
 1693 0938 01F4      		brne .L184
 1694               	.LBE139:
 1695               	.LM199:
 1696 093a 2091 0000 		lds r18,GPageLength
 1697 093e 3091 0000 		lds r19,(GPageLength)+1
 1698 0942 37FD      		sbrc r19,7
 1699 0944 00C0      		rjmp .L218
 1700 0946 8091 0000 		lds r24,PacketBytes+3
 1701 094a 87FF      		sbrs r24,7
 1702 094c 00C0      		rjmp .L218
 1703 094e 2115      		cp r18,__zero_reg__
 1704 0950 3105      		cpc r19,__zero_reg__
 1705 0952 01F4      		brne .+2
 1706 0954 00C0      		rjmp .L218
 1707               	.LM200:
 1708 0956 8091 0000 		lds r24,MemoryType
 1709 095a 8130      		cpi r24,lo8(1)
 1710 095c 01F4      		brne .L190
 1711 095e A0E0      		ldi r26,lo8(EEPROMVars+130)
 1712 0960 B0E0      		ldi r27,hi8(EEPROMVars+130)
 1713               	.LVL118:
 1714 0962 00C0      		rjmp .L192
 1715               	.LVL119:
 1716               	.L190:
 1717 0964 A0E0      		ldi r26,lo8(EEPROMVars+132)
 1718 0966 B0E0      		ldi r27,hi8(EEPROMVars+132)
 1719               	.LVL120:
 1720               	.L192:
 1721               	.LBB140:
 1722               	.LBB141:
 1723               	.LM201:
 1724               	/* #APP */
 1725 0968 0901      		movw __tmp_reg__,r18
 1726 096a 0E94 0000 		call __eeprom_write_word_1F2021
 1727               		
 1728               	/* #NOAPP */
 1729               	.LBE141:
 1730               	.LBE140:
 1731               	.LM202:
 1732 096e 8091 0000 		lds r24,GPageLength
 1733 0972 9091 0000 		lds r25,(GPageLength)+1
 1734 0976 9068      		ori r25,hi8(-32768)
 1735 0978 9093 0000 		sts (GPageLength)+1,r25
 1736 097c 8093 0000 		sts GPageLength,r24
 1737 0980 00C0      		rjmp .L218
 1738               	.LVL121:
 1739               	.L142:
 1740               	.LM203:
 1741 0982 8091 0000 		lds r24,CurrentMode
 1742 0986 8230      		cpi r24,lo8(2)
 1743 0988 01F0      		breq .L193
 1744               	.LM204:
 1745 098a 0E94 0000 		call PM_CheckEndOfFuseLockData
 1746               	.LM205:
 1747 098e 90E0      		ldi r25,lo8(0)
 1748 0990 8091 0000 		lds r24,PacketBytes
 1749 0994 8431      		cpi r24,lo8(20)
 1750 0996 01F4      		brne .L195
 1751 0998 91E0      		ldi r25,lo8(1)
 1752               	.L195:
 1753 099a 892F      		mov r24,r25
 1754 099c 0E94 0000 		call PM_SetupDFAddressCounters
 1755               	.LM206:
 1756 09a0 6091 0000 		lds r22,CurrBuffByte
 1757 09a4 7091 0000 		lds r23,(CurrBuffByte)+1
 1758 09a8 8091 0000 		lds r24,CurrPageAddress
 1759 09ac 9091 0000 		lds r25,(CurrPageAddress)+1
 1760 09b0 0E94 0000 		call DF_ContinuousReadEnable
 1761               	.LM207:
 1762 09b4 82E0      		ldi r24,lo8(2)
 1763 09b6 8093 0000 		sts CurrentMode,r24
 1764               	.LM208:
 1765 09ba 1092 0000 		sts CurrAddress,__zero_reg__
 1766 09be 1092 0000 		sts (CurrAddress)+1,__zero_reg__
 1767 09c2 1092 0000 		sts (CurrAddress)+2,__zero_reg__
 1768 09c6 1092 0000 		sts (CurrAddress)+3,__zero_reg__
 1769               	.L193:
 1770               	.LM209:
 1771 09ca 8091 0000 		lds r24,PacketBytes+1
 1772 09ce 9927      		clr r25
 1773 09d0 D82F      		mov r29,r24
 1774 09d2 CC27      		clr r28
 1775               	.LVL122:
 1776 09d4 8091 0000 		lds r24,PacketBytes+2
 1777 09d8 9927      		clr r25
 1778 09da C82B      		or r28,r24
 1779 09dc D92B      		or r29,r25
 1780               	.LM210:
 1781 09de 90E0      		ldi r25,lo8(0)
 1782 09e0 8091 0000 		lds r24,PacketBytes
 1783 09e4 8431      		cpi r24,lo8(20)
 1784 09e6 01F4      		brne .L196
 1785 09e8 91E0      		ldi r25,lo8(1)
 1786               	.L196:
 1787 09ea 892F      		mov r24,r25
 1788 09ec 0E94 0000 		call PM_GetStoredDataSize
 1789 09f0 7B01      		movw r14,r22
 1790               	.LVL123:
 1791 09f2 00E0      		ldi r16,lo8(PacketBytes)
 1792 09f4 10E0      		ldi r17,hi8(PacketBytes)
 1793 09f6 00C0      		rjmp .L197
 1794               	.L198:
 1795               	.LBB142:
 1796               	.LM211:
 1797 09f8 9701      		movw r18,r14
 1798 09fa 4427      		clr r20
 1799 09fc 5527      		clr r21
 1800 09fe 8091 0000 		lds r24,CurrAddress
 1801 0a02 9091 0000 		lds r25,(CurrAddress)+1
 1802 0a06 A091 0000 		lds r26,(CurrAddress)+2
 1803 0a0a B091 0000 		lds r27,(CurrAddress)+3
 1804 0a0e 8217      		cp r24,r18
 1805 0a10 9307      		cpc r25,r19
 1806 0a12 A407      		cpc r26,r20
 1807 0a14 B507      		cpc r27,r21
 1808 0a16 00F0      		brlo .L199
 1809               	.LVL124:
 1810 0a18 8FEF      		ldi r24,lo8(-1)
 1811 0a1a 00C0      		rjmp .L201
 1812               	.L199:
 1813 0a1c 80E0      		ldi r24,lo8(0)
 1814 0a1e 0E94 0000 		call SPI_SPITransmit
 1815               	.LVL125:
 1816               	.L201:
 1817 0a22 F801      		movw r30,r16
 1818 0a24 8283      		std Z+2,r24
 1819               	.LM212:
 1820 0a26 0E94 0000 		call V2P_IncrementCurrAddress
 1821 0a2a 0F5F      		subi r16,lo8(-(1))
 1822 0a2c 1F4F      		sbci r17,hi8(-(1))
 1823               	.L197:
 1824               	.LM213:
 1825 0a2e CE01      		movw r24,r28
 1826 0a30 8050      		subi r24,lo8(-(PacketBytes))
 1827 0a32 9040      		sbci r25,hi8(-(PacketBytes))
 1828 0a34 0817      		cp r16,r24
 1829 0a36 1907      		cpc r17,r25
 1830 0a38 01F4      		brne .L198
 1831               	.LBE142:
 1832               	.LM214:
 1833 0a3a 2396      		adiw r28,3
 1834 0a3c D093 0000 		sts (MessageSize)+1,r29
 1835 0a40 C093 0000 		sts MessageSize,r28
 1836               	.LM215:
 1837 0a44 1092 0000 		sts PacketBytes+1,__zero_reg__
 1838               	.LM216:
 1839 0a48 F801      		movw r30,r16
 1840 0a4a 1282      		std Z+2,__zero_reg__
 1841 0a4c 00C0      		rjmp .L152
 1842               	.LVL126:
 1843               	.L137:
 1844               	.LM217:
 1845 0a4e 81E0      		ldi r24,lo8(1)
 1846 0a50 90E0      		ldi r25,hi8(1)
 1847 0a52 9093 0000 		sts (MessageSize)+1,r25
 1848 0a56 8093 0000 		sts MessageSize,r24
 1849               	.LM218:
 1850 0a5a 89EC      		ldi r24,lo8(-55)
 1851 0a5c 8093 0000 		sts PacketBytes+1,r24
 1852               	.LVL127:
 1853               	.L152:
 1854               	.LBE115:
 1855               	.LM219:
 1856 0a60 0E94 0000 		call V2P_SendPacket
 1857               	.LVL128:
 1858               	/* epilogue: frame size=0 */
 1859 0a64 DF91      		pop r29
 1860 0a66 CF91      		pop r28
 1861 0a68 1F91      		pop r17
 1862 0a6a 0F91      		pop r16
 1863 0a6c FF90      		pop r15
 1864 0a6e EF90      		pop r14
 1865 0a70 0895      		ret
 1866               	/* epilogue end (size=7) */
 1867               	/* function PM_InterpretAVRISPPacket size 575 (562) */
 1868               	.LFE17:
 1870               	.global	MemoryType
 1871               	.global	MemoryType
 1872               		.section .bss
 1875               	MemoryType:
 1876 0000 00        		.skip 1,0
 1877               	.global	CurrentMode
 1878               	.global	CurrentMode
 1881               	CurrentMode:
 1882 0001 00        		.skip 1,0
 1883               	.global	GPageLength
 1884               	.global	GPageLength
 1887               	GPageLength:
 1888 0002 0000      		.skip 2,0
 1889               		.section	.progmem.data,"a",@progbits
 1892               	__c.2140:
 1893 0000 4C4F 434B 		.string	"LOCK-"
 1893      2D00 
 1896               	__c.2137:
 1897 0006 4655 5345 		.string	"FUSE-"
 1897      2D00 
 1900               	__c.2134:
 1901 000c 4550 524D 		.string	"EPRM-"
 1901      2D00 
 1904               	__c.2130:
 1905 0012 4441 5441 		.string	"DATA-"
 1905      2D00 
 1984               	.Letext0:
DEFINED SYMBOLS
                            *ABS*:00000000 ProgramManager.c
C:\DOCUME~1\Dean\LOCALS~1\Temp/ccOWaaaa.s:3      *ABS*:0000003f __SREG__
C:\DOCUME~1\Dean\LOCALS~1\Temp/ccOWaaaa.s:4      *ABS*:0000003e __SP_H__
C:\DOCUME~1\Dean\LOCALS~1\Temp/ccOWaaaa.s:5      *ABS*:0000003d __SP_L__
C:\DOCUME~1\Dean\LOCALS~1\Temp/ccOWaaaa.s:6      *ABS*:00000000 __tmp_reg__
C:\DOCUME~1\Dean\LOCALS~1\Temp/ccOWaaaa.s:7      *ABS*:00000001 __zero_reg__
C:\DOCUME~1\Dean\LOCALS~1\Temp/ccOWaaaa.s:20     .text:00000000 PM_SetupDFAddressCounters
C:\DOCUME~1\Dean\LOCALS~1\Temp/ccOWaaaa.s:1875   .bss:00000000 MemoryType
C:\DOCUME~1\Dean\LOCALS~1\Temp/ccOWaaaa.s:1887   .bss:00000002 GPageLength
C:\DOCUME~1\Dean\LOCALS~1\Temp/ccOWaaaa.s:95     .text:00000076 PM_CheckEndOfFuseLockData
C:\DOCUME~1\Dean\LOCALS~1\Temp/ccOWaaaa.s:1881   .bss:00000001 CurrentMode
C:\DOCUME~1\Dean\LOCALS~1\Temp/ccOWaaaa.s:244    .text:0000014a PM_GetStoredDataSize
C:\DOCUME~1\Dean\LOCALS~1\Temp/ccOWaaaa.s:330    .text:000001b4 PM_StoreProgramByte
C:\DOCUME~1\Dean\LOCALS~1\Temp/ccOWaaaa.s:385    .text:0000021c PM_SendFuseLockBytes
C:\DOCUME~1\Dean\LOCALS~1\Temp/ccOWaaaa.s:504    .text:00000298 PM_SendEraseCommand
C:\DOCUME~1\Dean\LOCALS~1\Temp/ccOWaaaa.s:597    .text:000002f0 PM_CreateProgrammingPackets
C:\DOCUME~1\Dean\LOCALS~1\Temp/ccOWaaaa.s:988    .text:00000526 PM_ShowStoredItemSizes
C:\DOCUME~1\Dean\LOCALS~1\Temp/ccOWaaaa.s:1904   .progmem.data:00000012 __c.2130
C:\DOCUME~1\Dean\LOCALS~1\Temp/ccOWaaaa.s:1900   .progmem.data:0000000c __c.2134
C:\DOCUME~1\Dean\LOCALS~1\Temp/ccOWaaaa.s:1896   .progmem.data:00000006 __c.2137
C:\DOCUME~1\Dean\LOCALS~1\Temp/ccOWaaaa.s:1892   .progmem.data:00000000 __c.2140
C:\DOCUME~1\Dean\LOCALS~1\Temp/ccOWaaaa.s:1159   .text:0000060e PM_InterpretAVRISPPacket

UNDEFINED SYMBOLS
__do_copy_data
__do_clear_bss
CurrAddress
CurrPageAddress
CurrBuffByte
DF_CopyBufferToFlashPage
EEPROMVars
__eeprom_write_block_1F2021
__eeprom_write_byte_1F2021
__eeprom_read_block_1F2021
DF_BufferWriteEnable
SPI_SPITransmit
__eeprom_read_byte_1F2021
USI_SPITransmit
MAIN_Delay10MS
USI_SPITransmitWord
MAIN_Delay1MS
__eeprom_read_word_1F2021
DF_ContinuousReadEnable
PacketBytes
ISPCC_ProgramChip
strcpy_P
ultoa
MAIN_IntToStr
LCD_puts
MAIN_WaitForJoyRelease
MessageSize
InProgrammingMode
DF_EnableDataflash
__eeprom_write_word_1F2021
V2P_IncrementCurrAddress
V2P_SendPacket
