   1               		.file	"ProgramManager.c"
   2               		.arch atmega169
   3               	__SREG__ = 0x3f
   4               	__SP_H__ = 0x3e
   5               	__SP_L__ = 0x3d
   6               	__tmp_reg__ = 0
   7               	__zero_reg__ = 1
   8               		.global __do_copy_data
   9               		.global __do_clear_bss
  17               	.Ltext0:
  18               	.global	GPageLength
  19               	.global	GPageLength
  20               		.section .bss
  23               	GPageLength:
  24 0000 0000      		.skip 2,0
  25               	.global	CurrentMode
  26               	.global	CurrentMode
  29               	CurrentMode:
  30 0002 00        		.skip 1,0
  31               	.global	MemoryType
  32               	.global	MemoryType
  35               	MemoryType:
  36 0003 00        		.skip 1,0
  37               		.text
  38               	.global	PM_GetStoredDataSize
  40               	PM_GetStoredDataSize:
  41               	.LFB14:
  42               	.LM1:
  43               	/* prologue: frame size=4 */
  44 0000 CF93      		push r28
  45 0002 DF93      		push r29
  46 0004 CDB7      		in r28,__SP_L__
  47 0006 DEB7      		in r29,__SP_H__
  48 0008 2497      		sbiw r28,4
  49 000a 0FB6      		in __tmp_reg__,__SREG__
  50 000c F894      		cli
  51 000e DEBF      		out __SP_H__,r29
  52 0010 0FBE      		out __SREG__,__tmp_reg__
  53 0012 CDBF      		out __SP_L__,r28
  54               	/* prologue end (size=10) */
  55               	.LM2:
  56 0014 1982      		std Y+1,__zero_reg__
  57 0016 1A82      		std Y+2,__zero_reg__
  58 0018 1B82      		std Y+3,__zero_reg__
  59 001a 1C82      		std Y+4,__zero_reg__
  60               	.LBB2:
  61               	.LM3:
  62 001c FE01      		movw r30,r28
  63 001e 3196      		adiw r30,1
  64 0020 8130      		cpi r24,lo8(1)
  65 0022 19F4      		brne .L2
  66               	.LM4:
  67 0024 A0E0      		ldi r26,lo8(EEPROMVars+27)
  68 0026 B0E0      		ldi r27,hi8(EEPROMVars+27)
  69 0028 02C0      		rjmp .L3
  70               	.L2:
  71 002a A0E0      		ldi r26,lo8(EEPROMVars+31)
  72 002c B0E0      		ldi r27,hi8(EEPROMVars+31)
  73               	.L3:
  74               	.LBB3:
  75               	.LBB4:
  76               	.LM5:
  77 002e 84E0      		ldi r24,lo8(4)
  78               	.LM6:
  79               	/* #APP */
  80 0030 182E      		mov __zero_reg__,r24
  81 0032 0E94 0000 		call __eeprom_read_block_1F2021
  82               	/* #NOAPP */
  83               	.LBE4:
  84               	.LBE3:
  85               	.LBE2:
  86               	.LM7:
  87 0036 8981      		ldd r24,Y+1
  88 0038 9A81      		ldd r25,Y+2
  89 003a AB81      		ldd r26,Y+3
  90 003c BC81      		ldd r27,Y+4
  91 003e 8F5F      		subi r24,lo8(-1)
  92 0040 9F4F      		sbci r25,hi8(-1)
  93 0042 AF4F      		sbci r26,hlo8(-1)
  94 0044 BF4F      		sbci r27,hhi8(-1)
  95 0046 21F4      		brne .L11
  96               	.LM8:
  97 0048 1982      		std Y+1,__zero_reg__
  98 004a 1A82      		std Y+2,__zero_reg__
  99 004c 1B82      		std Y+3,__zero_reg__
 100 004e 1C82      		std Y+4,__zero_reg__
 101               	.L11:
 102               	.LM9:
 103 0050 8981      		ldd r24,Y+1
 104 0052 9A81      		ldd r25,Y+2
 105 0054 AB81      		ldd r26,Y+3
 106 0056 BC81      		ldd r27,Y+4
 107               	.LM10:
 108 0058 BC01      		movw r22,r24
 109 005a CD01      		movw r24,r26
 110               	/* epilogue: frame size=4 */
 111 005c 2496      		adiw r28,4
 112 005e 0FB6      		in __tmp_reg__,__SREG__
 113 0060 F894      		cli
 114 0062 DEBF      		out __SP_H__,r29
 115 0064 0FBE      		out __SREG__,__tmp_reg__
 116 0066 CDBF      		out __SP_L__,r28
 117 0068 DF91      		pop r29
 118 006a CF91      		pop r28
 119 006c 0895      		ret
 120               	/* epilogue end (size=9) */
 121               	/* function PM_GetStoredDataSize size 59 (40) */
 122               	.LFE14:
 124               	.global	PM_SetupDFAddressCounters
 126               	PM_SetupDFAddressCounters:
 127               	.LFB15:
 128               	.LM11:
 129               	/* prologue: frame size=0 */
 130               	/* prologue end (size=0) */
 131               	.LM12:
 132 006e 8093 0000 		sts MemoryType,r24
 133               	.LM13:
 134 0072 1092 0000 		sts (GPageLength)+1,__zero_reg__
 135 0076 1092 0000 		sts GPageLength,__zero_reg__
 136 007a 2091 0000 		lds r18,CurrAddress
 137 007e 3091 0000 		lds r19,(CurrAddress)+1
 138 0082 4091 0000 		lds r20,(CurrAddress)+2
 139 0086 5091 0000 		lds r21,(CurrAddress)+3
 140               	.LM14:
 141 008a 8130      		cpi r24,lo8(1)
 142 008c 39F4      		brne .L13
 143               	.LM15:
 144 008e DA01      		movw r26,r20
 145 0090 C901      		movw r24,r18
 146 0092 880F      		lsl r24
 147 0094 991F      		rol r25
 148 0096 AA1F      		rol r26
 149 0098 BB1F      		rol r27
 150 009a 06C0      		rjmp .L14
 151               	.L13:
 152               	.LM16:
 153 009c DA01      		movw r26,r20
 154 009e C901      		movw r24,r18
 155 00a0 8050      		subi r24,lo8(-(263168))
 156 00a2 9C4F      		sbci r25,hi8(-(263168))
 157 00a4 AB4F      		sbci r26,hlo8(-(263168))
 158 00a6 BF4F      		sbci r27,hhi8(-(263168))
 159               	.L14:
 160               	.LM17:
 161 00a8 1092 0000 		sts (CurrPageAddress)+1,__zero_reg__
 162 00ac 1092 0000 		sts CurrPageAddress,__zero_reg__
 163               	.LM18:
 164 00b0 8830      		cpi r24,lo8(264)
 165 00b2 21E0      		ldi r18,hi8(264)
 166 00b4 9207      		cpc r25,r18
 167 00b6 20E0      		ldi r18,hlo8(264)
 168 00b8 A207      		cpc r26,r18
 169 00ba 20E0      		ldi r18,hhi8(264)
 170 00bc B207      		cpc r27,r18
 171 00be A0F0      		brlo .L19
 172 00c0 20E0      		ldi r18,lo8(0)
 173 00c2 30E0      		ldi r19,hi8(0)
 174               	.L17:
 175               	.LM19:
 176 00c4 8850      		subi r24,lo8(-(-264))
 177 00c6 9140      		sbci r25,hi8(-(-264))
 178 00c8 A040      		sbci r26,hlo8(-(-264))
 179 00ca B040      		sbci r27,hhi8(-(-264))
 180               	.LM20:
 181 00cc 2F5F      		subi r18,lo8(-(1))
 182 00ce 3F4F      		sbci r19,hi8(-(1))
 183 00d0 8830      		cpi r24,lo8(264)
 184 00d2 41E0      		ldi r20,hi8(264)
 185 00d4 9407      		cpc r25,r20
 186 00d6 40E0      		ldi r20,hlo8(264)
 187 00d8 A407      		cpc r26,r20
 188 00da 40E0      		ldi r20,hhi8(264)
 189 00dc B407      		cpc r27,r20
 190 00de 90F7      		brsh .L17
 191 00e0 3093 0000 		sts (CurrPageAddress)+1,r19
 192 00e4 2093 0000 		sts CurrPageAddress,r18
 193               	.L19:
 194               	.LM21:
 195 00e8 9093 0000 		sts (CurrBuffByte)+1,r25
 196 00ec 8093 0000 		sts CurrBuffByte,r24
 197               	/* epilogue: frame size=0 */
 198 00f0 0895      		ret
 199               	/* epilogue end (size=1) */
 200               	/* function PM_SetupDFAddressCounters size 66 (65) */
 201               	.LFE15:
 203               	.global	PM_StoreProgramByte
 205               	PM_StoreProgramByte:
 206               	.LFB16:
 207               	.LM22:
 208               	/* prologue: frame size=0 */
 209 00f2 CF93      		push r28
 210               	/* prologue end (size=1) */
 211 00f4 C82F      		mov r28,r24
 212               	.LM23:
 213 00f6 8091 0000 		lds r24,CurrBuffByte
 214 00fa 9091 0000 		lds r25,(CurrBuffByte)+1
 215 00fe 8850      		subi r24,lo8(264)
 216 0100 9140      		sbci r25,hi8(264)
 217 0102 A9F4      		brne .L22
 218               	.LM24:
 219 0104 8091 0000 		lds r24,CurrPageAddress
 220 0108 9091 0000 		lds r25,(CurrPageAddress)+1
 221 010c 9C01      		movw r18,r24
 222 010e 0196      		adiw r24,1
 223 0110 9093 0000 		sts (CurrPageAddress)+1,r25
 224 0114 8093 0000 		sts CurrPageAddress,r24
 225 0118 C901      		movw r24,r18
 226 011a 0E94 0000 		call DF_CopyBufferToFlashPage
 227               	.LM25:
 228 011e 80E0      		ldi r24,lo8(0)
 229 0120 90E0      		ldi r25,hi8(0)
 230 0122 0E94 0000 		call DF_BufferWriteEnable
 231               	.LM26:
 232 0126 1092 0000 		sts (CurrBuffByte)+1,__zero_reg__
 233 012a 1092 0000 		sts CurrBuffByte,__zero_reg__
 234               	.L22:
 235               	.LM27:
 236 012e 8C2F      		mov r24,r28
 237 0130 0E94 0000 		call SPI_SPITransmit
 238               	.LM28:
 239 0134 8091 0000 		lds r24,CurrBuffByte
 240 0138 9091 0000 		lds r25,(CurrBuffByte)+1
 241 013c 0196      		adiw r24,1
 242 013e 9093 0000 		sts (CurrBuffByte)+1,r25
 243 0142 8093 0000 		sts CurrBuffByte,r24
 244               	.LM29:
 245 0146 8091 0000 		lds r24,GPageLength
 246 014a 9091 0000 		lds r25,(GPageLength)+1
 247 014e 0196      		adiw r24,1
 248 0150 9093 0000 		sts (GPageLength)+1,r25
 249 0154 8093 0000 		sts GPageLength,r24
 250               	/* epilogue: frame size=0 */
 251 0158 CF91      		pop r28
 252 015a 0895      		ret
 253               	/* epilogue end (size=2) */
 254               	/* function PM_StoreProgramByte size 54 (51) */
 255               	.LFE16:
 257               	.global	PM_CheckEndOfProgramming
 259               	PM_CheckEndOfProgramming:
 260               	.LFB18:
 261               	.LM30:
 262               	/* prologue: frame size=4 */
 263 015c CF93      		push r28
 264 015e DF93      		push r29
 265 0160 CDB7      		in r28,__SP_L__
 266 0162 DEB7      		in r29,__SP_H__
 267 0164 2497      		sbiw r28,4
 268 0166 0FB6      		in __tmp_reg__,__SREG__
 269 0168 F894      		cli
 270 016a DEBF      		out __SP_H__,r29
 271 016c 0FBE      		out __SREG__,__tmp_reg__
 272 016e CDBF      		out __SP_L__,r28
 273               	/* prologue end (size=10) */
 274               	.LM31:
 275 0170 8091 0000 		lds r24,CurrentMode
 276 0174 8130      		cpi r24,lo8(1)
 277 0176 09F0      		breq .+2
 278 0178 41C0      		rjmp .L23
 279               	.LBB5:
 280               	.LM32:
 281 017a 8091 0000 		lds r24,CurrBuffByte
 282 017e 9091 0000 		lds r25,(CurrBuffByte)+1
 283 0182 892B      		or r24,r25
 284 0184 31F0      		breq .L25
 285               	.LM33:
 286 0186 8091 0000 		lds r24,CurrPageAddress
 287 018a 9091 0000 		lds r25,(CurrPageAddress)+1
 288 018e 0E94 0000 		call DF_CopyBufferToFlashPage
 289               	.L25:
 290               	.LM34:
 291 0192 8091 0000 		lds r24,CurrPageAddress
 292 0196 9091 0000 		lds r25,(CurrPageAddress)+1
 293 019a AA27      		clr r26
 294 019c BB27      		clr r27
 295 019e BC01      		movw r22,r24
 296 01a0 CD01      		movw r24,r26
 297 01a2 28E0      		ldi r18,lo8(264)
 298 01a4 31E0      		ldi r19,hi8(264)
 299 01a6 40E0      		ldi r20,hlo8(264)
 300 01a8 50E0      		ldi r21,hhi8(264)
 301 01aa 0E94 0000 		call __mulsi3
 302 01ae 9B01      		movw r18,r22
 303 01b0 AC01      		movw r20,r24
 304 01b2 8091 0000 		lds r24,CurrBuffByte
 305 01b6 9091 0000 		lds r25,(CurrBuffByte)+1
 306 01ba AA27      		clr r26
 307 01bc BB27      		clr r27
 308 01be 280F      		add r18,r24
 309 01c0 391F      		adc r19,r25
 310 01c2 4A1F      		adc r20,r26
 311 01c4 5B1F      		adc r21,r27
 312 01c6 2983      		std Y+1,r18
 313 01c8 3A83      		std Y+2,r19
 314 01ca 4B83      		std Y+3,r20
 315 01cc 5C83      		std Y+4,r21
 316               	.LM35:
 317 01ce 8091 0000 		lds r24,MemoryType
 318 01d2 8130      		cpi r24,lo8(1)
 319 01d4 19F4      		brne .L26
 320               	.LM36:
 321 01d6 A0E0      		ldi r26,lo8(EEPROMVars+27)
 322 01d8 B0E0      		ldi r27,hi8(EEPROMVars+27)
 323 01da 0AC0      		rjmp .L27
 324               	.L26:
 325               	.LM37:
 326 01dc A0E0      		ldi r26,lo8(EEPROMVars+31)
 327 01de B0E0      		ldi r27,hi8(EEPROMVars+31)
 328               	.LM38:
 329 01e0 2050      		subi r18,lo8(-(-263168))
 330 01e2 3440      		sbci r19,hi8(-(-263168))
 331 01e4 4440      		sbci r20,hlo8(-(-263168))
 332 01e6 5040      		sbci r21,hhi8(-(-263168))
 333 01e8 2983      		std Y+1,r18
 334 01ea 3A83      		std Y+2,r19
 335 01ec 4B83      		std Y+3,r20
 336 01ee 5C83      		std Y+4,r21
 337               	.L27:
 338               	.LBB6:
 339               	.LM39:
 340 01f0 FE01      		movw r30,r28
 341 01f2 3196      		adiw r30,1
 342               	.LBB7:
 343               	.LBB8:
 344               	.LM40:
 345 01f4 84E0      		ldi r24,lo8(4)
 346               	.LM41:
 347               	/* #APP */
 348 01f6 182E      		mov __zero_reg__,r24
 349 01f8 0E94 0000 		call __eeprom_write_block_1F2021
 350               	/* #NOAPP */
 351               	.L23:
 352               	.LBE8:
 353               	.LBE7:
 354               	.LBE6:
 355               	.LBE5:
 356               	/* epilogue: frame size=4 */
 357 01fc 2496      		adiw r28,4
 358 01fe 0FB6      		in __tmp_reg__,__SREG__
 359 0200 F894      		cli
 360 0202 DEBF      		out __SP_H__,r29
 361 0204 0FBE      		out __SREG__,__tmp_reg__
 362 0206 CDBF      		out __SP_L__,r28
 363 0208 DF91      		pop r29
 364 020a CF91      		pop r28
 365 020c 0895      		ret
 366               	/* epilogue end (size=9) */
 367               	/* function PM_CheckEndOfProgramming size 90 (71) */
 368               	.LFE18:
 370               	.global	PM_CheckEndOfFuseLockStore
 372               	PM_CheckEndOfFuseLockStore:
 373               	.LFB19:
 374               	.LM42:
 375               	/* prologue: frame size=0 */
 376               	/* prologue end (size=0) */
 377               	.LM43:
 378 020e 8091 0000 		lds r24,CurrentMode
 379 0212 8330      		cpi r24,lo8(3)
 380 0214 71F4      		brne .L35
 381               	.LBB9:
 382               	.LM44:
 383 0216 8091 0000 		lds r24,MemoryType
 384 021a 8230      		cpi r24,lo8(2)
 385 021c 19F4      		brne .L37
 386 021e A0E0      		ldi r26,lo8(EEPROMVars+47)
 387 0220 B0E0      		ldi r27,hi8(EEPROMVars+47)
 388 0222 02C0      		rjmp .L38
 389               	.L37:
 390 0224 A0E0      		ldi r26,lo8(EEPROMVars+48)
 391 0226 B0E0      		ldi r27,hi8(EEPROMVars+48)
 392               	.L38:
 393 0228 8091 0000 		lds r24,CurrBuffByte
 394               	.LBB10:
 395               	.LM45:
 396               	/* #APP */
 397 022c 082E      		mov __tmp_reg__,r24
 398 022e 0E94 0000 		call __eeprom_write_byte_1F2021
 399               	/* #NOAPP */
 400               	.L35:
 401 0232 0895      		ret
 402               	.LBE10:
 403               	.LBE9:
 404               	/* epilogue: frame size=0 */
 405               	/* epilogue: noreturn */
 406               	/* epilogue end (size=0) */
 407               	/* function PM_CheckEndOfFuseLockStore size 20 (20) */
 408               	.LFE19:
 410               	.global	PM_InterpretAVRISPPacket
 412               	PM_InterpretAVRISPPacket:
 413               	.LFB17:
 414               	.LM46:
 415               	/* prologue: frame size=0 */
 416 0234 CF92      		push r12
 417 0236 DF92      		push r13
 418 0238 EF92      		push r14
 419 023a FF92      		push r15
 420 023c 0F93      		push r16
 421 023e 1F93      		push r17
 422 0240 CF93      		push r28
 423 0242 DF93      		push r29
 424               	/* prologue end (size=8) */
 425               	.LM47:
 426 0244 4091 0000 		lds r20,PacketBytes
 427 0248 842F      		mov r24,r20
 428 024a 9927      		clr r25
 429 024c 8631      		cpi r24,22
 430 024e 9105      		cpc r25,__zero_reg__
 431 0250 09F4      		brne .+2
 432 0252 B8C1      		rjmp .L107
 433               	.LM48:
 434 0254 8731      		cpi r24,23
 435 0256 9105      		cpc r25,__zero_reg__
 436 0258 94F4      		brge .L118
 437 025a 8231      		cpi r24,18
 438 025c 9105      		cpc r25,__zero_reg__
 439 025e 09F4      		brne .+2
 440 0260 68C0      		rjmp .L52
 441 0262 8331      		cpi r24,19
 442 0264 9105      		cpc r25,__zero_reg__
 443 0266 3CF4      		brge .L119
 444 0268 8031      		cpi r24,16
 445 026a 9105      		cpc r25,__zero_reg__
 446 026c 11F1      		breq .L42
 447 026e 4197      		sbiw r24,17
 448 0270 09F4      		brne .+2
 449 0272 3FC0      		rjmp .L49
 450 0274 17C2      		rjmp .L117
 451               	.L119:
 452 0276 4497      		sbiw r24,20
 453 0278 09F4      		brne .+2
 454 027a A4C1      		rjmp .L107
 455 027c 38C1      		rjmp .L89
 456               	.L118:
 457 027e 8931      		cpi r24,25
 458 0280 9105      		cpc r25,__zero_reg__
 459 0282 09F4      		brne .+2
 460 0284 E2C0      		rjmp .L78
 461 0286 8A31      		cpi r24,26
 462 0288 9105      		cpc r25,__zero_reg__
 463 028a 44F4      		brge .L120
 464 028c 8731      		cpi r24,23
 465 028e 9105      		cpc r25,__zero_reg__
 466 0290 09F4      		brne .+2
 467 0292 DBC0      		rjmp .L78
 468 0294 4897      		sbiw r24,24
 469 0296 09F4      		brne .+2
 470 0298 8BC0      		rjmp .L67
 471 029a 04C2      		rjmp .L117
 472               	.L120:
 473 029c 8B31      		cpi r24,27
 474 029e 9105      		cpc r25,__zero_reg__
 475 02a0 E1F1      		breq .L51
 476 02a2 8B31      		cpi r24,27
 477 02a4 9105      		cpc r25,__zero_reg__
 478 02a6 0CF4      		brge .+2
 479 02a8 83C0      		rjmp .L67
 480 02aa 4C97      		sbiw r24,28
 481 02ac 09F4      		brne .+2
 482 02ae 73C0      		rjmp .L65
 483 02b0 F9C1      		rjmp .L117
 484               	.L42:
 485               	.LBB11:
 486               	.LM49:
 487 02b2 82E0      		ldi r24,lo8(2)
 488 02b4 90E0      		ldi r25,hi8(2)
 489 02b6 9093 0000 		sts (MessageSize)+1,r25
 490 02ba 8093 0000 		sts MessageSize,r24
 491 02be E0E0      		ldi r30,lo8(PacketBytes)
 492 02c0 F0E0      		ldi r31,hi8(PacketBytes)
 493 02c2 20E0      		ldi r18,lo8(0)
 494 02c4 30E0      		ldi r19,hi8(0)
 495 02c6 9BE0      		ldi r25,lo8(11)
 496               	.L47:
 497               	.LBB12:
 498               	.LBB13:
 499               	.LM50:
 500 02c8 D901      		movw r26,r18
 501 02ca A050      		subi r26,lo8(-(EEPROMVars+35))
 502 02cc B040      		sbci r27,hi8(-(EEPROMVars+35))
 503 02ce 8191      		ld r24,Z+
 504               	.LBB14:
 505               	.LM51:
 506               	/* #APP */
 507 02d0 082E      		mov __tmp_reg__,r24
 508 02d2 0E94 0000 		call __eeprom_write_byte_1F2021
 509               	/* #NOAPP */
 510               	.LBE14:
 511               	.LBE13:
 512               	.LM52:
 513 02d6 9150      		subi r25,lo8(-(-1))
 514 02d8 2F5F      		subi r18,lo8(-(1))
 515 02da 3F4F      		sbci r19,hi8(-(1))
 516 02dc 97FF      		sbrs r25,7
 517 02de F4CF      		rjmp .L47
 518               	.LBE12:
 519               	.LM53:
 520 02e0 81E0      		ldi r24,lo8(1)
 521 02e2 8093 0000 		sts InProgrammingMode,r24
 522               	.LM54:
 523 02e6 1092 0000 		sts CurrentMode,__zero_reg__
 524               	.LM55:
 525 02ea 81B3      		in r24,49-0x20
 526 02ec 8F7C      		andi r24,lo8(-49)
 527 02ee 8062      		ori r24,lo8(32)
 528 02f0 12C0      		rjmp .L138
 529               	.L49:
 530               	.LM56:
 531 02f2 82E0      		ldi r24,lo8(2)
 532 02f4 90E0      		ldi r25,hi8(2)
 533 02f6 9093 0000 		sts (MessageSize)+1,r25
 534 02fa 8093 0000 		sts MessageSize,r24
 535               	.LM57:
 536 02fe 0E94 0000 		call PM_CheckEndOfProgramming
 537               	.LM58:
 538 0302 0E94 0000 		call PM_CheckEndOfFuseLockStore
 539               	.LM59:
 540 0306 1092 0000 		sts InProgrammingMode,__zero_reg__
 541               	.LM60:
 542 030a 80E0      		ldi r24,lo8(0)
 543 030c 0E94 0000 		call DF_EnableDataflash
 544               	.LM61:
 545 0310 81B3      		in r24,49-0x20
 546 0312 8F7C      		andi r24,lo8(-49)
 547 0314 8061      		ori r24,lo8(16)
 548               	.L138:
 549 0316 81BB      		out 49-0x20,r24
 550 0318 52C1      		rjmp .L102
 551               	.L51:
 552               	.LM62:
 553 031a 84E0      		ldi r24,lo8(4)
 554 031c 90E0      		ldi r25,hi8(4)
 555 031e 9093 0000 		sts (MessageSize)+1,r25
 556 0322 8093 0000 		sts MessageSize,r24
 557               	.LM63:
 558 0326 1092 0000 		sts PacketBytes+1,__zero_reg__
 559               	.LM64:
 560 032a 81E0      		ldi r24,lo8(1)
 561 032c 8093 0000 		sts PacketBytes+2,r24
 562 0330 3CC0      		rjmp .L137
 563               	.L52:
 564               	.LM65:
 565 0332 82E0      		ldi r24,lo8(2)
 566 0334 90E0      		ldi r25,hi8(2)
 567 0336 9093 0000 		sts (MessageSize)+1,r25
 568 033a 8093 0000 		sts MessageSize,r24
 569 033e E0E0      		ldi r30,lo8(PacketBytes+1)
 570 0340 F0E0      		ldi r31,hi8(PacketBytes+1)
 571 0342 21E0      		ldi r18,lo8(1)
 572 0344 30E0      		ldi r19,hi8(1)
 573 0346 95E0      		ldi r25,lo8(5)
 574               	.L57:
 575               	.LBB15:
 576               	.LBB16:
 577               	.LM66:
 578 0348 D901      		movw r26,r18
 579 034a A050      		subi r26,lo8(-(EEPROMVars+21))
 580 034c B040      		sbci r27,hi8(-(EEPROMVars+21))
 581 034e 8191      		ld r24,Z+
 582               	.LBB17:
 583               	.LM67:
 584               	/* #APP */
 585 0350 082E      		mov __tmp_reg__,r24
 586 0352 0E94 0000 		call __eeprom_write_byte_1F2021
 587               	/* #NOAPP */
 588               	.LBE17:
 589               	.LBE16:
 590               	.LM68:
 591 0356 9150      		subi r25,lo8(-(-1))
 592 0358 2F5F      		subi r18,lo8(-(1))
 593 035a 3F4F      		sbci r19,hi8(-(1))
 594 035c 97FF      		sbrs r25,7
 595 035e F4CF      		rjmp .L57
 596 0360 20E0      		ldi r18,lo8(0)
 597 0362 80E0      		ldi r24,lo8(0)
 598 0364 90E0      		ldi r25,hi8(0)
 599 0366 37E0      		ldi r19,lo8(7)
 600               	.L63:
 601               	.LBE15:
 602               	.LBB18:
 603               	.LBB19:
 604               	.LM69:
 605 0368 DC01      		movw r26,r24
 606 036a A050      		subi r26,lo8(-(EEPROMVars+27))
 607 036c B040      		sbci r27,hi8(-(EEPROMVars+27))
 608               	.LBB20:
 609               	.LM70:
 610               	/* #APP */
 611 036e 022E      		mov __tmp_reg__,r18
 612 0370 0E94 0000 		call __eeprom_write_byte_1F2021
 613               	/* #NOAPP */
 614               	.LBE20:
 615               	.LBE19:
 616               	.LBB21:
 617               	.LM71:
 618 0374 DC01      		movw r26,r24
 619 0376 A050      		subi r26,lo8(-(EEPROMVars+31))
 620 0378 B040      		sbci r27,hi8(-(EEPROMVars+31))
 621               	.LBB22:
 622               	.LM72:
 623               	/* #APP */
 624 037a 022E      		mov __tmp_reg__,r18
 625 037c 0E94 0000 		call __eeprom_write_byte_1F2021
 626               	/* #NOAPP */
 627               	.LBE22:
 628               	.LBE21:
 629               	.LM73:
 630 0380 3150      		subi r19,lo8(-(-1))
 631 0382 0196      		adiw r24,1
 632 0384 37FF      		sbrs r19,7
 633 0386 F0CF      		rjmp .L63
 634               	.LBE18:
 635               	.LBB23:
 636               	.LM74:
 637 0388 A0E0      		ldi r26,lo8(EEPROMVars+20)
 638 038a B0E0      		ldi r27,hi8(EEPROMVars+20)
 639 038c 81E0      		ldi r24,lo8(1)
 640               	.LBB24:
 641               	.LM75:
 642               	/* #APP */
 643 038e 082E      		mov __tmp_reg__,r24
 644 0390 0E94 0000 		call __eeprom_write_byte_1F2021
 645               	/* #NOAPP */
 646 0394 14C1      		rjmp .L102
 647               	.L65:
 648               	.LBE24:
 649               	.LBE23:
 650               	.LM76:
 651 0396 84E0      		ldi r24,lo8(4)
 652 0398 90E0      		ldi r25,hi8(4)
 653 039a 9093 0000 		sts (MessageSize)+1,r25
 654 039e 8093 0000 		sts MessageSize,r24
 655               	.LM77:
 656 03a2 1092 0000 		sts PacketBytes+1,__zero_reg__
 657               	.LM78:
 658 03a6 1092 0000 		sts PacketBytes+2,__zero_reg__
 659               	.L137:
 660               	.LM79:
 661 03aa 1092 0000 		sts PacketBytes+3,__zero_reg__
 662               	.LM80:
 663 03ae 83C1      		rjmp .L41
 664               	.L67:
 665               	.LM81:
 666 03b0 84E0      		ldi r24,lo8(4)
 667 03b2 90E0      		ldi r25,hi8(4)
 668 03b4 9093 0000 		sts (MessageSize)+1,r25
 669 03b8 8093 0000 		sts MessageSize,r24
 670               	.LM82:
 671 03bc 8091 0000 		lds r24,CurrentMode
 672 03c0 8430      		cpi r24,lo8(4)
 673 03c2 59F0      		breq .L68
 674               	.LM83:
 675 03c4 0E94 0000 		call PM_CheckEndOfProgramming
 676               	.LM84:
 677 03c8 0E94 0000 		call PM_CheckEndOfFuseLockStore
 678               	.LM85:
 679 03cc 1092 0000 		sts (CurrBuffByte)+1,__zero_reg__
 680 03d0 1092 0000 		sts CurrBuffByte,__zero_reg__
 681               	.LM86:
 682 03d4 84E0      		ldi r24,lo8(4)
 683 03d6 8093 0000 		sts CurrentMode,r24
 684               	.L68:
 685               	.LBB25:
 686               	.LM87:
 687 03da 6091 0000 		lds r22,PacketBytes
 688 03de 6831      		cpi r22,lo8(24)
 689 03e0 19F4      		brne .L70
 690 03e2 A0E0      		ldi r26,lo8(EEPROMVars+47)
 691 03e4 B0E0      		ldi r27,hi8(EEPROMVars+47)
 692 03e6 02C0      		rjmp .L71
 693               	.L70:
 694 03e8 A0E0      		ldi r26,lo8(EEPROMVars+48)
 695 03ea B0E0      		ldi r27,hi8(EEPROMVars+48)
 696               	.L71:
 697               	.LBB26:
 698               	.LM88:
 699               	/* #APP */
 700 03ec 0E94 0000 		call __eeprom_read_byte_1F2021
 701 03f0 802D      		mov r24,__tmp_reg__
 702               	/* #NOAPP */
 703               	.LBE26:
 704               	.LBE25:
 705               	.LM89:
 706 03f2 9927      		clr r25
 707 03f4 4091 0000 		lds r20,CurrBuffByte
 708 03f8 5091 0000 		lds r21,(CurrBuffByte)+1
 709 03fc 8417      		cp r24,r20
 710 03fe 9507      		cpc r25,r21
 711 0400 10F4      		brsh .L69
 712               	.LM90:
 713 0402 8FEF      		ldi r24,lo8(-1)
 714 0404 15C0      		rjmp .L134
 715               	.L69:
 716               	.LBB27:
 717               	.LM91:
 718 0406 9A01      		movw r18,r20
 719 0408 220F      		lsl r18
 720 040a 331F      		rol r19
 721 040c 220F      		lsl r18
 722 040e 331F      		rol r19
 723 0410 8091 0000 		lds r24,PacketBytes+1
 724 0414 280F      		add r18,r24
 725 0416 311D      		adc r19,__zero_reg__
 726 0418 6831      		cpi r22,lo8(24)
 727 041a 21F4      		brne .L74
 728 041c D901      		movw r26,r18
 729 041e A050      		subi r26,lo8(-(EEPROMVars+48))
 730 0420 B040      		sbci r27,hi8(-(EEPROMVars+48))
 731 0422 03C0      		rjmp .L75
 732               	.L74:
 733 0424 D901      		movw r26,r18
 734 0426 A050      		subi r26,lo8(-(EEPROMVars+88))
 735 0428 B040      		sbci r27,hi8(-(EEPROMVars+88))
 736               	.L75:
 737               	.LBB28:
 738               	.LM92:
 739               	/* #APP */
 740 042a 0E94 0000 		call __eeprom_read_byte_1F2021
 741 042e 802D      		mov r24,__tmp_reg__
 742               	/* #NOAPP */
 743               	.L134:
 744               	.LBE28:
 745               	.LBE27:
 746               	.LM93:
 747 0430 8093 0000 		sts PacketBytes+2,r24
 748               	.LM94:
 749 0434 1092 0000 		sts PacketBytes+1,__zero_reg__
 750               	.LM95:
 751 0438 1092 0000 		sts PacketBytes+3,__zero_reg__
 752               	.LM96:
 753 043c 4F5F      		subi r20,lo8(-(1))
 754 043e 5F4F      		sbci r21,hi8(-(1))
 755 0440 5093 0000 		sts (CurrBuffByte)+1,r21
 756 0444 4093 0000 		sts CurrBuffByte,r20
 757               	.LM97:
 758 0448 36C1      		rjmp .L41
 759               	.L78:
 760               	.LM98:
 761 044a 83E0      		ldi r24,lo8(3)
 762 044c 90E0      		ldi r25,hi8(3)
 763 044e 9093 0000 		sts (MessageSize)+1,r25
 764 0452 8093 0000 		sts MessageSize,r24
 765               	.LM99:
 766 0456 8091 0000 		lds r24,CurrentMode
 767 045a 8330      		cpi r24,lo8(3)
 768 045c 39F0      		breq .L79
 769               	.LM100:
 770 045e 83E0      		ldi r24,lo8(3)
 771 0460 8093 0000 		sts CurrentMode,r24
 772               	.LM101:
 773 0464 1092 0000 		sts (CurrBuffByte)+1,__zero_reg__
 774 0468 1092 0000 		sts CurrBuffByte,__zero_reg__
 775               	.L79:
 776 046c 2091 0000 		lds r18,CurrBuffByte
 777 0470 3091 0000 		lds r19,(CurrBuffByte)+1
 778               	.LM102:
 779 0474 4731      		cpi r20,lo8(23)
 780 0476 69F4      		brne .L80
 781               	.LM103:
 782 0478 80EA      		ldi r24,lo8(160)
 783 047a 90E0      		ldi r25,hi8(160)
 784 047c 289F      		mul r18,r24
 785 047e E001      		movw r28,r0
 786 0480 299F      		mul r18,r25
 787 0482 D00D      		add r29,r0
 788 0484 389F      		mul r19,r24
 789 0486 D00D      		add r29,r0
 790 0488 1124      		clr r1
 791 048a C050      		subi r28,lo8(-(EEPROMVars+49))
 792 048c D040      		sbci r29,hi8(-(EEPROMVars+49))
 793               	.LM104:
 794 048e 82E0      		ldi r24,lo8(2)
 795 0490 0CC0      		rjmp .L135
 796               	.L80:
 797               	.LM105:
 798 0492 80EA      		ldi r24,lo8(160)
 799 0494 90E0      		ldi r25,hi8(160)
 800 0496 289F      		mul r18,r24
 801 0498 E001      		movw r28,r0
 802 049a 299F      		mul r18,r25
 803 049c D00D      		add r29,r0
 804 049e 389F      		mul r19,r24
 805 04a0 D00D      		add r29,r0
 806 04a2 1124      		clr r1
 807 04a4 C050      		subi r28,lo8(-(EEPROMVars+89))
 808 04a6 D040      		sbci r29,hi8(-(EEPROMVars+89))
 809               	.LM106:
 810 04a8 83E0      		ldi r24,lo8(3)
 811               	.L135:
 812 04aa 8093 0000 		sts MemoryType,r24
 813               	.LM107:
 814 04ae 8091 0000 		lds r24,CurrBuffByte
 815 04b2 9091 0000 		lds r25,(CurrBuffByte)+1
 816 04b6 0A97      		sbiw r24,10
 817 04b8 A8F4      		brsh .L82
 818 04ba E0E0      		ldi r30,lo8(PacketBytes+1)
 819 04bc F0E0      		ldi r31,hi8(PacketBytes+1)
 820 04be 93E0      		ldi r25,lo8(3)
 821               	.L87:
 822               	.LBB29:
 823               	.LBB30:
 824               	.LM108:
 825 04c0 8191      		ld r24,Z+
 826               	.LBB31:
 827               	.LM109:
 828 04c2 DE01      		movw r26,r28
 829               	/* #APP */
 830 04c4 082E      		mov __tmp_reg__,r24
 831 04c6 0E94 0000 		call __eeprom_write_byte_1F2021
 832               	/* #NOAPP */
 833               	.LBE31:
 834               	.LBE30:
 835               	.LM110:
 836 04ca 2196      		adiw r28,1
 837               	.LM111:
 838 04cc 9150      		subi r25,lo8(-(-1))
 839 04ce 97FF      		sbrs r25,7
 840 04d0 F7CF      		rjmp .L87
 841               	.LBE29:
 842               	.LM112:
 843 04d2 8091 0000 		lds r24,CurrBuffByte
 844 04d6 9091 0000 		lds r25,(CurrBuffByte)+1
 845 04da 0196      		adiw r24,1
 846 04dc 9093 0000 		sts (CurrBuffByte)+1,r25
 847 04e0 8093 0000 		sts CurrBuffByte,r24
 848               	.L82:
 849               	.LM113:
 850 04e4 1092 0000 		sts PacketBytes+1,__zero_reg__
 851               	.LM114:
 852 04e8 1092 0000 		sts PacketBytes+2,__zero_reg__
 853               	.LM115:
 854 04ec E4C0      		rjmp .L41
 855               	.L89:
 856               	.LM116:
 857 04ee 82E0      		ldi r24,lo8(2)
 858 04f0 90E0      		ldi r25,hi8(2)
 859 04f2 9093 0000 		sts (MessageSize)+1,r25
 860 04f6 8093 0000 		sts MessageSize,r24
 861               	.LM117:
 862 04fa 8091 0000 		lds r24,CurrentMode
 863 04fe 8130      		cpi r24,lo8(1)
 864 0500 F9F0      		breq .L90
 865               	.LM118:
 866 0502 4331      		cpi r20,lo8(19)
 867 0504 21F4      		brne .L91
 868               	.LM119:
 869 0506 C0E0      		ldi r28,lo8(EEPROMVars+2)
 870 0508 D0E0      		ldi r29,hi8(EEPROMVars+2)
 871               	.LM120:
 872 050a 81E0      		ldi r24,lo8(1)
 873 050c 03C0      		rjmp .L136
 874               	.L91:
 875               	.LM121:
 876 050e C0E0      		ldi r28,lo8(EEPROMVars+11)
 877 0510 D0E0      		ldi r29,hi8(EEPROMVars+11)
 878               	.LM122:
 879 0512 80E0      		ldi r24,lo8(0)
 880               	.L136:
 881 0514 0E94 0000 		call PM_SetupDFAddressCounters
 882               	.LM123:
 883 0518 8091 0000 		lds r24,CurrBuffByte
 884 051c 9091 0000 		lds r25,(CurrBuffByte)+1
 885 0520 0E94 0000 		call DF_BufferWriteEnable
 886               	.LM124:
 887 0524 81E0      		ldi r24,lo8(1)
 888 0526 8093 0000 		sts CurrentMode,r24
 889 052a E0E0      		ldi r30,lo8(PacketBytes+1)
 890 052c F0E0      		ldi r31,hi8(PacketBytes+1)
 891 052e 98E0      		ldi r25,lo8(8)
 892               	.L97:
 893               	.LBB32:
 894               	.LBB33:
 895               	.LM125:
 896 0530 8191      		ld r24,Z+
 897               	.LBB34:
 898               	.LM126:
 899 0532 DE01      		movw r26,r28
 900               	/* #APP */
 901 0534 082E      		mov __tmp_reg__,r24
 902 0536 0E94 0000 		call __eeprom_write_byte_1F2021
 903               	/* #NOAPP */
 904               	.LBE34:
 905               	.LBE33:
 906               	.LM127:
 907 053a 9150      		subi r25,lo8(-(-1))
 908 053c 97FF      		sbrs r25,7
 909 053e F8CF      		rjmp .L97
 910               	.L90:
 911               	.LBE32:
 912               	.LM128:
 913 0540 8091 0000 		lds r24,PacketBytes+1
 914 0544 9927      		clr r25
 915 0546 D82F      		mov r29,r24
 916 0548 CC27      		clr r28
 917 054a 8091 0000 		lds r24,PacketBytes+2
 918 054e 9927      		clr r25
 919 0550 C82B      		or r28,r24
 920 0552 D92B      		or r29,r25
 921               	.LBB35:
 922               	.LM129:
 923 0554 00E0      		ldi r16,lo8(0)
 924 0556 10E0      		ldi r17,hi8(0)
 925 0558 0C17      		cp r16,r28
 926 055a 1D07      		cpc r17,r29
 927 055c 70F4      		brsh .L131
 928 055e 50E0      		ldi r21,lo8(PacketBytes+10)
 929 0560 E52E      		mov r14,r21
 930 0562 50E0      		ldi r21,hi8(PacketBytes+10)
 931 0564 F52E      		mov r15,r21
 932               	.L101:
 933               	.LM130:
 934 0566 F701      		movw r30,r14
 935 0568 8191      		ld r24,Z+
 936 056a 7F01      		movw r14,r30
 937 056c 0E94 0000 		call PM_StoreProgramByte
 938               	.LM131:
 939 0570 0F5F      		subi r16,lo8(-(1))
 940 0572 1F4F      		sbci r17,hi8(-(1))
 941 0574 0C17      		cp r16,r28
 942 0576 1D07      		cpc r17,r29
 943 0578 B0F3      		brlo .L101
 944               	.L131:
 945               	.LBE35:
 946               	.LM132:
 947 057a 2091 0000 		lds r18,GPageLength
 948 057e 3091 0000 		lds r19,(GPageLength)+1
 949 0582 37FD      		sbrc r19,7
 950 0584 1CC0      		rjmp .L102
 951 0586 8091 0000 		lds r24,PacketBytes+3
 952 058a 87FF      		sbrs r24,7
 953 058c 18C0      		rjmp .L102
 954 058e 2115      		cp r18,__zero_reg__
 955 0590 3105      		cpc r19,__zero_reg__
 956 0592 A9F0      		breq .L102
 957               	.LBB36:
 958               	.LM133:
 959 0594 8091 0000 		lds r24,MemoryType
 960 0598 8130      		cpi r24,lo8(1)
 961 059a 19F4      		brne .L103
 962 059c A0E0      		ldi r26,lo8(EEPROMVars+129)
 963 059e B0E0      		ldi r27,hi8(EEPROMVars+129)
 964 05a0 02C0      		rjmp .L104
 965               	.L103:
 966 05a2 A0E0      		ldi r26,lo8(EEPROMVars+131)
 967 05a4 B0E0      		ldi r27,hi8(EEPROMVars+131)
 968               	.L104:
 969               	.LBB37:
 970               	.LM134:
 971               	/* #APP */
 972 05a6 0901      		movw __tmp_reg__,r18
 973 05a8 0E94 0000 		call __eeprom_write_word_1F2021
 974               		
 975               	/* #NOAPP */
 976               	.LBE37:
 977               	.LBE36:
 978               	.LM135:
 979 05ac 8091 0000 		lds r24,GPageLength
 980 05b0 9091 0000 		lds r25,(GPageLength)+1
 981 05b4 9068      		ori r25,hi8(-32768)
 982 05b6 9093 0000 		sts (GPageLength)+1,r25
 983 05ba 8093 0000 		sts GPageLength,r24
 984               	.L102:
 985               	.LM136:
 986 05be 1092 0000 		sts PacketBytes+1,__zero_reg__
 987               	.LM137:
 988 05c2 79C0      		rjmp .L41
 989               	.L107:
 990               	.LM138:
 991 05c4 8091 0000 		lds r24,CurrentMode
 992 05c8 8230      		cpi r24,lo8(2)
 993 05ca 11F1      		breq .L108
 994               	.LM139:
 995 05cc 0E94 0000 		call PM_CheckEndOfProgramming
 996               	.LM140:
 997 05d0 0E94 0000 		call PM_CheckEndOfFuseLockStore
 998               	.LM141:
 999 05d4 90E0      		ldi r25,lo8(0)
 1000 05d6 8091 0000 		lds r24,PacketBytes
 1001 05da 8431      		cpi r24,lo8(20)
 1002 05dc 09F4      		brne .L109
 1003 05de 91E0      		ldi r25,lo8(1)
 1004               	.L109:
 1005 05e0 892F      		mov r24,r25
 1006 05e2 0E94 0000 		call PM_SetupDFAddressCounters
 1007               	.LM142:
 1008 05e6 6091 0000 		lds r22,CurrBuffByte
 1009 05ea 7091 0000 		lds r23,(CurrBuffByte)+1
 1010 05ee 8091 0000 		lds r24,CurrPageAddress
 1011 05f2 9091 0000 		lds r25,(CurrPageAddress)+1
 1012 05f6 0E94 0000 		call DF_ContinuousReadEnable
 1013               	.LM143:
 1014 05fa 82E0      		ldi r24,lo8(2)
 1015 05fc 8093 0000 		sts CurrentMode,r24
 1016               	.LM144:
 1017 0600 1092 0000 		sts CurrAddress,__zero_reg__
 1018 0604 1092 0000 		sts (CurrAddress)+1,__zero_reg__
 1019 0608 1092 0000 		sts (CurrAddress)+2,__zero_reg__
 1020 060c 1092 0000 		sts (CurrAddress)+3,__zero_reg__
 1021               	.L108:
 1022               	.LM145:
 1023 0610 8091 0000 		lds r24,PacketBytes+1
 1024 0614 9927      		clr r25
 1025 0616 D82F      		mov r29,r24
 1026 0618 CC27      		clr r28
 1027 061a 8091 0000 		lds r24,PacketBytes+2
 1028 061e 9927      		clr r25
 1029 0620 C82B      		or r28,r24
 1030 0622 D92B      		or r29,r25
 1031               	.LM146:
 1032 0624 90E0      		ldi r25,lo8(0)
 1033 0626 8091 0000 		lds r24,PacketBytes
 1034 062a 8431      		cpi r24,lo8(20)
 1035 062c 09F4      		brne .L110
 1036 062e 91E0      		ldi r25,lo8(1)
 1037               	.L110:
 1038 0630 892F      		mov r24,r25
 1039 0632 0E94 0000 		call PM_GetStoredDataSize
 1040 0636 DC01      		movw r26,r24
 1041 0638 CB01      		movw r24,r22
 1042 063a 7C01      		movw r14,r24
 1043               	.LBB38:
 1044               	.LM147:
 1045 063c 00E0      		ldi r16,lo8(0)
 1046 063e 10E0      		ldi r17,hi8(0)
 1047 0640 0C17      		cp r16,r28
 1048 0642 1D07      		cpc r17,r29
 1049 0644 18F5      		brsh .L133
 1050 0646 30E0      		ldi r19,lo8(PacketBytes+2)
 1051 0648 C32E      		mov r12,r19
 1052 064a 30E0      		ldi r19,hi8(PacketBytes+2)
 1053 064c D32E      		mov r13,r19
 1054               	.L116:
 1055               	.LM148:
 1056 064e 9701      		movw r18,r14
 1057 0650 4427      		clr r20
 1058 0652 5527      		clr r21
 1059 0654 8091 0000 		lds r24,CurrAddress
 1060 0658 9091 0000 		lds r25,(CurrAddress)+1
 1061 065c A091 0000 		lds r26,(CurrAddress)+2
 1062 0660 B091 0000 		lds r27,(CurrAddress)+3
 1063 0664 8217      		cp r24,r18
 1064 0666 9307      		cpc r25,r19
 1065 0668 A407      		cpc r26,r20
 1066 066a B507      		cpc r27,r21
 1067 066c 20F4      		brsh .L114
 1068 066e 80E0      		ldi r24,lo8(0)
 1069 0670 0E94 0000 		call SPI_SPITransmit
 1070 0674 01C0      		rjmp .L115
 1071               	.L114:
 1072 0676 8FEF      		ldi r24,lo8(-1)
 1073               	.L115:
 1074 0678 F601      		movw r30,r12
 1075 067a 8193      		st Z+,r24
 1076 067c 6F01      		movw r12,r30
 1077               	.LM149:
 1078 067e 0E94 0000 		call V2P_IncrementCurrAddress
 1079               	.LM150:
 1080 0682 0F5F      		subi r16,lo8(-(1))
 1081 0684 1F4F      		sbci r17,hi8(-(1))
 1082 0686 0C17      		cp r16,r28
 1083 0688 1D07      		cpc r17,r29
 1084 068a 08F3      		brlo .L116
 1085               	.L133:
 1086               	.LBE38:
 1087               	.LM151:
 1088 068c 2396      		adiw r28,3
 1089 068e D093 0000 		sts (MessageSize)+1,r29
 1090 0692 C093 0000 		sts MessageSize,r28
 1091 0696 2397      		sbiw r28,3
 1092               	.LM152:
 1093 0698 1092 0000 		sts PacketBytes+1,__zero_reg__
 1094               	.LM153:
 1095 069c C050      		subi r28,lo8(-(PacketBytes))
 1096 069e D040      		sbci r29,hi8(-(PacketBytes))
 1097 06a0 1A82      		std Y+2,__zero_reg__
 1098               	.LM154:
 1099 06a2 09C0      		rjmp .L41
 1100               	.L117:
 1101               	.LM155:
 1102 06a4 81E0      		ldi r24,lo8(1)
 1103 06a6 90E0      		ldi r25,hi8(1)
 1104 06a8 9093 0000 		sts (MessageSize)+1,r25
 1105 06ac 8093 0000 		sts MessageSize,r24
 1106               	.LM156:
 1107 06b0 89EC      		ldi r24,lo8(-55)
 1108 06b2 8093 0000 		sts PacketBytes+1,r24
 1109               	.L41:
 1110               	.LBE11:
 1111               	.LM157:
 1112 06b6 0E94 0000 		call V2P_SendPacket
 1113               	/* epilogue: frame size=0 */
 1114 06ba DF91      		pop r29
 1115 06bc CF91      		pop r28
 1116 06be 1F91      		pop r17
 1117 06c0 0F91      		pop r16
 1118 06c2 FF90      		pop r15
 1119 06c4 EF90      		pop r14
 1120 06c6 DF90      		pop r13
 1121 06c8 CF90      		pop r12
 1122 06ca 0895      		ret
 1123               	/* epilogue end (size=9) */
 1124               	/* function PM_InterpretAVRISPPacket size 605 (588) */
 1125               	.LFE17:
 1127               	.global	PM_SendFuseLockBytes
 1129               	PM_SendFuseLockBytes:
 1130               	.LFB20:
 1131               	.LM158:
 1132               	/* prologue: frame size=0 */
 1133 06cc 0F93      		push r16
 1134 06ce 1F93      		push r17
 1135 06d0 CF93      		push r28
 1136 06d2 DF93      		push r29
 1137               	/* prologue end (size=4) */
 1138 06d4 982F      		mov r25,r24
 1139               	.LBB39:
 1140               	.LM159:
 1141 06d6 8230      		cpi r24,lo8(2)
 1142 06d8 19F4      		brne .L140
 1143               	.LM160:
 1144 06da A0E0      		ldi r26,lo8(EEPROMVars+47)
 1145 06dc B0E0      		ldi r27,hi8(EEPROMVars+47)
 1146 06de 02C0      		rjmp .L141
 1147               	.L140:
 1148 06e0 A0E0      		ldi r26,lo8(EEPROMVars+48)
 1149 06e2 B0E0      		ldi r27,hi8(EEPROMVars+48)
 1150               	.L141:
 1151               	.LBB40:
 1152               	.LM161:
 1153               	/* #APP */
 1154 06e4 0E94 0000 		call __eeprom_read_byte_1F2021
 1155 06e8 802D      		mov r24,__tmp_reg__
 1156               	/* #NOAPP */
 1157               	.LBE40:
 1158               	.LBE39:
 1159               	.LM162:
 1160 06ea 182F      		mov r17,r24
 1161               	.LM163:
 1162 06ec 9230      		cpi r25,lo8(2)
 1163 06ee 19F4      		brne .L143
 1164 06f0 C0E0      		ldi r28,lo8(EEPROMVars+49)
 1165 06f2 D0E0      		ldi r29,hi8(EEPROMVars+49)
 1166 06f4 02C0      		rjmp .L144
 1167               	.L143:
 1168 06f6 C0E0      		ldi r28,lo8(EEPROMVars+89)
 1169 06f8 D0E0      		ldi r29,hi8(EEPROMVars+89)
 1170               	.L144:
 1171               	.LM164:
 1172 06fa 1150      		subi r17,lo8(-(-1))
 1173 06fc 1F3F      		cpi r17,lo8(-1)
 1174 06fe 91F0      		breq .L155
 1175               	.L153:
 1176 0700 03E0      		ldi r16,lo8(3)
 1177               	.L151:
 1178               	.LBB41:
 1179               	.LBB42:
 1180               	.LBB43:
 1181               	.LM165:
 1182 0702 DE01      		movw r26,r28
 1183               	/* #APP */
 1184 0704 0E94 0000 		call __eeprom_read_byte_1F2021
 1185 0708 802D      		mov r24,__tmp_reg__
 1186               	/* #NOAPP */
 1187               	.LBE43:
 1188               	.LBE42:
 1189               	.LM166:
 1190 070a 0E94 0000 		call USI_SPITransmit
 1191               	.LM167:
 1192 070e 2196      		adiw r28,1
 1193               	.LM168:
 1194 0710 0150      		subi r16,lo8(-(-1))
 1195 0712 07FF      		sbrs r16,7
 1196 0714 F6CF      		rjmp .L151
 1197               	.LBE41:
 1198               	.LM169:
 1199 0716 1123      		tst r17
 1200 0718 19F0      		breq .L145
 1201               	.LM170:
 1202 071a 85E0      		ldi r24,lo8(5)
 1203 071c 0E94 0000 		call MAIN_Delay10MS
 1204               	.L145:
 1205 0720 1150      		subi r17,1
 1206 0722 70F7      		brcc .L153
 1207               	.L155:
 1208               	/* epilogue: frame size=0 */
 1209 0724 DF91      		pop r29
 1210 0726 CF91      		pop r28
 1211 0728 1F91      		pop r17
 1212 072a 0F91      		pop r16
 1213 072c 0895      		ret
 1214               	/* epilogue end (size=5) */
 1215               	/* function PM_SendFuseLockBytes size 52 (43) */
 1216               	.LFE20:
 1218               	.global	PM_SendEraseCommand
 1220               	PM_SendEraseCommand:
 1221               	.LFB21:
 1222               	.LM171:
 1223               	/* prologue: frame size=0 */
 1224 072e 1F93      		push r17
 1225 0730 CF93      		push r28
 1226 0732 DF93      		push r29
 1227               	/* prologue end (size=3) */
 1228 0734 C2E0      		ldi r28,lo8(2)
 1229 0736 D0E0      		ldi r29,hi8(2)
 1230 0738 13E0      		ldi r17,lo8(3)
 1231               	.L163:
 1232               	.LBB44:
 1233               	.LBB45:
 1234               	.LM172:
 1235 073a DE01      		movw r26,r28
 1236 073c A050      		subi r26,lo8(-(EEPROMVars+21))
 1237 073e B040      		sbci r27,hi8(-(EEPROMVars+21))
 1238               	.LBB46:
 1239               	.LM173:
 1240               	/* #APP */
 1241 0740 0E94 0000 		call __eeprom_read_byte_1F2021
 1242 0744 802D      		mov r24,__tmp_reg__
 1243               	/* #NOAPP */
 1244               	.LBE46:
 1245               	.LBE45:
 1246               	.LM174:
 1247 0746 0E94 0000 		call USI_SPITransmit
 1248               	.LM175:
 1249 074a 1150      		subi r17,lo8(-(-1))
 1250 074c 2196      		adiw r28,1
 1251 074e 17FF      		sbrs r17,7
 1252 0750 F4CF      		rjmp .L163
 1253               	.LBE44:
 1254               	.LBB47:
 1255               	.LM176:
 1256 0752 A0E0      		ldi r26,lo8(EEPROMVars+22)
 1257 0754 B0E0      		ldi r27,hi8(EEPROMVars+22)
 1258               	.LBB48:
 1259               	.LM177:
 1260               	/* #APP */
 1261 0756 0E94 0000 		call __eeprom_read_byte_1F2021
 1262 075a 802D      		mov r24,__tmp_reg__
 1263               	/* #NOAPP */
 1264               	.LBE48:
 1265               	.LBE47:
 1266               	.LM178:
 1267 075c 8823      		tst r24
 1268 075e 59F0      		breq .L164
 1269               	.L166:
 1270               	.LM179:
 1271 0760 80E0      		ldi r24,lo8(-4096)
 1272 0762 90EF      		ldi r25,hi8(-4096)
 1273 0764 0E94 0000 		call USI_SPITransmitWord
 1274 0768 80E0      		ldi r24,lo8(0)
 1275 076a 90E0      		ldi r25,hi8(0)
 1276 076c 0E94 0000 		call USI_SPITransmitWord
 1277 0770 80FD      		sbrc r24,0
 1278 0772 F6CF      		rjmp .L166
 1279 0774 07C0      		rjmp .L158
 1280               	.L164:
 1281               	.LBB49:
 1282               	.LM180:
 1283 0776 A0E0      		ldi r26,lo8(EEPROMVars+21)
 1284 0778 B0E0      		ldi r27,hi8(EEPROMVars+21)
 1285               	.LBB50:
 1286               	.LM181:
 1287               	/* #APP */
 1288 077a 0E94 0000 		call __eeprom_read_byte_1F2021
 1289 077e 802D      		mov r24,__tmp_reg__
 1290               	/* #NOAPP */
 1291               	.LBE50:
 1292               	.LBE49:
 1293               	.LM182:
 1294 0780 0E94 0000 		call MAIN_Delay1MS
 1295               	.L158:
 1296               	/* epilogue: frame size=0 */
 1297 0784 DF91      		pop r29
 1298 0786 CF91      		pop r28
 1299 0788 1F91      		pop r17
 1300 078a 0895      		ret
 1301               	/* epilogue end (size=4) */
 1302               	/* function PM_SendEraseCommand size 50 (43) */
 1303               	.LFE21:
 1305               	.global	PM_CreateProgrammingPackets
 1307               	PM_CreateProgrammingPackets:
 1308               	.LFB22:
 1309               	.LM183:
 1310               	/* prologue: frame size=0 */
 1311 078c 3F92      		push r3
 1312 078e 4F92      		push r4
 1313 0790 5F92      		push r5
 1314 0792 6F92      		push r6
 1315 0794 7F92      		push r7
 1316 0796 8F92      		push r8
 1317 0798 9F92      		push r9
 1318 079a AF92      		push r10
 1319 079c BF92      		push r11
 1320 079e CF92      		push r12
 1321 07a0 DF92      		push r13
 1322 07a2 EF92      		push r14
 1323 07a4 FF92      		push r15
 1324 07a6 0F93      		push r16
 1325 07a8 1F93      		push r17
 1326 07aa CF93      		push r28
 1327 07ac DF93      		push r29
 1328               	/* prologue end (size=17) */
 1329 07ae C82F      		mov r28,r24
 1330               	.LM184:
 1331 07b0 AA24      		clr r10
 1332 07b2 BB24      		clr r11
 1333 07b4 6501      		movw r12,r10
 1334               	.LM185:
 1335 07b6 0E94 0000 		call PM_GetStoredDataSize
 1336 07ba 2B01      		movw r4,r22
 1337 07bc 3C01      		movw r6,r24
 1338               	.LM186:
 1339 07be 3324      		clr r3
 1340               	.LBB51:
 1341               	.LM187:
 1342 07c0 C130      		cpi r28,lo8(1)
 1343 07c2 19F4      		brne .L174
 1344               	.LM188:
 1345 07c4 A0E0      		ldi r26,lo8(EEPROMVars+129)
 1346 07c6 B0E0      		ldi r27,hi8(EEPROMVars+129)
 1347 07c8 02C0      		rjmp .L175
 1348               	.L174:
 1349 07ca A0E0      		ldi r26,lo8(EEPROMVars+131)
 1350 07cc B0E0      		ldi r27,hi8(EEPROMVars+131)
 1351               	.L175:
 1352               	.LBB52:
 1353               	.LM189:
 1354               	/* #APP */
 1355 07ce 0E94 0000 		call __eeprom_read_word_1F2021
 1356               		
 1357               	/* #NOAPP */
 1358 07d2 4F01      		movw r8,r30
 1359               	.LBE52:
 1360               	.LBE51:
 1361               	.LM190:
 1362 07d4 1092 0000 		sts CurrAddress,__zero_reg__
 1363 07d8 1092 0000 		sts (CurrAddress)+1,__zero_reg__
 1364 07dc 1092 0000 		sts (CurrAddress)+2,__zero_reg__
 1365 07e0 1092 0000 		sts (CurrAddress)+3,__zero_reg__
 1366               	.LM191:
 1367 07e4 C130      		cpi r28,lo8(1)
 1368 07e6 49F4      		brne .L177
 1369               	.LM192:
 1370 07e8 C0E0      		ldi r28,lo8(EEPROMVars+2)
 1371 07ea D0E0      		ldi r29,hi8(EEPROMVars+2)
 1372               	.LM193:
 1373 07ec 60E0      		ldi r22,lo8(0)
 1374 07ee 70E0      		ldi r23,hi8(0)
 1375 07f0 CB01      		movw r24,r22
 1376 07f2 0E94 0000 		call DF_ContinuousReadEnable
 1377               	.LM194:
 1378 07f6 83E1      		ldi r24,lo8(19)
 1379 07f8 09C0      		rjmp .L217
 1380               	.L177:
 1381               	.LM195:
 1382 07fa C0E0      		ldi r28,lo8(EEPROMVars+11)
 1383 07fc D0E0      		ldi r29,hi8(EEPROMVars+11)
 1384               	.LM196:
 1385 07fe 60EE      		ldi r22,lo8(224)
 1386 0800 70E0      		ldi r23,hi8(224)
 1387 0802 84EE      		ldi r24,lo8(996)
 1388 0804 93E0      		ldi r25,hi8(996)
 1389 0806 0E94 0000 		call DF_ContinuousReadEnable
 1390               	.LM197:
 1391 080a 85E1      		ldi r24,lo8(21)
 1392               	.L217:
 1393 080c 8093 0000 		sts PacketBytes,r24
 1394 0810 E0E0      		ldi r30,lo8(PacketBytes+1)
 1395 0812 F0E0      		ldi r31,hi8(PacketBytes+1)
 1396 0814 98E0      		ldi r25,lo8(8)
 1397               	.L183:
 1398               	.LBB53:
 1399               	.LBB54:
 1400               	.LBB55:
 1401               	.LM198:
 1402 0816 DE01      		movw r26,r28
 1403               	/* #APP */
 1404 0818 0E94 0000 		call __eeprom_read_byte_1F2021
 1405 081c 802D      		mov r24,__tmp_reg__
 1406               	/* #NOAPP */
 1407               	.LBE55:
 1408               	.LBE54:
 1409               	.LM199:
 1410 081e 8193      		st Z+,r24
 1411               	.LM200:
 1412 0820 2196      		adiw r28,1
 1413               	.LM201:
 1414 0822 9150      		subi r25,lo8(-(-1))
 1415 0824 97FF      		sbrs r25,7
 1416 0826 F7CF      		rjmp .L183
 1417               	.LBE53:
 1418               	.LM202:
 1419 0828 8091 0000 		lds r24,PacketBytes+1
 1420 082c 9927      		clr r25
 1421 082e D82F      		mov r29,r24
 1422 0830 CC27      		clr r28
 1423 0832 8091 0000 		lds r24,PacketBytes+2
 1424 0836 9927      		clr r25
 1425 0838 C82B      		or r28,r24
 1426 083a D92B      		or r29,r25
 1427               	.LM203:
 1428 083c A414      		cp r10,r4
 1429 083e B504      		cpc r11,r5
 1430 0840 C604      		cpc r12,r6
 1431 0842 D704      		cpc r13,r7
 1432 0844 08F0      		brlo .+2
 1433 0846 B2C0      		rjmp .L210
 1434               	.L206:
 1435               	.LM204:
 1436 0848 2091 0000 		lds r18,PacketBytes+3
 1437 084c 822F      		mov r24,r18
 1438 084e 9927      		clr r25
 1439 0850 AC01      		movw r20,r24
 1440 0852 4170      		andi r20,lo8(1)
 1441 0854 5070      		andi r21,hi8(1)
 1442 0856 80FF      		sbrs r24,0
 1443 0858 53C0      		rjmp .L186
 1444               	.LM205:
 1445 085a F1EA      		ldi r31,lo8(161)
 1446 085c 8F16      		cp r8,r31
 1447 085e 9104      		cpc r9,__zero_reg__
 1448 0860 60F1      		brlo .L187
 1449               	.LM206:
 1450 0862 3320      		tst r3
 1451 0864 41F4      		brne .L188
 1452               	.LM207:
 1453 0866 C0EA      		ldi r28,lo8(160)
 1454 0868 D0E0      		ldi r29,hi8(160)
 1455               	.LM208:
 1456 086a 2F77      		andi r18,lo8(127)
 1457 086c 2093 0000 		sts PacketBytes+3,r18
 1458               	.LM209:
 1459 0870 31E0      		ldi r19,lo8(1)
 1460 0872 332E      		mov r3,r19
 1461 0874 07C0      		rjmp .L189
 1462               	.L188:
 1463               	.LM210:
 1464 0876 E401      		movw r28,r8
 1465 0878 C05A      		subi r28,lo8(-(-160))
 1466 087a D040      		sbci r29,hi8(-(-160))
 1467               	.LM211:
 1468 087c 2068      		ori r18,lo8(-128)
 1469 087e 2093 0000 		sts PacketBytes+3,r18
 1470               	.LM212:
 1471 0882 3324      		clr r3
 1472               	.L189:
 1473               	.LBB56:
 1474               	.LM213:
 1475 0884 00E0      		ldi r16,lo8(0)
 1476 0886 10E0      		ldi r17,hi8(0)
 1477 0888 0C17      		cp r16,r28
 1478 088a 1D07      		cpc r17,r29
 1479 088c 78F4      		brsh .L212
 1480 088e 20E0      		ldi r18,lo8(PacketBytes+10)
 1481 0890 E22E      		mov r14,r18
 1482 0892 20E0      		ldi r18,hi8(PacketBytes+10)
 1483 0894 F22E      		mov r15,r18
 1484               	.L193:
 1485               	.LM214:
 1486 0896 80E0      		ldi r24,lo8(0)
 1487 0898 0E94 0000 		call SPI_SPITransmit
 1488 089c F701      		movw r30,r14
 1489 089e 8193      		st Z+,r24
 1490 08a0 7F01      		movw r14,r30
 1491               	.LM215:
 1492 08a2 0F5F      		subi r16,lo8(-(1))
 1493 08a4 1F4F      		sbci r17,hi8(-(1))
 1494 08a6 0C17      		cp r16,r28
 1495 08a8 1D07      		cpc r17,r29
 1496 08aa A8F3      		brlo .L193
 1497               	.L212:
 1498               	.LBE56:
 1499               	.LM216:
 1500 08ac 8D2F      		mov r24,r29
 1501 08ae 9927      		clr r25
 1502 08b0 8093 0000 		sts PacketBytes+1,r24
 1503               	.LM217:
 1504 08b4 C093 0000 		sts PacketBytes+2,r28
 1505 08b8 4BC0      		rjmp .L216
 1506               	.L187:
 1507               	.LBB57:
 1508               	.LM218:
 1509 08ba 00E0      		ldi r16,lo8(0)
 1510 08bc 10E0      		ldi r17,hi8(0)
 1511 08be 0815      		cp r16,r8
 1512 08c0 1905      		cpc r17,r9
 1513 08c2 78F4      		brsh .L214
 1514 08c4 80E0      		ldi r24,lo8(PacketBytes+10)
 1515 08c6 E82E      		mov r14,r24
 1516 08c8 80E0      		ldi r24,hi8(PacketBytes+10)
 1517 08ca F82E      		mov r15,r24
 1518               	.L198:
 1519               	.LM219:
 1520 08cc 80E0      		ldi r24,lo8(0)
 1521 08ce 0E94 0000 		call SPI_SPITransmit
 1522 08d2 F701      		movw r30,r14
 1523 08d4 8193      		st Z+,r24
 1524 08d6 7F01      		movw r14,r30
 1525               	.LM220:
 1526 08d8 0F5F      		subi r16,lo8(-(1))
 1527 08da 1F4F      		sbci r17,hi8(-(1))
 1528 08dc 0815      		cp r16,r8
 1529 08de 1905      		cpc r17,r9
 1530 08e0 A8F3      		brlo .L198
 1531               	.L214:
 1532               	.LBE57:
 1533               	.LM221:
 1534 08e2 892D      		mov r24,r9
 1535 08e4 9927      		clr r25
 1536 08e6 8093 0000 		sts PacketBytes+1,r24
 1537               	.LM222:
 1538 08ea 8092 0000 		sts PacketBytes+2,r8
 1539               	.LM223:
 1540 08ee 8091 0000 		lds r24,PacketBytes+3
 1541 08f2 8068      		ori r24,lo8(-128)
 1542 08f4 8093 0000 		sts PacketBytes+3,r24
 1543               	.LM224:
 1544 08f8 C401      		movw r24,r8
 1545 08fa AA27      		clr r26
 1546 08fc BB27      		clr r27
 1547 08fe 2BC0      		rjmp .L218
 1548               	.L186:
 1549               	.LM225:
 1550 0900 CE01      		movw r24,r28
 1551 0902 AA27      		clr r26
 1552 0904 BB27      		clr r27
 1553 0906 8A0D      		add r24,r10
 1554 0908 9B1D      		adc r25,r11
 1555 090a AC1D      		adc r26,r12
 1556 090c BD1D      		adc r27,r13
 1557 090e 4816      		cp r4,r24
 1558 0910 5906      		cpc r5,r25
 1559 0912 6A06      		cpc r6,r26
 1560 0914 7B06      		cpc r7,r27
 1561 0916 48F4      		brsh .L200
 1562               	.LM226:
 1563 0918 E201      		movw r28,r4
 1564 091a CA19      		sub r28,r10
 1565 091c DB09      		sbc r29,r11
 1566               	.LM227:
 1567 091e 8D2F      		mov r24,r29
 1568 0920 9927      		clr r25
 1569 0922 8093 0000 		sts PacketBytes+1,r24
 1570               	.LM228:
 1571 0926 C093 0000 		sts PacketBytes+2,r28
 1572               	.L200:
 1573               	.LBB58:
 1574               	.LM229:
 1575 092a 8A01      		movw r16,r20
 1576 092c 4C17      		cp r20,r28
 1577 092e 5D07      		cpc r21,r29
 1578 0930 78F4      		brsh .L216
 1579 0932 A0E0      		ldi r26,lo8(PacketBytes+10)
 1580 0934 EA2E      		mov r14,r26
 1581 0936 A0E0      		ldi r26,hi8(PacketBytes+10)
 1582 0938 FA2E      		mov r15,r26
 1583               	.L204:
 1584               	.LM230:
 1585 093a 80E0      		ldi r24,lo8(0)
 1586 093c 0E94 0000 		call SPI_SPITransmit
 1587 0940 F701      		movw r30,r14
 1588 0942 8193      		st Z+,r24
 1589 0944 7F01      		movw r14,r30
 1590               	.LM231:
 1591 0946 0F5F      		subi r16,lo8(-(1))
 1592 0948 1F4F      		sbci r17,hi8(-(1))
 1593 094a 0C17      		cp r16,r28
 1594 094c 1D07      		cpc r17,r29
 1595 094e A8F3      		brlo .L204
 1596               	.L216:
 1597               	.LBE58:
 1598               	.LM232:
 1599 0950 CE01      		movw r24,r28
 1600 0952 AA27      		clr r26
 1601 0954 BB27      		clr r27
 1602               	.L218:
 1603 0956 A80E      		add r10,r24
 1604 0958 B91E      		adc r11,r25
 1605 095a CA1E      		adc r12,r26
 1606 095c DB1E      		adc r13,r27
 1607               	.LM233:
 1608 095e A114      		cp r10,__zero_reg__
 1609 0960 B104      		cpc r11,__zero_reg__
 1610 0962 E1F4      		brne .L205
 1611 0964 E12C      		mov r14,__zero_reg__
 1612 0966 F12C      		mov r15,__zero_reg__
 1613 0968 FFEF      		ldi r31,hlo8(16711680)
 1614 096a 0F2F      		mov r16,r31
 1615 096c 112D      		mov r17,__zero_reg__
 1616 096e EA20      		and r14,r10
 1617 0970 FB20      		and r15,r11
 1618 0972 0C21      		and r16,r12
 1619 0974 1D21      		and r17,r13
 1620 0976 E114      		cp r14,__zero_reg__
 1621 0978 F104      		cpc r15,__zero_reg__
 1622 097a 0105      		cpc r16,__zero_reg__
 1623 097c 1105      		cpc r17,__zero_reg__
 1624 097e 71F0      		breq .L205
 1625               	.LM234:
 1626 0980 8DE4      		ldi r24,lo8(77)
 1627 0982 0E94 0000 		call USI_SPITransmit
 1628               	.LM235:
 1629 0986 80E0      		ldi r24,lo8(0)
 1630 0988 0E94 0000 		call USI_SPITransmit
 1631               	.LM236:
 1632 098c C801      		movw r24,r16
 1633 098e AA27      		clr r26
 1634 0990 BB27      		clr r27
 1635 0992 0E94 0000 		call USI_SPITransmit
 1636               	.LM237:
 1637 0996 80E0      		ldi r24,lo8(0)
 1638 0998 0E94 0000 		call USI_SPITransmit
 1639               	.L205:
 1640               	.LM238:
 1641 099c 0E94 0000 		call ISPCC_ProgramChip
 1642 09a0 A414      		cp r10,r4
 1643 09a2 B504      		cpc r11,r5
 1644 09a4 C604      		cpc r12,r6
 1645 09a6 D704      		cpc r13,r7
 1646 09a8 08F4      		brsh .+2
 1647 09aa 4ECF      		rjmp .L206
 1648               	.L210:
 1649               	/* epilogue: frame size=0 */
 1650 09ac DF91      		pop r29
 1651 09ae CF91      		pop r28
 1652 09b0 1F91      		pop r17
 1653 09b2 0F91      		pop r16
 1654 09b4 FF90      		pop r15
 1655 09b6 EF90      		pop r14
 1656 09b8 DF90      		pop r13
 1657 09ba CF90      		pop r12
 1658 09bc BF90      		pop r11
 1659 09be AF90      		pop r10
 1660 09c0 9F90      		pop r9
 1661 09c2 8F90      		pop r8
 1662 09c4 7F90      		pop r7
 1663 09c6 6F90      		pop r6
 1664 09c8 5F90      		pop r5
 1665 09ca 4F90      		pop r4
 1666 09cc 3F90      		pop r3
 1667 09ce 0895      		ret
 1668               	/* epilogue end (size=18) */
 1669               	/* function PM_CreateProgrammingPackets size 293 (258) */
 1670               	.LFE22:
 1672               		.section	.progmem.data,"a",@progbits
 1675               	__c.0:
 1676 0000 4441 5441 		.string	"DATA-"
 1676      2D00 
 1679               	__c.1:
 1680 0006 4550 524D 		.string	"EPRM-"
 1680      2D00 
 1683               	__c.2:
 1684 000c 4655 5345 		.string	"FUSE-"
 1684      2D00 
 1687               	__c.3:
 1688 0012 4C4F 434B 		.string	"LOCK-"
 1688      2D00 
 1689               		.text
 1690               	.global	PM_ShowStoredItemSizes
 1692               	PM_ShowStoredItemSizes:
 1693               	.LFB23:
 1694               	.LM239:
 1695               	/* prologue: frame size=14 */
 1696 09d0 1F93      		push r17
 1697 09d2 CF93      		push r28
 1698 09d4 DF93      		push r29
 1699 09d6 CDB7      		in r28,__SP_L__
 1700 09d8 DEB7      		in r29,__SP_H__
 1701 09da 2E97      		sbiw r28,14
 1702 09dc 0FB6      		in __tmp_reg__,__SREG__
 1703 09de F894      		cli
 1704 09e0 DEBF      		out __SP_H__,r29
 1705 09e2 0FBE      		out __SREG__,__tmp_reg__
 1706 09e4 CDBF      		out __SP_L__,r28
 1707               	/* prologue end (size=11) */
 1708               	.LM240:
 1709 09e6 10E0      		ldi r17,lo8(0)
 1710               	.LM241:
 1711 09e8 81E0      		ldi r24,lo8(1)
 1712 09ea 8EBB      		out 62-0x20,r24
 1713               	.L250:
 1714               	.LM242:
 1715 09ec 8EB3      		in r24,62-0x20
 1716 09ee 8823      		tst r24
 1717 09f0 E9F3      		breq .L250
 1718               	.LM243:
 1719 09f2 F69B      		sbis 62-0x20,6
 1720 09f4 06C0      		rjmp .L223
 1721               	.LM244:
 1722 09f6 1123      		tst r17
 1723 09f8 11F4      		brne .L224
 1724 09fa 13E0      		ldi r17,lo8(3)
 1725 09fc 0CC0      		rjmp .L226
 1726               	.L224:
 1727 09fe 1150      		subi r17,lo8(-(-1))
 1728 0a00 0AC0      		rjmp .L226
 1729               	.L223:
 1730               	.LM245:
 1731 0a02 F79B      		sbis 62-0x20,7
 1732 0a04 06C0      		rjmp .L227
 1733               	.LM246:
 1734 0a06 1330      		cpi r17,lo8(3)
 1735 0a08 11F4      		brne .L228
 1736 0a0a 10E0      		ldi r17,lo8(0)
 1737 0a0c 04C0      		rjmp .L226
 1738               	.L228:
 1739 0a0e 1F5F      		subi r17,lo8(-(1))
 1740 0a10 02C0      		rjmp .L226
 1741               	.L227:
 1742               	.LM247:
 1743 0a12 F299      		sbic 62-0x20,2
 1744 0a14 54C0      		rjmp .L219
 1745               	.L226:
 1746               	.LM248:
 1747 0a16 812F      		mov r24,r17
 1748 0a18 9927      		clr r25
 1749 0a1a 8130      		cpi r24,1
 1750 0a1c 9105      		cpc r25,__zero_reg__
 1751 0a1e A1F0      		breq .L234
 1752 0a20 8230      		cpi r24,2
 1753 0a22 9105      		cpc r25,__zero_reg__
 1754 0a24 1CF4      		brge .L243
 1755 0a26 892B      		or r24,r25
 1756 0a28 39F0      		breq .L233
 1757 0a2a 42C0      		rjmp .L232
 1758               	.L243:
 1759 0a2c 8230      		cpi r24,2
 1760 0a2e 9105      		cpc r25,__zero_reg__
 1761 0a30 01F1      		breq .L235
 1762 0a32 0397      		sbiw r24,3
 1763 0a34 39F1      		breq .L239
 1764 0a36 3CC0      		rjmp .L232
 1765               	.L233:
 1766               	.LM249:
 1767 0a38 60E0      		ldi r22,lo8(__c.0)
 1768 0a3a 70E0      		ldi r23,hi8(__c.0)
 1769 0a3c CE01      		movw r24,r28
 1770 0a3e 0196      		adiw r24,1
 1771 0a40 0E94 0000 		call strcpy_P
 1772               	.LM250:
 1773 0a44 81E0      		ldi r24,lo8(1)
 1774 0a46 07C0      		rjmp .L247
 1775               	.L234:
 1776               	.LM251:
 1777 0a48 60E0      		ldi r22,lo8(__c.1)
 1778 0a4a 70E0      		ldi r23,hi8(__c.1)
 1779 0a4c CE01      		movw r24,r28
 1780 0a4e 0196      		adiw r24,1
 1781 0a50 0E94 0000 		call strcpy_P
 1782               	.LM252:
 1783 0a54 80E0      		ldi r24,lo8(0)
 1784               	.L247:
 1785 0a56 0E94 0000 		call PM_GetStoredDataSize
 1786 0a5a DC01      		movw r26,r24
 1787 0a5c CB01      		movw r24,r22
 1788 0a5e 2AE0      		ldi r18,lo8(10)
 1789 0a60 30E0      		ldi r19,hi8(10)
 1790 0a62 AE01      		movw r20,r28
 1791 0a64 4A5F      		subi r20,lo8(-(6))
 1792 0a66 5F4F      		sbci r21,hi8(-(6))
 1793 0a68 BC01      		movw r22,r24
 1794 0a6a CD01      		movw r24,r26
 1795 0a6c 0E94 0000 		call ultoa
 1796               	.LM253:
 1797 0a70 1FC0      		rjmp .L232
 1798               	.L235:
 1799               	.LM254:
 1800 0a72 60E0      		ldi r22,lo8(__c.2)
 1801 0a74 70E0      		ldi r23,hi8(__c.2)
 1802 0a76 CE01      		movw r24,r28
 1803 0a78 0196      		adiw r24,1
 1804 0a7a 0E94 0000 		call strcpy_P
 1805               	.LBB59:
 1806               	.LM255:
 1807 0a7e A0E0      		ldi r26,lo8(EEPROMVars+47)
 1808 0a80 B0E0      		ldi r27,hi8(EEPROMVars+47)
 1809 0a82 08C0      		rjmp .L249
 1810               	.L239:
 1811               	.LBE59:
 1812               	.LM256:
 1813 0a84 60E0      		ldi r22,lo8(__c.3)
 1814 0a86 70E0      		ldi r23,hi8(__c.3)
 1815 0a88 CE01      		movw r24,r28
 1816 0a8a 0196      		adiw r24,1
 1817 0a8c 0E94 0000 		call strcpy_P
 1818               	.LBB60:
 1819               	.LM257:
 1820 0a90 A0E0      		ldi r26,lo8(EEPROMVars+48)
 1821 0a92 B0E0      		ldi r27,hi8(EEPROMVars+48)
 1822               	.L249:
 1823               	.LBB61:
 1824               	.LM258:
 1825               	/* #APP */
 1826 0a94 0E94 0000 		call __eeprom_read_byte_1F2021
 1827 0a98 802D      		mov r24,__tmp_reg__
 1828               	/* #NOAPP */
 1829               	.LBE61:
 1830               	.LBE60:
 1831               	.LM259:
 1832 0a9a 8F3F      		cpi r24,lo8(-1)
 1833 0a9c 11F0      		breq .L241
 1834 0a9e 9927      		clr r25
 1835 0aa0 02C0      		rjmp .L242
 1836               	.L241:
 1837 0aa2 80E0      		ldi r24,lo8(0)
 1838 0aa4 90E0      		ldi r25,hi8(0)
 1839               	.L242:
 1840 0aa6 BE01      		movw r22,r28
 1841 0aa8 6A5F      		subi r22,lo8(-(6))
 1842 0aaa 7F4F      		sbci r23,hi8(-(6))
 1843 0aac 0E94 0000 		call MAIN_IntToStr
 1844               	.L232:
 1845               	.LM260:
 1846 0ab0 CE01      		movw r24,r28
 1847 0ab2 0196      		adiw r24,1
 1848 0ab4 0E94 0000 		call LCD_puts
 1849               	.LM261:
 1850 0ab8 0E94 0000 		call MAIN_WaitForJoyRelease
 1851 0abc 97CF      		rjmp .L250
 1852               	.L219:
 1853               	/* epilogue: frame size=14 */
 1854 0abe 2E96      		adiw r28,14
 1855 0ac0 0FB6      		in __tmp_reg__,__SREG__
 1856 0ac2 F894      		cli
 1857 0ac4 DEBF      		out __SP_H__,r29
 1858 0ac6 0FBE      		out __SREG__,__tmp_reg__
 1859 0ac8 CDBF      		out __SP_L__,r28
 1860 0aca DF91      		pop r29
 1861 0acc CF91      		pop r28
 1862 0ace 1F91      		pop r17
 1863 0ad0 0895      		ret
 1864               	/* epilogue end (size=10) */
 1865               	/* function PM_ShowStoredItemSizes size 131 (110) */
 1866               	.LFE23:
 1868               	.Letext0:
DEFINED SYMBOLS
                            *ABS*:00000000 ProgramManager.c
C:\DOCUME~1\Dean\LOCALS~1\Temp/ccIZaaaa.s:3      *ABS*:0000003f __SREG__
C:\DOCUME~1\Dean\LOCALS~1\Temp/ccIZaaaa.s:4      *ABS*:0000003e __SP_H__
C:\DOCUME~1\Dean\LOCALS~1\Temp/ccIZaaaa.s:5      *ABS*:0000003d __SP_L__
C:\DOCUME~1\Dean\LOCALS~1\Temp/ccIZaaaa.s:6      *ABS*:00000000 __tmp_reg__
C:\DOCUME~1\Dean\LOCALS~1\Temp/ccIZaaaa.s:7      *ABS*:00000001 __zero_reg__
C:\DOCUME~1\Dean\LOCALS~1\Temp/ccIZaaaa.s:23     .bss:00000000 GPageLength
C:\DOCUME~1\Dean\LOCALS~1\Temp/ccIZaaaa.s:29     .bss:00000002 CurrentMode
C:\DOCUME~1\Dean\LOCALS~1\Temp/ccIZaaaa.s:35     .bss:00000003 MemoryType
C:\DOCUME~1\Dean\LOCALS~1\Temp/ccIZaaaa.s:40     .text:00000000 PM_GetStoredDataSize
C:\DOCUME~1\Dean\LOCALS~1\Temp/ccIZaaaa.s:126    .text:0000006e PM_SetupDFAddressCounters
C:\DOCUME~1\Dean\LOCALS~1\Temp/ccIZaaaa.s:205    .text:000000f2 PM_StoreProgramByte
C:\DOCUME~1\Dean\LOCALS~1\Temp/ccIZaaaa.s:259    .text:0000015c PM_CheckEndOfProgramming
C:\DOCUME~1\Dean\LOCALS~1\Temp/ccIZaaaa.s:372    .text:0000020e PM_CheckEndOfFuseLockStore
C:\DOCUME~1\Dean\LOCALS~1\Temp/ccIZaaaa.s:412    .text:00000234 PM_InterpretAVRISPPacket
C:\DOCUME~1\Dean\LOCALS~1\Temp/ccIZaaaa.s:1129   .text:000006cc PM_SendFuseLockBytes
C:\DOCUME~1\Dean\LOCALS~1\Temp/ccIZaaaa.s:1220   .text:0000072e PM_SendEraseCommand
C:\DOCUME~1\Dean\LOCALS~1\Temp/ccIZaaaa.s:1307   .text:0000078c PM_CreateProgrammingPackets
C:\DOCUME~1\Dean\LOCALS~1\Temp/ccIZaaaa.s:1675   .progmem.data:00000000 __c.0
C:\DOCUME~1\Dean\LOCALS~1\Temp/ccIZaaaa.s:1679   .progmem.data:00000006 __c.1
C:\DOCUME~1\Dean\LOCALS~1\Temp/ccIZaaaa.s:1683   .progmem.data:0000000c __c.2
C:\DOCUME~1\Dean\LOCALS~1\Temp/ccIZaaaa.s:1687   .progmem.data:00000012 __c.3
C:\DOCUME~1\Dean\LOCALS~1\Temp/ccIZaaaa.s:1692   .text:000009d0 PM_ShowStoredItemSizes

UNDEFINED SYMBOLS
__do_copy_data
__do_clear_bss
EEPROMVars
__eeprom_read_block_1F2021
CurrAddress
CurrPageAddress
CurrBuffByte
DF_CopyBufferToFlashPage
DF_BufferWriteEnable
SPI_SPITransmit
__mulsi3
__eeprom_write_block_1F2021
__eeprom_write_byte_1F2021
PacketBytes
MessageSize
InProgrammingMode
DF_EnableDataflash
__eeprom_read_byte_1F2021
__eeprom_write_word_1F2021
DF_ContinuousReadEnable
V2P_IncrementCurrAddress
V2P_SendPacket
USI_SPITransmit
MAIN_Delay10MS
USI_SPITransmitWord
MAIN_Delay1MS
__eeprom_read_word_1F2021
ISPCC_ProgramChip
strcpy_P
ultoa
MAIN_IntToStr
LCD_puts
MAIN_WaitForJoyRelease
