   1               		.file	"ProgramManager.c"
   2               		.arch atmega169
   3               	__SREG__ = 0x3f
   4               	__SP_H__ = 0x3e
   5               	__SP_L__ = 0x3d
   6               	__tmp_reg__ = 0
   7               	__zero_reg__ = 1
   8               		.global __do_copy_data
   9               		.global __do_clear_bss
  17               	.Ltext0:
  18               	.global	PM_SetupDFAddressCounters
  20               	PM_SetupDFAddressCounters:
  21               	.LFB15:
  22               	.LM1:
  23               	/* prologue: frame size=0 */
  24               	/* prologue end (size=0) */
  25               	.LVL0:
  26               	.LM2:
  27 0000 8093 0000 		sts MemoryType,r24
  28               	.LM3:
  29 0004 1092 0000 		sts (GPageLength)+1,__zero_reg__
  30 0008 1092 0000 		sts GPageLength,__zero_reg__
  31 000c 2091 0000 		lds r18,CurrAddress
  32 0010 3091 0000 		lds r19,(CurrAddress)+1
  33 0014 4091 0000 		lds r20,(CurrAddress)+2
  34 0018 5091 0000 		lds r21,(CurrAddress)+3
  35               	.LM4:
  36 001c 8130      		cpi r24,lo8(1)
  37 001e 01F4      		brne .L2
  38               	.LM5:
  39 0020 DA01      		movw r26,r20
  40 0022 C901      		movw r24,r18
  41               	.LVL1:
  42 0024 880F      		lsl r24
  43 0026 991F      		rol r25
  44 0028 AA1F      		rol r26
  45 002a BB1F      		rol r27
  46 002c 00C0      		rjmp .L4
  47               	.LVL2:
  48               	.L2:
  49               	.LM6:
  50 002e DA01      		movw r26,r20
  51 0030 C901      		movw r24,r18
  52               	.LVL3:
  53 0032 8050      		subi r24,lo8(-(263168))
  54 0034 9C4F      		sbci r25,hi8(-(263168))
  55 0036 AB4F      		sbci r26,hlo8(-(263168))
  56 0038 BF4F      		sbci r27,hhi8(-(263168))
  57               	.L4:
  58               	.LM7:
  59 003a 1092 0000 		sts (DataflashInfo+6)+1,__zero_reg__
  60 003e 1092 0000 		sts DataflashInfo+6,__zero_reg__
  61 0042 20E0      		ldi r18,lo8(0)
  62 0044 30E0      		ldi r19,hi8(0)
  63 0046 00C0      		rjmp .L5
  64               	.L6:
  65               	.LM8:
  66 0048 8850      		subi r24,lo8(-(-264))
  67 004a 9140      		sbci r25,hi8(-(-264))
  68 004c A040      		sbci r26,hlo8(-(-264))
  69 004e B040      		sbci r27,hhi8(-(-264))
  70 0050 2F5F      		subi r18,lo8(-(1))
  71 0052 3F4F      		sbci r19,hi8(-(1))
  72               	.L5:
  73               	.LM9:
  74 0054 8830      		cpi r24,lo8(264)
  75 0056 41E0      		ldi r20,hi8(264)
  76 0058 9407      		cpc r25,r20
  77 005a 40E0      		ldi r20,hlo8(264)
  78 005c A407      		cpc r26,r20
  79 005e 40E0      		ldi r20,hhi8(264)
  80 0060 B407      		cpc r27,r20
  81 0062 00F4      		brsh .L6
  82 0064 3093 0000 		sts (DataflashInfo+6)+1,r19
  83 0068 2093 0000 		sts DataflashInfo+6,r18
  84               	.LM10:
  85 006c 9093 0000 		sts (DataflashInfo+8)+1,r25
  86 0070 8093 0000 		sts DataflashInfo+8,r24
  87               	/* epilogue: frame size=0 */
  88 0074 0895      		ret
  89               	/* epilogue end (size=1) */
  90               	/* function PM_SetupDFAddressCounters size 59 (58) */
  91               	.LFE15:
  93               	.global	PM_CheckEndOfFuseLockData
  95               	PM_CheckEndOfFuseLockData:
  96               	.LFB18:
  97               	.LM11:
  98               	/* prologue: frame size=4 */
  99 0076 CF93      		push r28
 100 0078 DF93      		push r29
 101 007a CDB7      		in r28,__SP_L__
 102 007c DEB7      		in r29,__SP_H__
 103 007e 2497      		sbiw r28,4
 104 0080 0FB6      		in __tmp_reg__,__SREG__
 105 0082 F894      		cli
 106 0084 DEBF      		out __SP_H__,r29
 107 0086 0FBE      		out __SREG__,__tmp_reg__
 108 0088 CDBF      		out __SP_L__,r28
 109               	/* prologue end (size=10) */
 110               	.LM12:
 111 008a 8091 0000 		lds r24,CurrentMode
 112 008e 8130      		cpi r24,lo8(1)
 113 0090 01F0      		breq .+2
 114 0092 00C0      		rjmp .L10
 115               	.LBB17:
 116               	.LM13:
 117 0094 8091 0000 		lds r24,DataflashInfo+8
 118 0098 9091 0000 		lds r25,(DataflashInfo+8)+1
 119 009c 892B      		or r24,r25
 120 009e 01F0      		breq .L12
 121               	.LM14:
 122 00a0 8091 0000 		lds r24,DataflashInfo+6
 123 00a4 9091 0000 		lds r25,(DataflashInfo+6)+1
 124 00a8 0E94 0000 		call DF_CopyBufferToFlashPage
 125               	.L12:
 126               	.LM15:
 127 00ac 2091 0000 		lds r18,DataflashInfo+6
 128 00b0 3091 0000 		lds r19,(DataflashInfo+6)+1
 129 00b4 88E0      		ldi r24,lo8(264)
 130 00b6 91E0      		ldi r25,hi8(264)
 131 00b8 AC01      		movw r20,r24
 132 00ba 249F      		mul r18,r20
 133 00bc C001      		movw r24,r0
 134 00be 259F      		mul r18,r21
 135 00c0 900D      		add r25,r0
 136 00c2 349F      		mul r19,r20
 137 00c4 900D      		add r25,r0
 138 00c6 1124      		clr r1
 139 00c8 2091 0000 		lds r18,DataflashInfo+8
 140 00cc 3091 0000 		lds r19,(DataflashInfo+8)+1
 141 00d0 820F      		add r24,r18
 142 00d2 931F      		adc r25,r19
 143 00d4 9C01      		movw r18,r24
 144 00d6 4427      		clr r20
 145 00d8 5527      		clr r21
 146 00da 2983      		std Y+1,r18
 147 00dc 3A83      		std Y+2,r19
 148 00de 4B83      		std Y+3,r20
 149 00e0 5C83      		std Y+4,r21
 150               	.LVL4:
 151               	.LM16:
 152 00e2 8091 0000 		lds r24,MemoryType
 153 00e6 FE01      		movw r30,r28
 154 00e8 3196      		adiw r30,1
 155 00ea 8130      		cpi r24,lo8(1)
 156 00ec 01F4      		brne .L14
 157               	.LBB18:
 158               	.LBB19:
 159               	.LBB20:
 160               	.LM17:
 161 00ee 84E0      		ldi r24,lo8(4)
 162 00f0 A0E0      		ldi r26,lo8(EEPROMVars+31)
 163 00f2 B0E0      		ldi r27,hi8(EEPROMVars+31)
 164 00f4 00C0      		rjmp .L22
 165               	.L14:
 166               	.LBE20:
 167               	.LBE19:
 168               	.LBE18:
 169               	.LM18:
 170 00f6 2050      		subi r18,lo8(-(-263168))
 171 00f8 3440      		sbci r19,hi8(-(-263168))
 172 00fa 4440      		sbci r20,hlo8(-(-263168))
 173 00fc 5040      		sbci r21,hhi8(-(-263168))
 174 00fe 2983      		std Y+1,r18
 175 0100 3A83      		std Y+2,r19
 176 0102 4B83      		std Y+3,r20
 177 0104 5C83      		std Y+4,r21
 178               	.LBB21:
 179               	.LBB22:
 180               	.LBB23:
 181               	.LM19:
 182 0106 84E0      		ldi r24,lo8(4)
 183 0108 A0E0      		ldi r26,lo8(EEPROMVars+35)
 184 010a B0E0      		ldi r27,hi8(EEPROMVars+35)
 185               	.L22:
 186               	/* #APP */
 187 010c 182E      		mov __zero_reg__,r24
 188 010e 0E94 0000 		call __eeprom_write_block_1F2021
 189               	.LVL5:
 190               	/* #NOAPP */
 191 0112 00C0      		rjmp .L21
 192               	.LVL6:
 193               	.L10:
 194               	.LBE23:
 195               	.LBE22:
 196               	.LBE21:
 197               	.LBE17:
 198               	.LM20:
 199 0114 8330      		cpi r24,lo8(3)
 200 0116 01F4      		brne .L21
 201               	.LM21:
 202 0118 2091 0000 		lds r18,DataflashInfo+8
 203 011c 3091 0000 		lds r19,(DataflashInfo+8)+1
 204 0120 8091 0000 		lds r24,MemoryType
 205 0124 8230      		cpi r24,lo8(2)
 206 0126 01F4      		brne .L18
 207 0128 A0E0      		ldi r26,lo8(EEPROMVars+51)
 208 012a B0E0      		ldi r27,hi8(EEPROMVars+51)
 209               	.LVL7:
 210 012c 00C0      		rjmp .L20
 211               	.LVL8:
 212               	.L18:
 213 012e A0E0      		ldi r26,lo8(EEPROMVars+52)
 214 0130 B0E0      		ldi r27,hi8(EEPROMVars+52)
 215               	.LVL9:
 216               	.L20:
 217               	.LBB24:
 218               	.LBB25:
 219               	.LM22:
 220               	/* #APP */
 221 0132 022E      		mov __tmp_reg__,r18
 222 0134 0E94 0000 		call __eeprom_write_byte_1F2021
 223               	.LVL10:
 224               	/* #NOAPP */
 225               	.L21:
 226               	.LBE25:
 227               	.LBE24:
 228               	/* epilogue: frame size=4 */
 229 0138 2496      		adiw r28,4
 230 013a 0FB6      		in __tmp_reg__,__SREG__
 231 013c F894      		cli
 232 013e DEBF      		out __SP_H__,r29
 233 0140 0FBE      		out __SREG__,__tmp_reg__
 234 0142 CDBF      		out __SP_L__,r28
 235 0144 DF91      		pop r29
 236 0146 CF91      		pop r28
 237 0148 0895      		ret
 238               	/* epilogue end (size=9) */
 239               	/* function PM_CheckEndOfFuseLockData size 108 (89) */
 240               	.LFE18:
 242               	.global	PM_GetStoredDataSize
 244               	PM_GetStoredDataSize:
 245               	.LFB14:
 246               	.LM23:
 247               	/* prologue: frame size=4 */
 248 014a CF93      		push r28
 249 014c DF93      		push r29
 250 014e CDB7      		in r28,__SP_L__
 251 0150 DEB7      		in r29,__SP_H__
 252 0152 2497      		sbiw r28,4
 253 0154 0FB6      		in __tmp_reg__,__SREG__
 254 0156 F894      		cli
 255 0158 DEBF      		out __SP_H__,r29
 256 015a 0FBE      		out __SREG__,__tmp_reg__
 257 015c CDBF      		out __SP_L__,r28
 258               	/* prologue end (size=10) */
 259               	.LVL11:
 260               	.LM24:
 261 015e 8130      		cpi r24,lo8(1)
 262 0160 01F4      		brne .L24
 263               	.LM25:
 264 0162 A0E0      		ldi r26,lo8(EEPROMVars+31)
 265 0164 B0E0      		ldi r27,hi8(EEPROMVars+31)
 266 0166 00C0      		rjmp .L26
 267               	.L24:
 268 0168 A0E0      		ldi r26,lo8(EEPROMVars+35)
 269 016a B0E0      		ldi r27,hi8(EEPROMVars+35)
 270               	.L26:
 271               	.LBB26:
 272               	.LBB27:
 273               	.LBB28:
 274               	.LM26:
 275 016c 84E0      		ldi r24,lo8(4)
 276               	.LVL12:
 277 016e FE01      		movw r30,r28
 278 0170 3196      		adiw r30,1
 279               	/* #APP */
 280 0172 182E      		mov __zero_reg__,r24
 281 0174 0E94 0000 		call __eeprom_read_block_1F2021
 282               	.LVL13:
 283               	.LVL14:
 284               	/* #NOAPP */
 285               	.LBE28:
 286               	.LBE27:
 287               	.LBE26:
 288               	.LM27:
 289 0178 6981      		ldd r22,Y+1
 290 017a 7A81      		ldd r23,Y+2
 291 017c 8B81      		ldd r24,Y+3
 292 017e 9C81      		ldd r25,Y+4
 293 0180 6F3F      		cpi r22,lo8(-1)
 294 0182 2FEF      		ldi r18,hi8(-1)
 295 0184 7207      		cpc r23,r18
 296 0186 2FEF      		ldi r18,hlo8(-1)
 297 0188 8207      		cpc r24,r18
 298 018a 2FEF      		ldi r18,hhi8(-1)
 299 018c 9207      		cpc r25,r18
 300 018e 01F4      		brne .L27
 301 0190 60E0      		ldi r22,lo8(0)
 302 0192 70E0      		ldi r23,hi8(0)
 303 0194 80E0      		ldi r24,hlo8(0)
 304 0196 90E0      		ldi r25,hhi8(0)
 305               	.L27:
 306               	/* epilogue: frame size=4 */
 307 0198 2496      		adiw r28,4
 308 019a 0FB6      		in __tmp_reg__,__SREG__
 309 019c F894      		cli
 310 019e DEBF      		out __SP_H__,r29
 311 01a0 0FBE      		out __SREG__,__tmp_reg__
 312 01a2 CDBF      		out __SP_L__,r28
 313 01a4 DF91      		pop r29
 314 01a6 CF91      		pop r28
 315 01a8 0895      		ret
 316               	/* epilogue end (size=9) */
 317               	/* function PM_GetStoredDataSize size 49 (30) */
 318               	.LFE14:
 320               	.global	PM_StoreProgramByte
 322               	PM_StoreProgramByte:
 323               	.LFB16:
 324               	.LM28:
 325               	/* prologue: frame size=0 */
 326 01aa 1F93      		push r17
 327               	/* prologue end (size=1) */
 328               	.LVL15:
 329 01ac 182F      		mov r17,r24
 330               	.LM29:
 331 01ae 8091 0000 		lds r24,DataflashInfo+8
 332 01b2 9091 0000 		lds r25,(DataflashInfo+8)+1
 333               	.LVL16:
 334 01b6 8850      		subi r24,lo8(264)
 335 01b8 9140      		sbci r25,hi8(264)
 336 01ba 01F4      		brne .L31
 337               	.LM30:
 338 01bc 8091 0000 		lds r24,DataflashInfo+6
 339 01c0 9091 0000 		lds r25,(DataflashInfo+6)+1
 340 01c4 0196      		adiw r24,1
 341 01c6 9093 0000 		sts (DataflashInfo+6)+1,r25
 342 01ca 8093 0000 		sts DataflashInfo+6,r24
 343 01ce 0197      		sbiw r24,1
 344 01d0 0E94 0000 		call DF_CopyBufferToFlashPage
 345               	.LM31:
 346 01d4 80E0      		ldi r24,lo8(0)
 347 01d6 90E0      		ldi r25,hi8(0)
 348 01d8 0E94 0000 		call DF_BufferWriteEnable
 349               	.LM32:
 350 01dc 1092 0000 		sts (DataflashInfo+8)+1,__zero_reg__
 351 01e0 1092 0000 		sts DataflashInfo+8,__zero_reg__
 352               	.L31:
 353               	.LM33:
 354 01e4 812F      		mov r24,r17
 355 01e6 0E94 0000 		call SPI_SPITransmit
 356               	.LM34:
 357 01ea 8091 0000 		lds r24,DataflashInfo+8
 358 01ee 9091 0000 		lds r25,(DataflashInfo+8)+1
 359 01f2 0196      		adiw r24,1
 360 01f4 9093 0000 		sts (DataflashInfo+8)+1,r25
 361 01f8 8093 0000 		sts DataflashInfo+8,r24
 362               	.LM35:
 363 01fc 8091 0000 		lds r24,GPageLength
 364 0200 9091 0000 		lds r25,(GPageLength)+1
 365 0204 0196      		adiw r24,1
 366 0206 9093 0000 		sts (GPageLength)+1,r25
 367 020a 8093 0000 		sts GPageLength,r24
 368               	/* epilogue: frame size=0 */
 369 020e 1F91      		pop r17
 370 0210 0895      		ret
 371               	/* epilogue end (size=2) */
 372               	/* function PM_StoreProgramByte size 53 (50) */
 373               	.LFE16:
 375               	.global	PM_SendFuseLockBytes
 377               	PM_SendFuseLockBytes:
 378               	.LFB19:
 379               	.LM36:
 380               	/* prologue: frame size=0 */
 381 0212 EF92      		push r14
 382 0214 FF92      		push r15
 383 0216 0F93      		push r16
 384 0218 1F93      		push r17
 385 021a CF93      		push r28
 386 021c DF93      		push r29
 387               	/* prologue end (size=6) */
 388               	.LVL17:
 389               	.LM37:
 390 021e 8230      		cpi r24,lo8(2)
 391 0220 01F4      		brne .L35
 392               	.LBB36:
 393               	.LBB37:
 394               	.LM38:
 395 0222 40E0      		ldi r20,lo8(EEPROMVars+51)
 396 0224 50E0      		ldi r21,hi8(EEPROMVars+51)
 397 0226 DA01      		movw r26,r20
 398               	/* #APP */
 399 0228 0E94 0000 		call __eeprom_read_byte_1F2021
 400 022c 802D      		mov r24,__tmp_reg__
 401               	.LVL18:
 402               	/* #NOAPP */
 403               	.LBE37:
 404               	.LBE36:
 405               	.LM39:
 406 022e 182F      		mov r17,r24
 407               	.LVL19:
 408 0230 62E0      		ldi r22,lo8(2)
 409 0232 E62E      		mov r14,r22
 410 0234 F12C      		mov r15,__zero_reg__
 411               	.LVL20:
 412 0236 00C0      		rjmp .L52
 413               	.LVL21:
 414               	.L35:
 415               	.LBB38:
 416               	.LBB39:
 417               	.LM40:
 418 0238 40E0      		ldi r20,lo8(EEPROMVars+52)
 419 023a 50E0      		ldi r21,hi8(EEPROMVars+52)
 420 023c DA01      		movw r26,r20
 421               	/* #APP */
 422 023e 0E94 0000 		call __eeprom_read_byte_1F2021
 423 0242 802D      		mov r24,__tmp_reg__
 424               	.LVL22:
 425               	/* #NOAPP */
 426               	.LBE39:
 427               	.LBE38:
 428               	.LM41:
 429 0244 182F      		mov r17,r24
 430               	.LVL23:
 431 0246 39E2      		ldi r19,lo8(41)
 432 0248 E32E      		mov r14,r19
 433 024a F12C      		mov r15,__zero_reg__
 434               	.LVL24:
 435               	.L52:
 436 024c E40E      		add r14,r20
 437 024e F51E      		adc r15,r21
 438 0250 00C0      		rjmp .L53
 439               	.LVL25:
 440               	.L38:
 441 0252 E701      		movw r28,r14
 442 0254 00E0      		ldi r16,lo8(0)
 443               	.L39:
 444               	.LBB40:
 445               	.LBB41:
 446               	.LBB42:
 447               	.LM42:
 448 0256 DE01      		movw r26,r28
 449               	.LVL26:
 450               	/* #APP */
 451 0258 0E94 0000 		call __eeprom_read_byte_1F2021
 452 025c 802D      		mov r24,__tmp_reg__
 453               	.LVL27:
 454               	/* #NOAPP */
 455               	.LBE42:
 456               	.LBE41:
 457               	.LM43:
 458 025e 0E94 0000 		call USI_SPITransmit
 459               	.LVL28:
 460               	.LM44:
 461 0262 2196      		adiw r28,1
 462               	.LM45:
 463 0264 0F5F      		subi r16,lo8(-(1))
 464 0266 0430      		cpi r16,lo8(4)
 465 0268 01F4      		brne .L39
 466 026a 84E0      		ldi r24,lo8(4)
 467 026c 90E0      		ldi r25,hi8(4)
 468 026e E80E      		add r14,r24
 469 0270 F91E      		adc r15,r25
 470               	.LBE40:
 471               	.LM46:
 472 0272 1123      		tst r17
 473 0274 01F0      		breq .L53
 474               	.LM47:
 475 0276 85E0      		ldi r24,lo8(5)
 476 0278 0E94 0000 		call MAIN_Delay10MS
 477               	.LVL29:
 478               	.L53:
 479               	.LM48:
 480 027c 1150      		subi r17,1
 481 027e 00F4      		brcc .L38
 482               	/* epilogue: frame size=0 */
 483 0280 DF91      		pop r29
 484 0282 CF91      		pop r28
 485 0284 1F91      		pop r17
 486 0286 0F91      		pop r16
 487 0288 FF90      		pop r15
 488 028a EF90      		pop r14
 489 028c 0895      		ret
 490               	/* epilogue end (size=7) */
 491               	/* function PM_SendFuseLockBytes size 64 (51) */
 492               	.LFE19:
 494               	.global	PM_SendEraseCommand
 496               	PM_SendEraseCommand:
 497               	.LFB20:
 498               	.LM49:
 499               	/* prologue: frame size=0 */
 500 028e CF93      		push r28
 501 0290 DF93      		push r29
 502               	/* prologue end (size=2) */
 503 0292 C0E0      		ldi r28,lo8(EEPROMVars+27)
 504 0294 D0E0      		ldi r29,hi8(EEPROMVars+27)
 505               	.L55:
 506               	.LBB50:
 507               	.LBB51:
 508               	.LBB52:
 509               	.LM50:
 510 0296 DE01      		movw r26,r28
 511               	.LVL30:
 512               	/* #APP */
 513 0298 0E94 0000 		call __eeprom_read_byte_1F2021
 514 029c 802D      		mov r24,__tmp_reg__
 515               	.LVL31:
 516               	/* #NOAPP */
 517               	.LBE52:
 518               	.LBE51:
 519               	.LM51:
 520 029e 0E94 0000 		call USI_SPITransmit
 521               	.LVL32:
 522 02a2 2196      		adiw r28,1
 523               	.LM52:
 524 02a4 80E0      		ldi r24,hi8(EEPROMVars+31)
 525 02a6 C030      		cpi r28,lo8(EEPROMVars+31)
 526 02a8 D807      		cpc r29,r24
 527 02aa 01F4      		brne .L55
 528               	.LBE50:
 529               	.LBB53:
 530               	.LBB54:
 531               	.LM53:
 532 02ac 2597      		sbiw r28,5
 533 02ae DE01      		movw r26,r28
 534               	.LVL33:
 535               	/* #APP */
 536 02b0 0E94 0000 		call __eeprom_read_byte_1F2021
 537 02b4 802D      		mov r24,__tmp_reg__
 538               	.LVL34:
 539               	/* #NOAPP */
 540 02b6 2596      		adiw r28,5
 541               	.LBE54:
 542               	.LBE53:
 543               	.LM54:
 544 02b8 8823      		tst r24
 545 02ba 01F0      		breq .L57
 546               	.L61:
 547               	.LM55:
 548 02bc 80E0      		ldi r24,lo8(-4096)
 549 02be 90EF      		ldi r25,hi8(-4096)
 550               	.LVL35:
 551 02c0 0E94 0000 		call USI_SPITransmitWord
 552               	.LVL36:
 553               	.LM56:
 554 02c4 80E0      		ldi r24,lo8(0)
 555 02c6 90E0      		ldi r25,hi8(0)
 556 02c8 0E94 0000 		call USI_SPITransmitWord
 557 02cc 80FF      		sbrs r24,0
 558 02ce 00C0      		rjmp .L60
 559 02d0 00C0      		rjmp .L61
 560               	.LVL37:
 561               	.L57:
 562               	.LBB55:
 563               	.LBB56:
 564               	.LM57:
 565 02d2 2697      		sbiw r28,6
 566 02d4 DE01      		movw r26,r28
 567               	.LVL38:
 568               	/* #APP */
 569 02d6 0E94 0000 		call __eeprom_read_byte_1F2021
 570 02da 802D      		mov r24,__tmp_reg__
 571               	.LVL39:
 572               	/* #NOAPP */
 573               	.LBE56:
 574               	.LBE55:
 575               	.LM58:
 576 02dc 0E94 0000 		call MAIN_Delay1MS
 577               	.LVL40:
 578               	.L60:
 579               	/* epilogue: frame size=0 */
 580 02e0 DF91      		pop r29
 581 02e2 CF91      		pop r28
 582 02e4 0895      		ret
 583               	/* epilogue end (size=3) */
 584               	/* function PM_SendEraseCommand size 47 (42) */
 585               	.LFE20:
 587               	.global	PM_CreateProgrammingPackets
 589               	PM_CreateProgrammingPackets:
 590               	.LFB21:
 591               	.LM59:
 592               	/* prologue: frame size=0 */
 593 02e6 3F92      		push r3
 594 02e8 4F92      		push r4
 595 02ea 5F92      		push r5
 596 02ec 6F92      		push r6
 597 02ee 7F92      		push r7
 598 02f0 8F92      		push r8
 599 02f2 9F92      		push r9
 600 02f4 AF92      		push r10
 601 02f6 BF92      		push r11
 602 02f8 CF92      		push r12
 603 02fa DF92      		push r13
 604 02fc EF92      		push r14
 605 02fe FF92      		push r15
 606 0300 0F93      		push r16
 607 0302 1F93      		push r17
 608 0304 CF93      		push r28
 609 0306 DF93      		push r29
 610               	/* prologue end (size=17) */
 611               	.LVL41:
 612 0308 182F      		mov r17,r24
 613               	.LM60:
 614 030a 0E94 0000 		call PM_GetStoredDataSize
 615               	.LVL42:
 616 030e 2B01      		movw r4,r22
 617 0310 3C01      		movw r6,r24
 618               	.LVL43:
 619               	.LM61:
 620 0312 1130      		cpi r17,lo8(1)
 621 0314 01F0      		breq .+2
 622 0316 00C0      		rjmp .L66
 623               	.LBB65:
 624               	.LBB66:
 625               	.LM62:
 626 0318 A0E0      		ldi r26,lo8(EEPROMVars+133)
 627 031a B0E0      		ldi r27,hi8(EEPROMVars+133)
 628               	/* #APP */
 629 031c 0E94 0000 		call __eeprom_read_word_1F2021
 630               		
 631               	.LVL44:
 632               	/* #NOAPP */
 633 0320 4F01      		movw r8,r30
 634               	.LVL45:
 635               	.LBE66:
 636               	.LBE65:
 637               	.LM63:
 638 0322 1092 0000 		sts CurrAddress,__zero_reg__
 639 0326 1092 0000 		sts (CurrAddress)+1,__zero_reg__
 640 032a 1092 0000 		sts (CurrAddress)+2,__zero_reg__
 641 032e 1092 0000 		sts (CurrAddress)+3,__zero_reg__
 642               	.LM64:
 643 0332 60E0      		ldi r22,lo8(0)
 644 0334 70E0      		ldi r23,hi8(0)
 645 0336 80E0      		ldi r24,lo8(0)
 646 0338 90E0      		ldi r25,hi8(0)
 647 033a 0E94 0000 		call DF_ContinuousReadEnable
 648               	.LVL46:
 649               	.LM65:
 650 033e 83E1      		ldi r24,lo8(19)
 651 0340 8093 0000 		sts PacketBytes,r24
 652 0344 20E0      		ldi r18,lo8(EEPROMVars+3)
 653 0346 30E0      		ldi r19,hi8(EEPROMVars+3)
 654               	.LVL47:
 655               	.L68:
 656 0348 E0E0      		ldi r30,lo8(PacketBytes)
 657 034a F0E0      		ldi r31,hi8(PacketBytes)
 658               	.L69:
 659               	.LBB67:
 660               	.LBB68:
 661               	.LBB69:
 662               	.LM66:
 663 034c D901      		movw r26,r18
 664               	.LVL48:
 665               	/* #APP */
 666 034e 0E94 0000 		call __eeprom_read_byte_1F2021
 667 0352 802D      		mov r24,__tmp_reg__
 668               	.LVL49:
 669               	/* #NOAPP */
 670               	.LBE69:
 671               	.LBE68:
 672               	.LM67:
 673 0354 8193      		st Z+,r24
 674               	.LM68:
 675 0356 2F5F      		subi r18,lo8(-(1))
 676 0358 3F4F      		sbci r19,hi8(-(1))
 677               	.LM69:
 678 035a 80E0      		ldi r24,hi8(PacketBytes+9)
 679 035c E030      		cpi r30,lo8(PacketBytes+9)
 680 035e F807      		cpc r31,r24
 681               	.LVL50:
 682 0360 01F4      		brne .L69
 683               	.LBE67:
 684               	.LM70:
 685 0362 8091 0000 		lds r24,PacketBytes+1
 686 0366 9927      		clr r25
 687 0368 D82F      		mov r29,r24
 688 036a CC27      		clr r28
 689               	.LVL51:
 690 036c 8091 0000 		lds r24,PacketBytes+2
 691 0370 9927      		clr r25
 692 0372 C82B      		or r28,r24
 693 0374 D92B      		or r29,r25
 694 0376 AA24      		clr r10
 695 0378 BB24      		clr r11
 696 037a 6501      		movw r12,r10
 697               	.LVL52:
 698 037c 3324      		clr r3
 699               	.LVL53:
 700 037e 00C0      		rjmp .L71
 701               	.L72:
 702               	.LM71:
 703 0380 8091 0000 		lds r24,PacketBytes+3
 704 0384 80FF      		sbrs r24,0
 705 0386 00C0      		rjmp .L73
 706               	.LM72:
 707 0388 91EA      		ldi r25,lo8(161)
 708 038a 8916      		cp r8,r25
 709 038c 9104      		cpc r9,__zero_reg__
 710 038e 00F4      		brsh .L75
 711 0390 00E0      		ldi r16,lo8(PacketBytes)
 712 0392 10E0      		ldi r17,hi8(PacketBytes)
 713 0394 00C0      		rjmp .L77
 714               	.L75:
 715               	.LM73:
 716 0396 3320      		tst r3
 717 0398 01F4      		brne .L78
 718               	.LM74:
 719 039a 8F77      		andi r24,lo8(127)
 720 039c 8093 0000 		sts PacketBytes+3,r24
 721 03a0 C0EA      		ldi r28,lo8(160)
 722 03a2 D0E0      		ldi r29,hi8(160)
 723 03a4 11E0      		ldi r17,lo8(1)
 724 03a6 312E      		mov r3,r17
 725               	.LVL54:
 726 03a8 00C0      		rjmp .L80
 727               	.LVL55:
 728               	.L78:
 729               	.LM75:
 730 03aa E401      		movw r28,r8
 731 03ac C05A      		subi r28,lo8(-(-160))
 732 03ae D040      		sbci r29,hi8(-(-160))
 733               	.LM76:
 734 03b0 8068      		ori r24,lo8(-128)
 735 03b2 8093 0000 		sts PacketBytes+3,r24
 736 03b6 3324      		clr r3
 737               	.L80:
 738 03b8 00E0      		ldi r16,lo8(PacketBytes)
 739 03ba 10E0      		ldi r17,hi8(PacketBytes)
 740 03bc 00C0      		rjmp .L81
 741               	.L82:
 742               	.LBB70:
 743               	.LM77:
 744 03be 80E0      		ldi r24,lo8(0)
 745 03c0 0E94 0000 		call SPI_SPITransmit
 746               	.LVL56:
 747 03c4 F801      		movw r30,r16
 748 03c6 8287      		std Z+10,r24
 749 03c8 0F5F      		subi r16,lo8(-(1))
 750 03ca 1F4F      		sbci r17,hi8(-(1))
 751               	.LVL57:
 752               	.L81:
 753               	.LM78:
 754 03cc CE01      		movw r24,r28
 755 03ce 8050      		subi r24,lo8(-(PacketBytes))
 756 03d0 9040      		sbci r25,hi8(-(PacketBytes))
 757 03d2 0817      		cp r16,r24
 758 03d4 1907      		cpc r17,r25
 759 03d6 01F4      		brne .L82
 760               	.LBE70:
 761               	.LM79:
 762 03d8 8D2F      		mov r24,r29
 763 03da 9927      		clr r25
 764 03dc 8093 0000 		sts PacketBytes+1,r24
 765               	.LM80:
 766 03e0 C093 0000 		sts PacketBytes+2,r28
 767 03e4 00C0      		rjmp .L100
 768               	.L85:
 769               	.LBB71:
 770               	.LM81:
 771 03e6 80E0      		ldi r24,lo8(0)
 772 03e8 0E94 0000 		call SPI_SPITransmit
 773               	.LVL58:
 774 03ec F801      		movw r30,r16
 775 03ee 8287      		std Z+10,r24
 776 03f0 0F5F      		subi r16,lo8(-(1))
 777 03f2 1F4F      		sbci r17,hi8(-(1))
 778               	.LVL59:
 779               	.L77:
 780               	.LM82:
 781 03f4 C401      		movw r24,r8
 782 03f6 8050      		subi r24,lo8(-(PacketBytes))
 783 03f8 9040      		sbci r25,hi8(-(PacketBytes))
 784 03fa 0817      		cp r16,r24
 785 03fc 1907      		cpc r17,r25
 786 03fe 01F4      		brne .L85
 787               	.LBE71:
 788               	.LM83:
 789 0400 892D      		mov r24,r9
 790 0402 9927      		clr r25
 791               	.LVL60:
 792 0404 8093 0000 		sts PacketBytes+1,r24
 793               	.LM84:
 794 0408 8092 0000 		sts PacketBytes+2,r8
 795               	.LM85:
 796 040c 8091 0000 		lds r24,PacketBytes+3
 797 0410 8068      		ori r24,lo8(-128)
 798 0412 8093 0000 		sts PacketBytes+3,r24
 799               	.LM86:
 800 0416 C401      		movw r24,r8
 801 0418 AA27      		clr r26
 802 041a BB27      		clr r27
 803 041c 00C0      		rjmp .L101
 804               	.LVL61:
 805               	.L73:
 806               	.LM87:
 807 041e CE01      		movw r24,r28
 808 0420 AA27      		clr r26
 809 0422 BB27      		clr r27
 810 0424 8A0D      		add r24,r10
 811 0426 9B1D      		adc r25,r11
 812 0428 AC1D      		adc r26,r12
 813 042a BD1D      		adc r27,r13
 814 042c 4816      		cp r4,r24
 815 042e 5906      		cpc r5,r25
 816 0430 6A06      		cpc r6,r26
 817 0432 7B06      		cpc r7,r27
 818 0434 00F4      		brsh .L87
 819               	.LVL62:
 820               	.LVL63:
 821               	.LM88:
 822 0436 E201      		movw r28,r4
 823 0438 CA19      		sub r28,r10
 824 043a DB09      		sbc r29,r11
 825               	.LM89:
 826 043c 8D2F      		mov r24,r29
 827 043e 9927      		clr r25
 828               	.LVL64:
 829 0440 8093 0000 		sts PacketBytes+1,r24
 830               	.LM90:
 831 0444 C093 0000 		sts PacketBytes+2,r28
 832               	.LVL65:
 833               	.L87:
 834 0448 00E0      		ldi r16,lo8(PacketBytes)
 835 044a 10E0      		ldi r17,hi8(PacketBytes)
 836 044c 00C0      		rjmp .L89
 837               	.LVL66:
 838               	.L90:
 839               	.LBB72:
 840               	.LM91:
 841 044e 80E0      		ldi r24,lo8(0)
 842 0450 0E94 0000 		call SPI_SPITransmit
 843               	.LVL67:
 844 0454 F801      		movw r30,r16
 845 0456 8287      		std Z+10,r24
 846 0458 0F5F      		subi r16,lo8(-(1))
 847 045a 1F4F      		sbci r17,hi8(-(1))
 848               	.LVL68:
 849               	.L89:
 850               	.LM92:
 851 045c CE01      		movw r24,r28
 852 045e 8050      		subi r24,lo8(-(PacketBytes))
 853 0460 9040      		sbci r25,hi8(-(PacketBytes))
 854 0462 0817      		cp r16,r24
 855 0464 1907      		cpc r17,r25
 856 0466 01F4      		brne .L90
 857               	.L100:
 858               	.LBE72:
 859               	.LM93:
 860 0468 CE01      		movw r24,r28
 861 046a AA27      		clr r26
 862 046c BB27      		clr r27
 863               	.LVL69:
 864               	.L101:
 865 046e A80E      		add r10,r24
 866 0470 B91E      		adc r11,r25
 867 0472 CA1E      		adc r12,r26
 868 0474 DB1E      		adc r13,r27
 869               	.LM94:
 870 0476 A114      		cp r10,__zero_reg__
 871 0478 B104      		cpc r11,__zero_reg__
 872 047a 01F4      		brne .L92
 873               	.LVL70:
 874 047c E12C      		mov r14,__zero_reg__
 875 047e F12C      		mov r15,__zero_reg__
 876 0480 EFEF      		ldi r30,hlo8(16711680)
 877 0482 0E2F      		mov r16,r30
 878 0484 112D      		mov r17,__zero_reg__
 879 0486 EA20      		and r14,r10
 880 0488 FB20      		and r15,r11
 881 048a 0C21      		and r16,r12
 882 048c 1D21      		and r17,r13
 883 048e E114      		cp r14,__zero_reg__
 884 0490 F104      		cpc r15,__zero_reg__
 885 0492 0105      		cpc r16,__zero_reg__
 886 0494 1105      		cpc r17,__zero_reg__
 887 0496 01F0      		breq .L92
 888               	.LM95:
 889 0498 8DE4      		ldi r24,lo8(77)
 890               	.LVL71:
 891 049a 0E94 0000 		call USI_SPITransmit
 892               	.LVL72:
 893               	.LM96:
 894 049e 80E0      		ldi r24,lo8(0)
 895 04a0 0E94 0000 		call USI_SPITransmit
 896               	.LM97:
 897 04a4 C801      		movw r24,r16
 898 04a6 AA27      		clr r26
 899 04a8 BB27      		clr r27
 900 04aa 0E94 0000 		call USI_SPITransmit
 901               	.LM98:
 902 04ae 80E0      		ldi r24,lo8(0)
 903 04b0 0E94 0000 		call USI_SPITransmit
 904               	.LVL73:
 905               	.L92:
 906               	.LM99:
 907 04b4 0E94 0000 		call ISPCC_ProgramChip
 908               	.LVL74:
 909               	.L71:
 910               	.LM100:
 911 04b8 A414      		cp r10,r4
 912 04ba B504      		cpc r11,r5
 913 04bc C604      		cpc r12,r6
 914 04be D704      		cpc r13,r7
 915 04c0 00F4      		brsh .+2
 916 04c2 00C0      		rjmp .L72
 917 04c4 00C0      		rjmp .L99
 918               	.LVL75:
 919               	.L66:
 920               	.LBB73:
 921               	.LBB74:
 922               	.LM101:
 923 04c6 A0E0      		ldi r26,lo8(EEPROMVars+135)
 924 04c8 B0E0      		ldi r27,hi8(EEPROMVars+135)
 925               	/* #APP */
 926 04ca 0E94 0000 		call __eeprom_read_word_1F2021
 927               		
 928               	.LVL76:
 929               	/* #NOAPP */
 930 04ce 4F01      		movw r8,r30
 931               	.LVL77:
 932               	.LBE74:
 933               	.LBE73:
 934               	.LM102:
 935 04d0 1092 0000 		sts CurrAddress,__zero_reg__
 936 04d4 1092 0000 		sts (CurrAddress)+1,__zero_reg__
 937 04d8 1092 0000 		sts (CurrAddress)+2,__zero_reg__
 938 04dc 1092 0000 		sts (CurrAddress)+3,__zero_reg__
 939               	.LM103:
 940 04e0 60EE      		ldi r22,lo8(224)
 941 04e2 70E0      		ldi r23,hi8(224)
 942 04e4 84EE      		ldi r24,lo8(996)
 943 04e6 93E0      		ldi r25,hi8(996)
 944 04e8 0E94 0000 		call DF_ContinuousReadEnable
 945               	.LVL78:
 946               	.LM104:
 947 04ec 85E1      		ldi r24,lo8(21)
 948 04ee 8093 0000 		sts PacketBytes,r24
 949 04f2 20E0      		ldi r18,lo8(EEPROMVars+13)
 950 04f4 30E0      		ldi r19,hi8(EEPROMVars+13)
 951               	.LVL79:
 952 04f6 00C0      		rjmp .L68
 953               	.LVL80:
 954               	.L99:
 955               	/* epilogue: frame size=0 */
 956 04f8 DF91      		pop r29
 957 04fa CF91      		pop r28
 958 04fc 1F91      		pop r17
 959 04fe 0F91      		pop r16
 960 0500 FF90      		pop r15
 961 0502 EF90      		pop r14
 962 0504 DF90      		pop r13
 963 0506 CF90      		pop r12
 964 0508 BF90      		pop r11
 965 050a AF90      		pop r10
 966 050c 9F90      		pop r9
 967 050e 8F90      		pop r8
 968 0510 7F90      		pop r7
 969 0512 6F90      		pop r6
 970 0514 5F90      		pop r5
 971 0516 4F90      		pop r4
 972 0518 3F90      		pop r3
 973 051a 0895      		ret
 974               	/* epilogue end (size=18) */
 975               	/* function PM_CreateProgrammingPackets size 288 (253) */
 976               	.LFE21:
 978               	.global	PM_ShowStoredItemSizes
 980               	PM_ShowStoredItemSizes:
 981               	.LFB22:
 982               	.LM105:
 983               	/* prologue: frame size=14 */
 984 051c 1F93      		push r17
 985 051e CF93      		push r28
 986 0520 DF93      		push r29
 987 0522 CDB7      		in r28,__SP_L__
 988 0524 DEB7      		in r29,__SP_H__
 989 0526 2E97      		sbiw r28,14
 990 0528 0FB6      		in __tmp_reg__,__SREG__
 991 052a F894      		cli
 992 052c DEBF      		out __SP_H__,r29
 993 052e 0FBE      		out __SREG__,__tmp_reg__
 994 0530 CDBF      		out __SP_L__,r28
 995               	/* prologue end (size=11) */
 996               	.LM106:
 997 0532 81E0      		ldi r24,lo8(1)
 998 0534 8EBB      		out 62-0x20,r24
 999 0536 10E0      		ldi r17,lo8(0)
 1000               	.LVL81:
 1001               	.L135:
 1002               	.LM107:
 1003 0538 8EB3      		in r24,62-0x20
 1004 053a 8823      		tst r24
 1005 053c 01F0      		breq .L135
 1006               	.LM108:
 1007 053e F69B      		sbis 62-0x20,6
 1008 0540 00C0      		rjmp .L105
 1009               	.LM109:
 1010 0542 1123      		tst r17
 1011 0544 01F0      		breq .L107
 1012 0546 1150      		subi r17,lo8(-(-1))
 1013 0548 00C0      		rjmp .L109
 1014               	.L105:
 1015               	.LM110:
 1016 054a F79B      		sbis 62-0x20,7
 1017 054c 00C0      		rjmp .L110
 1018               	.LM111:
 1019 054e 1330      		cpi r17,lo8(3)
 1020 0550 01F4      		brne .L112
 1021 0552 10E0      		ldi r17,lo8(0)
 1022 0554 00C0      		rjmp .L114
 1023               	.L112:
 1024 0556 1F5F      		subi r17,lo8(-(1))
 1025 0558 00C0      		rjmp .L109
 1026               	.L110:
 1027               	.LM112:
 1028 055a F299      		sbic 62-0x20,2
 1029 055c 00C0      		rjmp .L126
 1030               	.L109:
 1031               	.LM113:
 1032 055e 1130      		cpi r17,lo8(1)
 1033 0560 01F0      		breq .L117
 1034 0562 1130      		cpi r17,lo8(1)
 1035 0564 00F0      		brlo .L114
 1036 0566 1230      		cpi r17,lo8(2)
 1037 0568 01F0      		breq .L118
 1038 056a 1330      		cpi r17,lo8(3)
 1039 056c 01F4      		brne .L116
 1040 056e 00C0      		rjmp .L119
 1041               	.L114:
 1042               	.LM114:
 1043 0570 60E0      		ldi r22,lo8(__c.2133)
 1044 0572 70E0      		ldi r23,hi8(__c.2133)
 1045 0574 CE01      		movw r24,r28
 1046 0576 0196      		adiw r24,1
 1047 0578 0E94 0000 		call strcpy_P
 1048               	.LM115:
 1049 057c 81E0      		ldi r24,lo8(1)
 1050 057e 00C0      		rjmp .L132
 1051               	.L117:
 1052               	.LM116:
 1053 0580 60E0      		ldi r22,lo8(__c.2137)
 1054 0582 70E0      		ldi r23,hi8(__c.2137)
 1055 0584 CE01      		movw r24,r28
 1056 0586 0196      		adiw r24,1
 1057 0588 0E94 0000 		call strcpy_P
 1058               	.LM117:
 1059 058c 80E0      		ldi r24,lo8(0)
 1060               	.L132:
 1061 058e 0E94 0000 		call PM_GetStoredDataSize
 1062 0592 00C0      		rjmp .L125
 1063               	.L118:
 1064               	.LM118:
 1065 0594 60E0      		ldi r22,lo8(__c.2140)
 1066 0596 70E0      		ldi r23,hi8(__c.2140)
 1067 0598 CE01      		movw r24,r28
 1068 059a 0196      		adiw r24,1
 1069 059c 0E94 0000 		call strcpy_P
 1070               	.LBB83:
 1071               	.LBB84:
 1072               	.LM119:
 1073 05a0 A0E0      		ldi r26,lo8(EEPROMVars+51)
 1074 05a2 B0E0      		ldi r27,hi8(EEPROMVars+51)
 1075 05a4 00C0      		rjmp .L134
 1076               	.L107:
 1077               	.LBE84:
 1078               	.LBE83:
 1079               	.LM120:
 1080 05a6 13E0      		ldi r17,lo8(3)
 1081               	.L119:
 1082               	.LM121:
 1083 05a8 60E0      		ldi r22,lo8(__c.2143)
 1084 05aa 70E0      		ldi r23,hi8(__c.2143)
 1085 05ac CE01      		movw r24,r28
 1086 05ae 0196      		adiw r24,1
 1087 05b0 0E94 0000 		call strcpy_P
 1088               	.LBB85:
 1089               	.LBB86:
 1090               	.LM122:
 1091 05b4 A0E0      		ldi r26,lo8(EEPROMVars+52)
 1092 05b6 B0E0      		ldi r27,hi8(EEPROMVars+52)
 1093               	.L134:
 1094               	/* #APP */
 1095 05b8 0E94 0000 		call __eeprom_read_byte_1F2021
 1096 05bc 802D      		mov r24,__tmp_reg__
 1097               	.LVL82:
 1098               	.LVL83:
 1099               	/* #NOAPP */
 1100               	.LBE86:
 1101               	.LBE85:
 1102               	.LM123:
 1103 05be 8F3F      		cpi r24,lo8(-1)
 1104 05c0 01F4      		brne .L123
 1105 05c2 60E0      		ldi r22,lo8(0)
 1106 05c4 70E0      		ldi r23,hi8(0)
 1107 05c6 80E0      		ldi r24,hlo8(0)
 1108 05c8 90E0      		ldi r25,hhi8(0)
 1109 05ca 00C0      		rjmp .L125
 1110               	.L123:
 1111 05cc 682F      		mov r22,r24
 1112 05ce 7727      		clr r23
 1113 05d0 8827      		clr r24
 1114 05d2 9927      		clr r25
 1115               	.L125:
 1116 05d4 2AE0      		ldi r18,lo8(10)
 1117 05d6 30E0      		ldi r19,hi8(10)
 1118 05d8 AE01      		movw r20,r28
 1119 05da 4A5F      		subi r20,lo8(-(6))
 1120 05dc 5F4F      		sbci r21,hi8(-(6))
 1121 05de 0E94 0000 		call ultoa
 1122               	.LVL84:
 1123               	.L116:
 1124               	.LM124:
 1125 05e2 CE01      		movw r24,r28
 1126 05e4 0196      		adiw r24,1
 1127 05e6 0E94 0000 		call LCD_puts
 1128               	.LM125:
 1129 05ea 0E94 0000 		call MAIN_WaitForJoyRelease
 1130 05ee 00C0      		rjmp .L135
 1131               	.L126:
 1132               	/* epilogue: frame size=14 */
 1133 05f0 2E96      		adiw r28,14
 1134 05f2 0FB6      		in __tmp_reg__,__SREG__
 1135 05f4 F894      		cli
 1136 05f6 DEBF      		out __SP_H__,r29
 1137 05f8 0FBE      		out __SREG__,__tmp_reg__
 1138 05fa CDBF      		out __SP_L__,r28
 1139 05fc DF91      		pop r29
 1140 05fe CF91      		pop r28
 1141 0600 1F91      		pop r17
 1142 0602 0895      		ret
 1143               	/* epilogue end (size=10) */
 1144               	/* function PM_ShowStoredItemSizes size 117 (96) */
 1145               	.LFE22:
 1147               	.global	PM_InterpretAVRISPPacket
 1149               	PM_InterpretAVRISPPacket:
 1150               	.LFB17:
 1151               	.LM126:
 1152               	/* prologue: frame size=0 */
 1153 0604 EF92      		push r14
 1154 0606 FF92      		push r15
 1155 0608 0F93      		push r16
 1156 060a 1F93      		push r17
 1157 060c CF93      		push r28
 1158 060e DF93      		push r29
 1159               	/* prologue end (size=6) */
 1160               	.LM127:
 1161 0610 2091 0000 		lds r18,PacketBytes
 1162 0614 2631      		cpi r18,lo8(22)
 1163 0616 01F4      		brne .+2
 1164 0618 00C0      		rjmp .L142
 1165               	.LM128:
 1166 061a 2731      		cpi r18,lo8(23)
 1167 061c 00F4      		brsh .L147
 1168 061e 2231      		cpi r18,lo8(18)
 1169 0620 01F4      		brne .+2
 1170 0622 00C0      		rjmp .L140
 1171 0624 2331      		cpi r18,lo8(19)
 1172 0626 00F4      		brsh .L148
 1173 0628 2031      		cpi r18,lo8(16)
 1174 062a 01F0      		breq .L138
 1175 062c 2131      		cpi r18,lo8(17)
 1176 062e 01F0      		breq .+2
 1177 0630 00C0      		rjmp .L137
 1178 0632 00C0      		rjmp .L139
 1179               	.L148:
 1180 0634 2431      		cpi r18,lo8(20)
 1181 0636 01F0      		breq .+2
 1182 0638 00C0      		rjmp .L209
 1183 063a 00C0      		rjmp .L142
 1184               	.L147:
 1185 063c 2931      		cpi r18,lo8(25)
 1186 063e 01F4      		brne .+2
 1187 0640 00C0      		rjmp .L143
 1188 0642 2A31      		cpi r18,lo8(26)
 1189 0644 00F4      		brsh .L149
 1190 0646 2731      		cpi r18,lo8(23)
 1191 0648 01F4      		brne .+2
 1192 064a 00C0      		rjmp .L143
 1193 064c 2831      		cpi r18,lo8(24)
 1194 064e 01F0      		breq .+2
 1195 0650 00C0      		rjmp .L137
 1196 0652 00C0      		rjmp .L144
 1197               	.L149:
 1198 0654 2B31      		cpi r18,lo8(27)
 1199 0656 01F0      		breq .L145
 1200 0658 2B31      		cpi r18,lo8(27)
 1201 065a 00F4      		brsh .+2
 1202 065c 00C0      		rjmp .L144
 1203 065e 2C31      		cpi r18,lo8(28)
 1204 0660 01F0      		breq .+2
 1205 0662 00C0      		rjmp .L137
 1206 0664 00C0      		rjmp .L146
 1207               	.L138:
 1208               	.LBB115:
 1209               	.LM129:
 1210 0666 82E0      		ldi r24,lo8(2)
 1211 0668 90E0      		ldi r25,hi8(2)
 1212 066a 9093 0000 		sts (MessageSize)+1,r25
 1213 066e 8093 0000 		sts MessageSize,r24
 1214 0672 E0E0      		ldi r30,lo8(PacketBytes)
 1215 0674 F0E0      		ldi r31,hi8(PacketBytes)
 1216 0676 20E0      		ldi r18,lo8(EEPROMVars+39)
 1217 0678 30E0      		ldi r19,hi8(EEPROMVars+39)
 1218               	.L150:
 1219               	.LBB116:
 1220               	.LBB117:
 1221               	.LBB118:
 1222               	.LM130:
 1223 067a 8191      		ld r24,Z+
 1224 067c D901      		movw r26,r18
 1225               	.LVL85:
 1226               	/* #APP */
 1227 067e 082E      		mov __tmp_reg__,r24
 1228 0680 0E94 0000 		call __eeprom_write_byte_1F2021
 1229               	/* #NOAPP */
 1230 0684 2F5F      		subi r18,lo8(-(1))
 1231 0686 3F4F      		sbci r19,hi8(-(1))
 1232               	.LBE118:
 1233               	.LBE117:
 1234               	.LM131:
 1235 0688 80E0      		ldi r24,hi8(PacketBytes+12)
 1236 068a E030      		cpi r30,lo8(PacketBytes+12)
 1237 068c F807      		cpc r31,r24
 1238 068e 01F4      		brne .L150
 1239               	.LBE116:
 1240               	.LM132:
 1241 0690 81E0      		ldi r24,lo8(1)
 1242 0692 8093 0000 		sts InProgrammingMode,r24
 1243               	.LM133:
 1244 0696 1092 0000 		sts CurrentMode,__zero_reg__
 1245               	.LM134:
 1246 069a 81B3      		in r24,49-0x20
 1247 069c 8F7C      		andi r24,lo8(-49)
 1248 069e 8062      		ori r24,lo8(32)
 1249 06a0 00C0      		rjmp .L216
 1250               	.LVL86:
 1251               	.L139:
 1252               	.LM135:
 1253 06a2 82E0      		ldi r24,lo8(2)
 1254 06a4 90E0      		ldi r25,hi8(2)
 1255 06a6 9093 0000 		sts (MessageSize)+1,r25
 1256 06aa 8093 0000 		sts MessageSize,r24
 1257               	.LM136:
 1258 06ae 0E94 0000 		call PM_CheckEndOfFuseLockData
 1259               	.LM137:
 1260 06b2 1092 0000 		sts InProgrammingMode,__zero_reg__
 1261               	.LM138:
 1262 06b6 80E0      		ldi r24,lo8(0)
 1263 06b8 0E94 0000 		call DF_EnableDataflash
 1264               	.LM139:
 1265 06bc 81B3      		in r24,49-0x20
 1266 06be 8F7C      		andi r24,lo8(-49)
 1267 06c0 8061      		ori r24,lo8(16)
 1268               	.LVL87:
 1269               	.L216:
 1270 06c2 81BB      		out 49-0x20,r24
 1271               	.LVL88:
 1272               	.L218:
 1273               	.LM140:
 1274 06c4 1092 0000 		sts PacketBytes+1,__zero_reg__
 1275 06c8 00C0      		rjmp .L152
 1276               	.LVL89:
 1277               	.L145:
 1278               	.LM141:
 1279 06ca 84E0      		ldi r24,lo8(4)
 1280 06cc 90E0      		ldi r25,hi8(4)
 1281 06ce 9093 0000 		sts (MessageSize)+1,r25
 1282 06d2 8093 0000 		sts MessageSize,r24
 1283               	.LM142:
 1284 06d6 1092 0000 		sts PacketBytes+1,__zero_reg__
 1285               	.LM143:
 1286 06da 81E0      		ldi r24,lo8(1)
 1287 06dc 8093 0000 		sts PacketBytes+2,r24
 1288 06e0 00C0      		rjmp .L217
 1289               	.L140:
 1290               	.LM144:
 1291 06e2 82E0      		ldi r24,lo8(2)
 1292 06e4 90E0      		ldi r25,hi8(2)
 1293 06e6 9093 0000 		sts (MessageSize)+1,r25
 1294 06ea 8093 0000 		sts MessageSize,r24
 1295 06ee E0E0      		ldi r30,lo8(PacketBytes+1)
 1296 06f0 F0E0      		ldi r31,hi8(PacketBytes+1)
 1297 06f2 20E0      		ldi r18,lo8(EEPROMVars+25)
 1298 06f4 30E0      		ldi r19,hi8(EEPROMVars+25)
 1299               	.L153:
 1300               	.LBB119:
 1301               	.LBB120:
 1302               	.LBB121:
 1303               	.LM145:
 1304 06f6 8191      		ld r24,Z+
 1305 06f8 D901      		movw r26,r18
 1306               	.LVL90:
 1307               	/* #APP */
 1308 06fa 082E      		mov __tmp_reg__,r24
 1309 06fc 0E94 0000 		call __eeprom_write_byte_1F2021
 1310               	/* #NOAPP */
 1311 0700 2F5F      		subi r18,lo8(-(1))
 1312 0702 3F4F      		sbci r19,hi8(-(1))
 1313               	.LBE121:
 1314               	.LBE120:
 1315               	.LM146:
 1316 0704 90E0      		ldi r25,hi8(PacketBytes+7)
 1317 0706 E030      		cpi r30,lo8(PacketBytes+7)
 1318 0708 F907      		cpc r31,r25
 1319 070a 01F4      		brne .L153
 1320 070c 20E0      		ldi r18,lo8(EEPROMVars+31)
 1321 070e 30E0      		ldi r19,hi8(EEPROMVars+31)
 1322 0710 80E0      		ldi r24,lo8(0)
 1323               	.L155:
 1324               	.LBE119:
 1325               	.LBB122:
 1326               	.LBB123:
 1327               	.LBB124:
 1328               	.LM147:
 1329 0712 D901      		movw r26,r18
 1330               	.LVL91:
 1331               	/* #APP */
 1332 0714 082E      		mov __tmp_reg__,r24
 1333 0716 0E94 0000 		call __eeprom_write_byte_1F2021
 1334               	/* #NOAPP */
 1335 071a D901      		movw r26,r18
 1336               	.LVL92:
 1337 071c 1496      		adiw r26,4
 1338               	.LBE124:
 1339               	.LBE123:
 1340               	.LBB125:
 1341               	.LBB126:
 1342               	/* #APP */
 1343 071e 082E      		mov __tmp_reg__,r24
 1344 0720 0E94 0000 		call __eeprom_write_byte_1F2021
 1345               	/* #NOAPP */
 1346 0724 2F5F      		subi r18,lo8(-(1))
 1347 0726 3F4F      		sbci r19,hi8(-(1))
 1348               	.LBE126:
 1349               	.LBE125:
 1350               	.LM148:
 1351 0728 E0E0      		ldi r30,hi8(EEPROMVars+35)
 1352 072a 2030      		cpi r18,lo8(EEPROMVars+35)
 1353 072c 3E07      		cpc r19,r30
 1354 072e 01F4      		brne .L155
 1355               	.LBE122:
 1356               	.LBB127:
 1357               	.LBB128:
 1358               	.LM149:
 1359 0730 81E0      		ldi r24,lo8(1)
 1360 0732 2C50      		subi r18,lo8(-(-12))
 1361 0734 3040      		sbci r19,hi8(-(-12))
 1362 0736 D901      		movw r26,r18
 1363               	.LVL93:
 1364               	/* #APP */
 1365 0738 082E      		mov __tmp_reg__,r24
 1366 073a 0E94 0000 		call __eeprom_write_byte_1F2021
 1367               	/* #NOAPP */
 1368 073e 00C0      		rjmp .L218
 1369               	.LVL94:
 1370               	.L146:
 1371               	.LBE128:
 1372               	.LBE127:
 1373               	.LM150:
 1374 0740 84E0      		ldi r24,lo8(4)
 1375 0742 90E0      		ldi r25,hi8(4)
 1376 0744 9093 0000 		sts (MessageSize)+1,r25
 1377 0748 8093 0000 		sts MessageSize,r24
 1378               	.LM151:
 1379 074c 1092 0000 		sts PacketBytes+1,__zero_reg__
 1380               	.LM152:
 1381 0750 1092 0000 		sts PacketBytes+2,__zero_reg__
 1382               	.LVL95:
 1383               	.L217:
 1384               	.LM153:
 1385 0754 1092 0000 		sts PacketBytes+3,__zero_reg__
 1386 0758 00C0      		rjmp .L152
 1387               	.LVL96:
 1388               	.L144:
 1389               	.LM154:
 1390 075a 84E0      		ldi r24,lo8(4)
 1391 075c 90E0      		ldi r25,hi8(4)
 1392 075e 9093 0000 		sts (MessageSize)+1,r25
 1393 0762 8093 0000 		sts MessageSize,r24
 1394               	.LM155:
 1395 0766 8091 0000 		lds r24,CurrentMode
 1396 076a 8430      		cpi r24,lo8(4)
 1397 076c 01F0      		breq .L157
 1398               	.LM156:
 1399 076e 0E94 0000 		call PM_CheckEndOfFuseLockData
 1400               	.LM157:
 1401 0772 1092 0000 		sts (DataflashInfo+8)+1,__zero_reg__
 1402 0776 1092 0000 		sts DataflashInfo+8,__zero_reg__
 1403               	.LM158:
 1404 077a 84E0      		ldi r24,lo8(4)
 1405 077c 8093 0000 		sts CurrentMode,r24
 1406               	.L157:
 1407               	.LM159:
 1408 0780 4091 0000 		lds r20,DataflashInfo+8
 1409 0784 5091 0000 		lds r21,(DataflashInfo+8)+1
 1410 0788 2091 0000 		lds r18,PacketBytes
 1411 078c 2831      		cpi r18,lo8(24)
 1412 078e 01F0      		breq .L159
 1413 0790 A0E0      		ldi r26,lo8(EEPROMVars+52)
 1414 0792 B0E0      		ldi r27,hi8(EEPROMVars+52)
 1415 0794 00C0      		rjmp .L161
 1416               	.L159:
 1417 0796 A0E0      		ldi r26,lo8(EEPROMVars+51)
 1418 0798 B0E0      		ldi r27,hi8(EEPROMVars+51)
 1419               	.L161:
 1420               	.LBB129:
 1421               	.LBB130:
 1422               	.LM160:
 1423               	/* #APP */
 1424 079a 0E94 0000 		call __eeprom_read_byte_1F2021
 1425 079e 802D      		mov r24,__tmp_reg__
 1426               	.LVL97:
 1427               	/* #NOAPP */
 1428               	.LBE130:
 1429               	.LBE129:
 1430               	.LM161:
 1431 07a0 9927      		clr r25
 1432 07a2 8417      		cp r24,r20
 1433 07a4 9507      		cpc r25,r21
 1434 07a6 00F4      		brsh .L162
 1435               	.LM162:
 1436 07a8 8FEF      		ldi r24,lo8(-1)
 1437               	.LVL98:
 1438 07aa 00C0      		rjmp .L214
 1439               	.LVL99:
 1440               	.L162:
 1441               	.LM163:
 1442 07ac 2831      		cpi r18,lo8(24)
 1443 07ae 01F4      		brne .L165
 1444 07b0 20E0      		ldi r18,lo8(EEPROMVars+53)
 1445 07b2 30E0      		ldi r19,hi8(EEPROMVars+53)
 1446 07b4 00C0      		rjmp .L167
 1447               	.L165:
 1448 07b6 20E0      		ldi r18,lo8(EEPROMVars+93)
 1449 07b8 30E0      		ldi r19,hi8(EEPROMVars+93)
 1450               	.L167:
 1451 07ba 80EA      		ldi r24,lo8(160)
 1452 07bc 90E0      		ldi r25,hi8(160)
 1453               	.LVL100:
 1454 07be 489F      		mul r20,r24
 1455 07c0 D001      		movw r26,r0
 1456 07c2 499F      		mul r20,r25
 1457 07c4 B00D      		add r27,r0
 1458 07c6 589F      		mul r21,r24
 1459 07c8 B00D      		add r27,r0
 1460 07ca 1124      		clr r1
 1461               	.LVL101:
 1462 07cc A20F      		add r26,r18
 1463 07ce B31F      		adc r27,r19
 1464 07d0 8091 0000 		lds r24,PacketBytes+1
 1465 07d4 28E2      		ldi r18,lo8(40)
 1466 07d6 829F      		mul r24,r18
 1467 07d8 C001      		movw r24,r0
 1468 07da 1124      		clr r1
 1469 07dc A80F      		add r26,r24
 1470 07de B91F      		adc r27,r25
 1471 07e0 9897      		sbiw r26,40
 1472               	.LBB131:
 1473               	.LBB132:
 1474               	.LM164:
 1475               	/* #APP */
 1476 07e2 0E94 0000 		call __eeprom_read_byte_1F2021
 1477 07e6 802D      		mov r24,__tmp_reg__
 1478               	.LVL102:
 1479               	/* #NOAPP */
 1480               	.L214:
 1481               	.LBE132:
 1482               	.LBE131:
 1483               	.LM165:
 1484 07e8 8093 0000 		sts PacketBytes+2,r24
 1485               	.LM166:
 1486 07ec 4F5F      		subi r20,lo8(-(1))
 1487 07ee 5F4F      		sbci r21,hi8(-(1))
 1488 07f0 5093 0000 		sts (DataflashInfo+8)+1,r21
 1489 07f4 4093 0000 		sts DataflashInfo+8,r20
 1490               	.LM167:
 1491 07f8 1092 0000 		sts PacketBytes+1,__zero_reg__
 1492 07fc 00C0      		rjmp .L217
 1493               	.LVL103:
 1494               	.L143:
 1495               	.LM168:
 1496 07fe 83E0      		ldi r24,lo8(3)
 1497 0800 90E0      		ldi r25,hi8(3)
 1498 0802 9093 0000 		sts (MessageSize)+1,r25
 1499 0806 8093 0000 		sts MessageSize,r24
 1500               	.LM169:
 1501 080a 8091 0000 		lds r24,CurrentMode
 1502 080e 8330      		cpi r24,lo8(3)
 1503 0810 01F0      		breq .L168
 1504               	.LM170:
 1505 0812 83E0      		ldi r24,lo8(3)
 1506 0814 8093 0000 		sts CurrentMode,r24
 1507               	.LM171:
 1508 0818 1092 0000 		sts (DataflashInfo+8)+1,__zero_reg__
 1509 081c 1092 0000 		sts DataflashInfo+8,__zero_reg__
 1510               	.L168:
 1511 0820 4091 0000 		lds r20,DataflashInfo+8
 1512 0824 5091 0000 		lds r21,(DataflashInfo+8)+1
 1513               	.LM172:
 1514 0828 2731      		cpi r18,lo8(23)
 1515 082a 01F4      		brne .L170
 1516               	.LM173:
 1517 082c 80EA      		ldi r24,lo8(160)
 1518 082e 90E0      		ldi r25,hi8(160)
 1519 0830 489F      		mul r20,r24
 1520 0832 9001      		movw r18,r0
 1521 0834 499F      		mul r20,r25
 1522 0836 300D      		add r19,r0
 1523 0838 589F      		mul r21,r24
 1524 083a 300D      		add r19,r0
 1525 083c 1124      		clr r1
 1526               	.LVL104:
 1527 083e 2050      		subi r18,lo8(-(EEPROMVars+53))
 1528 0840 3040      		sbci r19,hi8(-(EEPROMVars+53))
 1529               	.LM174:
 1530 0842 82E0      		ldi r24,lo8(2)
 1531 0844 00C0      		rjmp .L215
 1532               	.LVL105:
 1533               	.L170:
 1534               	.LM175:
 1535 0846 80EA      		ldi r24,lo8(160)
 1536 0848 90E0      		ldi r25,hi8(160)
 1537 084a 489F      		mul r20,r24
 1538 084c 9001      		movw r18,r0
 1539 084e 499F      		mul r20,r25
 1540 0850 300D      		add r19,r0
 1541 0852 589F      		mul r21,r24
 1542 0854 300D      		add r19,r0
 1543 0856 1124      		clr r1
 1544               	.LVL106:
 1545 0858 2050      		subi r18,lo8(-(EEPROMVars+93))
 1546 085a 3040      		sbci r19,hi8(-(EEPROMVars+93))
 1547               	.LM176:
 1548 085c 83E0      		ldi r24,lo8(3)
 1549               	.L215:
 1550 085e 8093 0000 		sts MemoryType,r24
 1551               	.LM177:
 1552 0862 8091 0000 		lds r24,DataflashInfo+8
 1553 0866 9091 0000 		lds r25,(DataflashInfo+8)+1
 1554 086a 0A97      		sbiw r24,10
 1555 086c 00F4      		brsh .L173
 1556 086e E0E0      		ldi r30,lo8(PacketBytes+1)
 1557 0870 F0E0      		ldi r31,hi8(PacketBytes+1)
 1558               	.L175:
 1559               	.LBB133:
 1560               	.LBB134:
 1561               	.LBB135:
 1562               	.LM178:
 1563 0872 8191      		ld r24,Z+
 1564 0874 D901      		movw r26,r18
 1565               	.LVL107:
 1566               	/* #APP */
 1567 0876 082E      		mov __tmp_reg__,r24
 1568 0878 0E94 0000 		call __eeprom_write_byte_1F2021
 1569               	/* #NOAPP */
 1570               	.LBE135:
 1571               	.LBE134:
 1572               	.LM179:
 1573 087c 2F5F      		subi r18,lo8(-(1))
 1574 087e 3F4F      		sbci r19,hi8(-(1))
 1575               	.LM180:
 1576 0880 80E0      		ldi r24,hi8(PacketBytes+5)
 1577 0882 E030      		cpi r30,lo8(PacketBytes+5)
 1578 0884 F807      		cpc r31,r24
 1579 0886 01F4      		brne .L175
 1580               	.LBE133:
 1581               	.LM181:
 1582 0888 8091 0000 		lds r24,DataflashInfo+8
 1583 088c 9091 0000 		lds r25,(DataflashInfo+8)+1
 1584 0890 0196      		adiw r24,1
 1585 0892 9093 0000 		sts (DataflashInfo+8)+1,r25
 1586 0896 8093 0000 		sts DataflashInfo+8,r24
 1587               	.L173:
 1588               	.LM182:
 1589 089a 1092 0000 		sts PacketBytes+1,__zero_reg__
 1590               	.LM183:
 1591 089e 1092 0000 		sts PacketBytes+2,__zero_reg__
 1592 08a2 00C0      		rjmp .L152
 1593               	.LVL108:
 1594               	.L209:
 1595               	.LM184:
 1596 08a4 82E0      		ldi r24,lo8(2)
 1597 08a6 90E0      		ldi r25,hi8(2)
 1598 08a8 9093 0000 		sts (MessageSize)+1,r25
 1599 08ac 8093 0000 		sts MessageSize,r24
 1600               	.LM185:
 1601 08b0 8091 0000 		lds r24,CurrentMode
 1602 08b4 8130      		cpi r24,lo8(1)
 1603 08b6 01F0      		breq .L177
 1604               	.LM186:
 1605 08b8 2331      		cpi r18,lo8(19)
 1606 08ba 01F4      		brne .L179
 1607               	.LM187:
 1608 08bc 81E0      		ldi r24,lo8(1)
 1609 08be 0E94 0000 		call PM_SetupDFAddressCounters
 1610 08c2 C0E0      		ldi r28,lo8(EEPROMVars+3)
 1611 08c4 D0E0      		ldi r29,hi8(EEPROMVars+3)
 1612               	.LVL109:
 1613 08c6 00C0      		rjmp .L181
 1614               	.LVL110:
 1615               	.L179:
 1616               	.LM188:
 1617 08c8 80E0      		ldi r24,lo8(0)
 1618 08ca 0E94 0000 		call PM_SetupDFAddressCounters
 1619 08ce C0E0      		ldi r28,lo8(EEPROMVars+13)
 1620 08d0 D0E0      		ldi r29,hi8(EEPROMVars+13)
 1621               	.LVL111:
 1622               	.L181:
 1623               	.LM189:
 1624 08d2 8091 0000 		lds r24,DataflashInfo+8
 1625 08d6 9091 0000 		lds r25,(DataflashInfo+8)+1
 1626 08da 0E94 0000 		call DF_BufferWriteEnable
 1627               	.LM190:
 1628 08de 81E0      		ldi r24,lo8(1)
 1629 08e0 8093 0000 		sts CurrentMode,r24
 1630 08e4 E0E0      		ldi r30,lo8(PacketBytes+1)
 1631 08e6 F0E0      		ldi r31,hi8(PacketBytes+1)
 1632               	.L182:
 1633               	.LBB136:
 1634               	.LBB137:
 1635               	.LBB138:
 1636               	.LM191:
 1637 08e8 8191      		ld r24,Z+
 1638 08ea DE01      		movw r26,r28
 1639               	.LVL112:
 1640               	/* #APP */
 1641 08ec 082E      		mov __tmp_reg__,r24
 1642 08ee 0E94 0000 		call __eeprom_write_byte_1F2021
 1643               	/* #NOAPP */
 1644               	.LBE138:
 1645               	.LBE137:
 1646               	.LM192:
 1647 08f2 90E0      		ldi r25,hi8(PacketBytes+10)
 1648 08f4 E030      		cpi r30,lo8(PacketBytes+10)
 1649 08f6 F907      		cpc r31,r25
 1650 08f8 01F4      		brne .L182
 1651               	.L177:
 1652               	.LBE136:
 1653               	.LM193:
 1654 08fa 8091 0000 		lds r24,PacketBytes+1
 1655 08fe 9927      		clr r25
 1656 0900 D82F      		mov r29,r24
 1657 0902 CC27      		clr r28
 1658               	.LVL113:
 1659 0904 8091 0000 		lds r24,PacketBytes+2
 1660 0908 9927      		clr r25
 1661 090a C82B      		or r28,r24
 1662 090c D92B      		or r29,r25
 1663 090e 00E0      		ldi r16,lo8(PacketBytes)
 1664 0910 10E0      		ldi r17,hi8(PacketBytes)
 1665 0912 00C0      		rjmp .L183
 1666               	.L184:
 1667               	.LBB139:
 1668               	.LM194:
 1669 0914 F801      		movw r30,r16
 1670 0916 8285      		ldd r24,Z+10
 1671 0918 0E94 0000 		call PM_StoreProgramByte
 1672               	.LVL114:
 1673 091c 0F5F      		subi r16,lo8(-(1))
 1674 091e 1F4F      		sbci r17,hi8(-(1))
 1675               	.LVL115:
 1676               	.L183:
 1677               	.LM195:
 1678 0920 CE01      		movw r24,r28
 1679 0922 8050      		subi r24,lo8(-(PacketBytes))
 1680 0924 9040      		sbci r25,hi8(-(PacketBytes))
 1681 0926 0817      		cp r16,r24
 1682 0928 1907      		cpc r17,r25
 1683 092a 01F4      		brne .L184
 1684               	.LBE139:
 1685               	.LM196:
 1686 092c 2091 0000 		lds r18,GPageLength
 1687 0930 3091 0000 		lds r19,(GPageLength)+1
 1688 0934 37FD      		sbrc r19,7
 1689 0936 00C0      		rjmp .L218
 1690 0938 8091 0000 		lds r24,PacketBytes+3
 1691 093c 87FF      		sbrs r24,7
 1692 093e 00C0      		rjmp .L218
 1693 0940 2115      		cp r18,__zero_reg__
 1694 0942 3105      		cpc r19,__zero_reg__
 1695 0944 01F4      		brne .+2
 1696 0946 00C0      		rjmp .L218
 1697               	.LM197:
 1698 0948 8091 0000 		lds r24,MemoryType
 1699 094c 8130      		cpi r24,lo8(1)
 1700 094e 01F4      		brne .L190
 1701 0950 A0E0      		ldi r26,lo8(EEPROMVars+133)
 1702 0952 B0E0      		ldi r27,hi8(EEPROMVars+133)
 1703               	.LVL116:
 1704 0954 00C0      		rjmp .L192
 1705               	.LVL117:
 1706               	.L190:
 1707 0956 A0E0      		ldi r26,lo8(EEPROMVars+135)
 1708 0958 B0E0      		ldi r27,hi8(EEPROMVars+135)
 1709               	.LVL118:
 1710               	.L192:
 1711               	.LBB140:
 1712               	.LBB141:
 1713               	.LM198:
 1714               	/* #APP */
 1715 095a 0901      		movw __tmp_reg__,r18
 1716 095c 0E94 0000 		call __eeprom_write_word_1F2021
 1717               		
 1718               	/* #NOAPP */
 1719               	.LBE141:
 1720               	.LBE140:
 1721               	.LM199:
 1722 0960 8091 0000 		lds r24,GPageLength
 1723 0964 9091 0000 		lds r25,(GPageLength)+1
 1724 0968 9068      		ori r25,hi8(-32768)
 1725 096a 9093 0000 		sts (GPageLength)+1,r25
 1726 096e 8093 0000 		sts GPageLength,r24
 1727 0972 00C0      		rjmp .L218
 1728               	.LVL119:
 1729               	.L142:
 1730               	.LM200:
 1731 0974 8091 0000 		lds r24,CurrentMode
 1732 0978 8230      		cpi r24,lo8(2)
 1733 097a 01F0      		breq .L193
 1734               	.LM201:
 1735 097c 0E94 0000 		call PM_CheckEndOfFuseLockData
 1736               	.LM202:
 1737 0980 90E0      		ldi r25,lo8(0)
 1738 0982 8091 0000 		lds r24,PacketBytes
 1739 0986 8431      		cpi r24,lo8(20)
 1740 0988 01F4      		brne .L195
 1741 098a 91E0      		ldi r25,lo8(1)
 1742               	.L195:
 1743 098c 892F      		mov r24,r25
 1744 098e 0E94 0000 		call PM_SetupDFAddressCounters
 1745               	.LM203:
 1746 0992 6091 0000 		lds r22,DataflashInfo+8
 1747 0996 7091 0000 		lds r23,(DataflashInfo+8)+1
 1748 099a 8091 0000 		lds r24,DataflashInfo+6
 1749 099e 9091 0000 		lds r25,(DataflashInfo+6)+1
 1750 09a2 0E94 0000 		call DF_ContinuousReadEnable
 1751               	.LM204:
 1752 09a6 82E0      		ldi r24,lo8(2)
 1753 09a8 8093 0000 		sts CurrentMode,r24
 1754               	.LM205:
 1755 09ac 1092 0000 		sts CurrAddress,__zero_reg__
 1756 09b0 1092 0000 		sts (CurrAddress)+1,__zero_reg__
 1757 09b4 1092 0000 		sts (CurrAddress)+2,__zero_reg__
 1758 09b8 1092 0000 		sts (CurrAddress)+3,__zero_reg__
 1759               	.L193:
 1760               	.LM206:
 1761 09bc 8091 0000 		lds r24,PacketBytes+1
 1762 09c0 9927      		clr r25
 1763 09c2 D82F      		mov r29,r24
 1764 09c4 CC27      		clr r28
 1765               	.LVL120:
 1766 09c6 8091 0000 		lds r24,PacketBytes+2
 1767 09ca 9927      		clr r25
 1768 09cc C82B      		or r28,r24
 1769 09ce D92B      		or r29,r25
 1770               	.LM207:
 1771 09d0 90E0      		ldi r25,lo8(0)
 1772 09d2 8091 0000 		lds r24,PacketBytes
 1773 09d6 8431      		cpi r24,lo8(20)
 1774 09d8 01F4      		brne .L196
 1775 09da 91E0      		ldi r25,lo8(1)
 1776               	.L196:
 1777 09dc 892F      		mov r24,r25
 1778 09de 0E94 0000 		call PM_GetStoredDataSize
 1779 09e2 7B01      		movw r14,r22
 1780               	.LVL121:
 1781 09e4 00E0      		ldi r16,lo8(PacketBytes)
 1782 09e6 10E0      		ldi r17,hi8(PacketBytes)
 1783 09e8 00C0      		rjmp .L197
 1784               	.L198:
 1785               	.LBB142:
 1786               	.LM208:
 1787 09ea 9701      		movw r18,r14
 1788 09ec 4427      		clr r20
 1789 09ee 5527      		clr r21
 1790 09f0 8091 0000 		lds r24,CurrAddress
 1791 09f4 9091 0000 		lds r25,(CurrAddress)+1
 1792 09f8 A091 0000 		lds r26,(CurrAddress)+2
 1793 09fc B091 0000 		lds r27,(CurrAddress)+3
 1794 0a00 8217      		cp r24,r18
 1795 0a02 9307      		cpc r25,r19
 1796 0a04 A407      		cpc r26,r20
 1797 0a06 B507      		cpc r27,r21
 1798 0a08 00F0      		brlo .L199
 1799               	.LVL122:
 1800 0a0a 8FEF      		ldi r24,lo8(-1)
 1801 0a0c 00C0      		rjmp .L201
 1802               	.L199:
 1803 0a0e 80E0      		ldi r24,lo8(0)
 1804 0a10 0E94 0000 		call SPI_SPITransmit
 1805               	.LVL123:
 1806               	.L201:
 1807 0a14 F801      		movw r30,r16
 1808 0a16 8283      		std Z+2,r24
 1809               	.LM209:
 1810 0a18 0E94 0000 		call V2P_IncrementCurrAddress
 1811 0a1c 0F5F      		subi r16,lo8(-(1))
 1812 0a1e 1F4F      		sbci r17,hi8(-(1))
 1813               	.L197:
 1814               	.LM210:
 1815 0a20 CE01      		movw r24,r28
 1816 0a22 8050      		subi r24,lo8(-(PacketBytes))
 1817 0a24 9040      		sbci r25,hi8(-(PacketBytes))
 1818 0a26 0817      		cp r16,r24
 1819 0a28 1907      		cpc r17,r25
 1820 0a2a 01F4      		brne .L198
 1821               	.LBE142:
 1822               	.LM211:
 1823 0a2c 2396      		adiw r28,3
 1824 0a2e D093 0000 		sts (MessageSize)+1,r29
 1825 0a32 C093 0000 		sts MessageSize,r28
 1826               	.LM212:
 1827 0a36 1092 0000 		sts PacketBytes+1,__zero_reg__
 1828               	.LM213:
 1829 0a3a F801      		movw r30,r16
 1830 0a3c 1282      		std Z+2,__zero_reg__
 1831 0a3e 00C0      		rjmp .L152
 1832               	.LVL124:
 1833               	.L137:
 1834               	.LM214:
 1835 0a40 81E0      		ldi r24,lo8(1)
 1836 0a42 90E0      		ldi r25,hi8(1)
 1837 0a44 9093 0000 		sts (MessageSize)+1,r25
 1838 0a48 8093 0000 		sts MessageSize,r24
 1839               	.LM215:
 1840 0a4c 89EC      		ldi r24,lo8(-55)
 1841 0a4e 8093 0000 		sts PacketBytes+1,r24
 1842               	.LVL125:
 1843               	.L152:
 1844               	.LBE115:
 1845               	.LM216:
 1846 0a52 0E94 0000 		call V2P_SendPacket
 1847               	.LVL126:
 1848               	/* epilogue: frame size=0 */
 1849 0a56 DF91      		pop r29
 1850 0a58 CF91      		pop r28
 1851 0a5a 1F91      		pop r17
 1852 0a5c 0F91      		pop r16
 1853 0a5e FF90      		pop r15
 1854 0a60 EF90      		pop r14
 1855 0a62 0895      		ret
 1856               	/* epilogue end (size=7) */
 1857               	/* function PM_InterpretAVRISPPacket size 573 (560) */
 1858               	.LFE17:
 1860               	.global	MemoryType
 1861               		.data
 1864               	MemoryType:
 1865 0000 01        		.byte	1
 1866               	.global	CurrentMode
 1867               	.global	CurrentMode
 1868               		.section .bss
 1871               	CurrentMode:
 1872 0000 00        		.skip 1,0
 1873               	.global	GPageLength
 1874               	.global	GPageLength
 1877               	GPageLength:
 1878 0001 0000      		.skip 2,0
 1879               		.section	.progmem.data,"a",@progbits
 1882               	__c.2143:
 1883 0000 4C4F 434B 		.string	"LOCK-"
 1883      2D00 
 1886               	__c.2140:
 1887 0006 4655 5345 		.string	"FUSE-"
 1887      2D00 
 1890               	__c.2137:
 1891 000c 4550 524D 		.string	"EPRM-"
 1891      2D00 
 1894               	__c.2133:
 1895 0012 4441 5441 		.string	"DATA-"
 1895      2D00 
 1974               	.Letext0:
DEFINED SYMBOLS
                            *ABS*:00000000 ProgramManager.c
C:\DOCUME~1\Dean\LOCALS~1\Temp/cc8Saaaa.s:3      *ABS*:0000003f __SREG__
C:\DOCUME~1\Dean\LOCALS~1\Temp/cc8Saaaa.s:4      *ABS*:0000003e __SP_H__
C:\DOCUME~1\Dean\LOCALS~1\Temp/cc8Saaaa.s:5      *ABS*:0000003d __SP_L__
C:\DOCUME~1\Dean\LOCALS~1\Temp/cc8Saaaa.s:6      *ABS*:00000000 __tmp_reg__
C:\DOCUME~1\Dean\LOCALS~1\Temp/cc8Saaaa.s:7      *ABS*:00000001 __zero_reg__
C:\DOCUME~1\Dean\LOCALS~1\Temp/cc8Saaaa.s:20     .text:00000000 PM_SetupDFAddressCounters
C:\DOCUME~1\Dean\LOCALS~1\Temp/cc8Saaaa.s:1864   .data:00000000 MemoryType
C:\DOCUME~1\Dean\LOCALS~1\Temp/cc8Saaaa.s:1877   .bss:00000001 GPageLength
C:\DOCUME~1\Dean\LOCALS~1\Temp/cc8Saaaa.s:95     .text:00000076 PM_CheckEndOfFuseLockData
C:\DOCUME~1\Dean\LOCALS~1\Temp/cc8Saaaa.s:1871   .bss:00000000 CurrentMode
C:\DOCUME~1\Dean\LOCALS~1\Temp/cc8Saaaa.s:244    .text:0000014a PM_GetStoredDataSize
C:\DOCUME~1\Dean\LOCALS~1\Temp/cc8Saaaa.s:322    .text:000001aa PM_StoreProgramByte
C:\DOCUME~1\Dean\LOCALS~1\Temp/cc8Saaaa.s:377    .text:00000212 PM_SendFuseLockBytes
C:\DOCUME~1\Dean\LOCALS~1\Temp/cc8Saaaa.s:496    .text:0000028e PM_SendEraseCommand
C:\DOCUME~1\Dean\LOCALS~1\Temp/cc8Saaaa.s:589    .text:000002e6 PM_CreateProgrammingPackets
C:\DOCUME~1\Dean\LOCALS~1\Temp/cc8Saaaa.s:980    .text:0000051c PM_ShowStoredItemSizes
C:\DOCUME~1\Dean\LOCALS~1\Temp/cc8Saaaa.s:1894   .progmem.data:00000012 __c.2133
C:\DOCUME~1\Dean\LOCALS~1\Temp/cc8Saaaa.s:1890   .progmem.data:0000000c __c.2137
C:\DOCUME~1\Dean\LOCALS~1\Temp/cc8Saaaa.s:1886   .progmem.data:00000006 __c.2140
C:\DOCUME~1\Dean\LOCALS~1\Temp/cc8Saaaa.s:1882   .progmem.data:00000000 __c.2143
C:\DOCUME~1\Dean\LOCALS~1\Temp/cc8Saaaa.s:1149   .text:00000604 PM_InterpretAVRISPPacket

UNDEFINED SYMBOLS
__do_copy_data
__do_clear_bss
CurrAddress
DataflashInfo
DF_CopyBufferToFlashPage
EEPROMVars
__eeprom_write_block_1F2021
__eeprom_write_byte_1F2021
__eeprom_read_block_1F2021
DF_BufferWriteEnable
SPI_SPITransmit
__eeprom_read_byte_1F2021
USI_SPITransmit
MAIN_Delay10MS
USI_SPITransmitWord
MAIN_Delay1MS
__eeprom_read_word_1F2021
DF_ContinuousReadEnable
PacketBytes
ISPCC_ProgramChip
strcpy_P
ultoa
LCD_puts
MAIN_WaitForJoyRelease
MessageSize
InProgrammingMode
DF_EnableDataflash
__eeprom_write_word_1F2021
V2P_IncrementCurrAddress
V2P_SendPacket
