   1               		.file	"Timeout.c"
   2               		.arch atmega169
   3               	__SREG__ = 0x3f
   4               	__SP_H__ = 0x3e
   5               	__SP_L__ = 0x3d
   6               	__tmp_reg__ = 0
   7               	__zero_reg__ = 1
   8               		.global __do_copy_data
   9               		.global __do_clear_bss
  17               	.Ltext0:
  18               	.global	TOUT_SetupSleepTimer
  20               	TOUT_SetupSleepTimer:
  21               	.LFB16:
  22               	.LM1:
  23               	/* prologue: frame size=0 */
  24               	/* prologue end (size=0) */
  25               	.LBB5:
  26               	.LBB6:
  27               	.LM2:
  28 0000 A0E0      		ldi r26,lo8(EEPROMVars+139)
  29 0002 B0E0      		ldi r27,hi8(EEPROMVars+139)
  30               	/* #APP */
  31 0004 0E94 0000 		call __eeprom_read_byte_1F2021
  32 0008 802D      		mov r24,__tmp_reg__
  33               	.LVL0:
  34               	/* #NOAPP */
  35               	.LBE6:
  36               	.LBE5:
  37               	.LM3:
  38 000a 482F      		mov r20,r24
  39               	.LVL1:
  40               	.LVL2:
  41               	.LM4:
  42 000c 8F3F      		cpi r24,lo8(-1)
  43 000e 01F4      		brne .L2
  44               	.LVL3:
  45               	.LM5:
  46 0010 44E0      		ldi r20,lo8(4)
  47               	.L2:
  48               	.LM6:
  49 0012 51E0      		ldi r21,lo8(1)
  50 0014 5093 6F00 		sts 111,r21
  51               	.LBB7:
  52               	.LM7:
  53 0018 E42F      		mov r30,r20
  54 001a FF27      		clr r31
  55 001c E050      		subi r30,lo8(-(AutoSleepTOValues))
  56 001e F040      		sbci r31,hi8(-(AutoSleepTOValues))
  57               	/* #APP */
  58 0020 E491      		lpm r30, Z
  59               		
  60               	.LVL4:
  61               	/* #NOAPP */
  62               	.LBE7:
  63 0022 8E2F      		mov r24,r30
  64 0024 9927      		clr r25
  65               	.LVL5:
  66 0026 9C01      		movw r18,r24
  67 0028 73E0      		ldi r23,3
  68 002a 220F      	1:	lsl r18
  69 002c 331F      		rol r19
  70 002e 7A95      		dec r23
  71 0030 01F4      		brne 1b
  72 0032 880F      		lsl r24
  73 0034 991F      		rol r25
  74 0036 280F      		add r18,r24
  75 0038 391F      		adc r19,r25
  76 003a 3093 0000 		sts (TicksBeforeAutoSleep)+1,r19
  77 003e 2093 0000 		sts TicksBeforeAutoSleep,r18
  78               	.LM8:
  79 0042 1092 0000 		sts (SleepTimeOutTicks)+1,__zero_reg__
  80 0046 1092 0000 		sts SleepTimeOutTicks,__zero_reg__
  81 004a 1092 8500 		sts (132)+1,__zero_reg__
  82 004e 1092 8400 		sts 132,__zero_reg__
  83               	.LM9:
  84 0052 4423      		tst r20
  85 0054 01F0      		breq .L4
  86               	.LVL6:
  87               	.LM10:
  88 0056 5093 8100 		sts 129,r21
  89 005a 0895      		ret
  90               	.L4:
  91               	.LM11:
  92 005c 1092 8100 		sts 129,__zero_reg__
  93 0060 0895      		ret
  94               	/* epilogue: frame size=0 */
  95               	/* epilogue: noreturn */
  96               	/* epilogue end (size=0) */
  97               	/* function TOUT_SetupSleepTimer size 53 (53) */
  98               	.LFE16:
 100               	.global	__vector_9
 102               	__vector_9:
 103               	.LFB15:
 104               	.LM12:
 105               	/* prologue: frame size=0 */
 106 0062 7894      		sei
 107 0064 1F92      		push __zero_reg__
 108 0066 0F92      		push __tmp_reg__
 109 0068 0FB6      		in __tmp_reg__,__SREG__
 110 006a 0F92      		push __tmp_reg__
 111 006c 1124      		clr __zero_reg__
 112 006e 2F93      		push r18
 113 0070 3F93      		push r19
 114 0072 4F93      		push r20
 115 0074 5F93      		push r21
 116 0076 6F93      		push r22
 117 0078 7F93      		push r23
 118 007a 8F93      		push r24
 119 007c 9F93      		push r25
 120 007e AF93      		push r26
 121 0080 BF93      		push r27
 122 0082 EF93      		push r30
 123 0084 FF93      		push r31
 124               	/* prologue end (size=18) */
 125               	.LM13:
 126 0086 8091 0000 		lds r24,SleepTimeOutTicks
 127 008a 9091 0000 		lds r25,(SleepTimeOutTicks)+1
 128 008e 2091 0000 		lds r18,TicksBeforeAutoSleep
 129 0092 3091 0000 		lds r19,(TicksBeforeAutoSleep)+1
 130 0096 0196      		adiw r24,1
 131 0098 9093 0000 		sts (SleepTimeOutTicks)+1,r25
 132 009c 8093 0000 		sts SleepTimeOutTicks,r24
 133 00a0 0197      		sbiw r24,1
 134 00a2 8217      		cp r24,r18
 135 00a4 9307      		cpc r25,r19
 136 00a6 01F4      		brne .L11
 137               	.LM14:
 138 00a8 1092 8100 		sts 129,__zero_reg__
 139               	.LM15:
 140 00ac 0E94 0000 		call FUNCSleepMode
 141               	.LM16:
 142 00b0 0E94 0000 		call TOUT_SetupSleepTimer
 143               	.L11:
 144               	/* epilogue: frame size=0 */
 145 00b4 FF91      		pop r31
 146 00b6 EF91      		pop r30
 147 00b8 BF91      		pop r27
 148 00ba AF91      		pop r26
 149 00bc 9F91      		pop r25
 150 00be 8F91      		pop r24
 151 00c0 7F91      		pop r23
 152 00c2 6F91      		pop r22
 153 00c4 5F91      		pop r21
 154 00c6 4F91      		pop r20
 155 00c8 3F91      		pop r19
 156 00ca 2F91      		pop r18
 157 00cc 0F90      		pop __tmp_reg__
 158 00ce 0FBE      		out __SREG__,__tmp_reg__
 159 00d0 0F90      		pop __tmp_reg__
 160 00d2 1F90      		pop __zero_reg__
 161 00d4 1895      		reti
 162               	/* epilogue end (size=17) */
 163               	/* function __vector_9 size 58 (23) */
 164               	.LFE15:
 166               	.global	__vector_4
 168               	__vector_4:
 169               	.LFB14:
 170               	.LM17:
 171               	/* prologue: frame size=0 */
 172 00d6 7894      		sei
 173 00d8 1F92      		push __zero_reg__
 174 00da 0F92      		push __tmp_reg__
 175 00dc 0FB6      		in __tmp_reg__,__SREG__
 176 00de 0F92      		push __tmp_reg__
 177 00e0 1124      		clr __zero_reg__
 178 00e2 2F93      		push r18
 179 00e4 3F93      		push r19
 180 00e6 4F93      		push r20
 181 00e8 5F93      		push r21
 182 00ea 6F93      		push r22
 183 00ec 7F93      		push r23
 184 00ee 8F93      		push r24
 185 00f0 9F93      		push r25
 186 00f2 AF93      		push r26
 187 00f4 BF93      		push r27
 188 00f6 EF93      		push r30
 189 00f8 FF93      		push r31
 190               	/* prologue end (size=18) */
 191               	.LM18:
 192 00fa 8091 0000 		lds r24,PacketTimeOutTicks
 193 00fe 8F5F      		subi r24,lo8(-(1))
 194 0100 8093 0000 		sts PacketTimeOutTicks,r24
 195 0104 8091 0000 		lds r24,PacketTimeOutTicks
 196 0108 8739      		cpi r24,lo8(-105)
 197 010a 01F4      		brne .L13
 198               	.LM19:
 199 010c 1092 0000 		sts PacketTimeOutTicks,__zero_reg__
 200               	.LM20:
 201 0110 81E0      		ldi r24,lo8(1)
 202 0112 8093 0000 		sts PacketTimeOut,r24
 203               	.L13:
 204               	.LM21:
 205 0116 8091 C000 		lds r24,192
 206 011a 83FF      		sbrs r24,3
 207 011c 00C0      		rjmp .L15
 208               	.LM22:
 209 011e 80E0      		ldi r24,lo8(__c.1863)
 210 0120 90E0      		ldi r25,hi8(__c.1863)
 211 0122 00C0      		rjmp .L20
 212               	.L15:
 213               	.LM23:
 214 0124 8091 C000 		lds r24,192
 215 0128 84FF      		sbrs r24,4
 216 012a 00C0      		rjmp .L19
 217               	.LM24:
 218 012c 80E0      		ldi r24,lo8(__c.1865)
 219 012e 90E0      		ldi r25,hi8(__c.1865)
 220               	.L20:
 221 0130 0E94 0000 		call MAIN_CrashProgram
 222               	.L19:
 223               	/* epilogue: frame size=0 */
 224 0134 FF91      		pop r31
 225 0136 EF91      		pop r30
 226 0138 BF91      		pop r27
 227 013a AF91      		pop r26
 228 013c 9F91      		pop r25
 229 013e 8F91      		pop r24
 230 0140 7F91      		pop r23
 231 0142 6F91      		pop r22
 232 0144 5F91      		pop r21
 233 0146 4F91      		pop r20
 234 0148 3F91      		pop r19
 235 014a 2F91      		pop r18
 236 014c 0F90      		pop __tmp_reg__
 237 014e 0FBE      		out __SREG__,__tmp_reg__
 238 0150 0F90      		pop __tmp_reg__
 239 0152 1F90      		pop __zero_reg__
 240 0154 1895      		reti
 241               	/* epilogue end (size=17) */
 242               	/* function __vector_4 size 64 (29) */
 243               	.LFE14:
 245               	.global	PacketTimeOutTicks
 246               	.global	PacketTimeOutTicks
 247               		.section .bss
 250               	PacketTimeOutTicks:
 251 0000 00        		.skip 1,0
 252               	.global	PacketTimeOut
 253               	.global	PacketTimeOut
 256               	PacketTimeOut:
 257 0001 00        		.skip 1,0
 258               	.global	SleepTimeOutTicks
 259               	.global	SleepTimeOutTicks
 262               	SleepTimeOutTicks:
 263 0002 0000      		.skip 2,0
 264               	.global	TicksBeforeAutoSleep
 265               	.global	TicksBeforeAutoSleep
 268               	TicksBeforeAutoSleep:
 269 0004 0000      		.skip 2,0
 270               	.global	AutoSleepTOValues
 271               		.section	.progmem.data,"a",@progbits
 274               	AutoSleepTOValues:
 275 0000 00        		.byte	0
 276 0001 0F        		.byte	15
 277 0002 1E        		.byte	30
 278 0003 3C        		.byte	60
 279 0004 78        		.byte	120
 282               	__c.1865:
 283 0005 4652 414D 		.string	"FRAME ERR"
 283      4520 4552 
 283      5200 
 286               	__c.1863:
 287 000f 4441 5441 		.string	"DATA OVR"
 287      204F 5652 
 287      00
 324               	.Letext0:
DEFINED SYMBOLS
                            *ABS*:00000000 Timeout.c
C:\DOCUME~1\Dean\LOCALS~1\Temp/ccaiaaaa.s:3      *ABS*:0000003f __SREG__
C:\DOCUME~1\Dean\LOCALS~1\Temp/ccaiaaaa.s:4      *ABS*:0000003e __SP_H__
C:\DOCUME~1\Dean\LOCALS~1\Temp/ccaiaaaa.s:5      *ABS*:0000003d __SP_L__
C:\DOCUME~1\Dean\LOCALS~1\Temp/ccaiaaaa.s:6      *ABS*:00000000 __tmp_reg__
C:\DOCUME~1\Dean\LOCALS~1\Temp/ccaiaaaa.s:7      *ABS*:00000001 __zero_reg__
C:\DOCUME~1\Dean\LOCALS~1\Temp/ccaiaaaa.s:20     .text:00000000 TOUT_SetupSleepTimer
C:\DOCUME~1\Dean\LOCALS~1\Temp/ccaiaaaa.s:274    .progmem.data:00000000 AutoSleepTOValues
C:\DOCUME~1\Dean\LOCALS~1\Temp/ccaiaaaa.s:268    .bss:00000004 TicksBeforeAutoSleep
C:\DOCUME~1\Dean\LOCALS~1\Temp/ccaiaaaa.s:262    .bss:00000002 SleepTimeOutTicks
C:\DOCUME~1\Dean\LOCALS~1\Temp/ccaiaaaa.s:102    .text:00000062 __vector_9
C:\DOCUME~1\Dean\LOCALS~1\Temp/ccaiaaaa.s:168    .text:000000d6 __vector_4
C:\DOCUME~1\Dean\LOCALS~1\Temp/ccaiaaaa.s:250    .bss:00000000 PacketTimeOutTicks
C:\DOCUME~1\Dean\LOCALS~1\Temp/ccaiaaaa.s:256    .bss:00000001 PacketTimeOut
C:\DOCUME~1\Dean\LOCALS~1\Temp/ccaiaaaa.s:286    .progmem.data:0000000f __c.1863
C:\DOCUME~1\Dean\LOCALS~1\Temp/ccaiaaaa.s:282    .progmem.data:00000005 __c.1865

UNDEFINED SYMBOLS
__do_copy_data
__do_clear_bss
EEPROMVars
__eeprom_read_byte_1F2021
FUNCSleepMode
MAIN_CrashProgram
