   1               		.file	"USI.c"
   2               		.arch atmega169
   3               	__SREG__ = 0x3f
   4               	__SP_H__ = 0x3e
   5               	__SP_L__ = 0x3d
   6               	__tmp_reg__ = 0
   7               	__zero_reg__ = 1
   8               		.global __do_copy_data
   9               		.global __do_clear_bss
  17               	.Ltext0:
  18               	.global	__vector_17
  20               	__vector_17:
  21               	.LFB14:
  22               	.LM1:
  23               	/* prologue: frame size=0 */
  24 0000 1F92      		push __zero_reg__
  25 0002 0F92      		push __tmp_reg__
  26 0004 0FB6      		in __tmp_reg__,__SREG__
  27 0006 0F92      		push __tmp_reg__
  28 0008 1124      		clr __zero_reg__
  29 000a 8F93      		push r24
  30 000c EF93      		push r30
  31 000e FF93      		push r31
  32               	/* prologue end (size=8) */
  33               	.LM2:
  34 0010 EEE6      		ldi r30,lo8(110)
  35 0012 F0E0      		ldi r31,hi8(110)
  36 0014 8081      		ld r24,Z
  37 0016 8D7F      		andi r24,lo8(-3)
  38 0018 8083      		st Z,r24
  39               	.LM3:
  40 001a 80E4      		ldi r24,lo8(64)
  41 001c 8093 B900 		sts 185,r24
  42               	.LM4:
  43 0020 81E0      		ldi r24,lo8(1)
  44 0022 8093 0000 		sts TransferComplete,r24
  45               	.LM5:
  46 0026 8091 BA00 		lds r24,186
  47 002a 8093 0000 		sts StoredUSIDR,r24
  48               	/* epilogue: frame size=0 */
  49 002e FF91      		pop r31
  50 0030 EF91      		pop r30
  51 0032 8F91      		pop r24
  52 0034 0F90      		pop __tmp_reg__
  53 0036 0FBE      		out __SREG__,__tmp_reg__
  54 0038 0F90      		pop __tmp_reg__
  55 003a 1F90      		pop __zero_reg__
  56 003c 1895      		reti
  57               	/* epilogue end (size=8) */
  58               	/* function __vector_17 size 31 (15) */
  59               	.LFE14:
  61               	.global	USI_SPIOff
  63               	USI_SPIOff:
  64               	.LFB16:
  65               	.LM6:
  66               	/* prologue: frame size=0 */
  67               	/* prologue end (size=0) */
  68               	.LM7:
  69 003e 8DB1      		in r24,45-0x20
  70 0040 8F7A      		andi r24,lo8(-81)
  71 0042 8DB9      		out 45-0x20,r24
  72               	.LM8:
  73 0044 8EB1      		in r24,46-0x20
  74 0046 8F78      		andi r24,lo8(-113)
  75 0048 8EB9      		out 46-0x20,r24
  76               	.LM9:
  77 004a 8698      		cbi 48-0x20,6
  78               	.LM10:
  79 004c 8E98      		cbi 49-0x20,6
  80               	.LM11:
  81 004e 14BC      		out 68-0x20,__zero_reg__
  82               	/* epilogue: frame size=0 */
  83 0050 0895      		ret
  84               	/* epilogue end (size=1) */
  85               	/* function USI_SPIOff size 10 (9) */
  86               	.LFE16:
  88               	.global	USI_SPITransmit
  90               	USI_SPITransmit:
  91               	.LFB17:
  92               	.LM12:
  93               	/* prologue: frame size=0 */
  94               	/* prologue end (size=0) */
  95               	.LVL0:
  96               	.LM13:
  97 0052 1092 0000 		sts TransferComplete,__zero_reg__
  98               	.LM14:
  99 0056 8093 BA00 		sts 186,r24
 100               	.LM15:
 101 005a A99A      		sbi 53-0x20,1
 102               	.LM16:
 103 005c 8091 6E00 		lds r24,110
 104               	.LVL1:
 105 0060 8260      		ori r24,lo8(2)
 106 0062 8093 6E00 		sts 110,r24
 107               	.LM17:
 108 0066 16BC      		out 70-0x20,__zero_reg__
 109               	.L6:
 110               	.LM18:
 111 0068 8091 0000 		lds r24,TransferComplete
 112 006c 8823      		tst r24
 113 006e 01F0      		breq .L6
 114               	.LM19:
 115 0070 8091 0000 		lds r24,StoredUSIDR
 116               	.LM20:
 117 0074 9927      		clr r25
 118               	/* epilogue: frame size=0 */
 119 0076 0895      		ret
 120               	/* epilogue end (size=1) */
 121               	/* function USI_SPITransmit size 19 (18) */
 122               	.LFE17:
 124               	.global	USI_SPITransmitWord
 126               	USI_SPITransmitWord:
 127               	.LFB18:
 128               	.LM21:
 129               	/* prologue: frame size=0 */
 130 0078 0F93      		push r16
 131 007a 1F93      		push r17
 132               	/* prologue end (size=2) */
 133               	.LVL2:
 134 007c 8C01      		movw r16,r24
 135               	.LM22:
 136 007e 812F      		mov r24,r17
 137 0080 9927      		clr r25
 138               	.LVL3:
 139 0082 0E94 0000 		call USI_SPITransmit
 140               	.LM23:
 141 0086 802F      		mov r24,r16
 142 0088 0E94 0000 		call USI_SPITransmit
 143               	.LM24:
 144 008c 9927      		clr r25
 145               	/* epilogue: frame size=0 */
 146 008e 1F91      		pop r17
 147 0090 0F91      		pop r16
 148 0092 0895      		ret
 149               	/* epilogue end (size=3) */
 150               	/* function USI_SPITransmitWord size 14 (9) */
 151               	.LFE18:
 153               	.global	USI_SPISetSpeed
 155               	USI_SPISetSpeed:
 156               	.LFB20:
 157               	.LM25:
 158               	/* prologue: frame size=0 */
 159               	/* prologue end (size=0) */
 160 0094 40E0      		ldi r20,lo8(EEPROMVars+2)
 161 0096 50E0      		ldi r21,hi8(EEPROMVars+2)
 162 0098 20E0      		ldi r18,lo8(USIPSValues+1)
 163 009a 30E0      		ldi r19,hi8(USIPSValues+1)
 164 009c F901      		movw r30,r18
 165 009e 3197      		sbiw r30,1
 166               	.LVL4:
 167               	.L14:
 168               	.LBB7:
 169               	.LBB8:
 170               	.LM26:
 171               	/* #APP */
 172 00a0 8491      		lpm r24, Z
 173               		
 174               	.LVL5:
 175               	/* #NOAPP */
 176               	.LBE8:
 177               	.LBB9:
 178               	.LBB10:
 179               	.LM27:
 180 00a2 DA01      		movw r26,r20
 181               	/* #APP */
 182 00a4 0E94 0000 		call __eeprom_read_byte_1F2021
 183 00a8 902D      		mov r25,__tmp_reg__
 184               	/* #NOAPP */
 185               	.LBE10:
 186               	.LBE9:
 187               	.LM28:
 188 00aa 8917      		cp r24,r25
 189 00ac 01F0      		breq .L15
 190 00ae 80E0      		ldi r24,hi8(USIPSValues+6)
 191 00b0 E030      		cpi r30,lo8(USIPSValues+6)
 192 00b2 F807      		cpc r31,r24
 193               	.LVL6:
 194 00b4 01F4      		brne .L17
 195               	.LVL7:
 196               	.L15:
 197               	.LBB11:
 198               	.LM29:
 199 00b6 F901      		movw r30,r18
 200               	/* #APP */
 201 00b8 8491      		lpm r24, Z
 202               		
 203               	.LVL8:
 204               	/* #NOAPP */
 205               	.LBE11:
 206 00ba 87BD      		out 71-0x20,r24
 207               	.LM30:
 208 00bc 89E0      		ldi r24,lo8(9)
 209               	.LVL9:
 210 00be 84BD      		out 68-0x20,r24
 211 00c0 0895      		ret
 212               	.L17:
 213 00c2 3296      		adiw r30,2
 214 00c4 2E5F      		subi r18,lo8(-(2))
 215 00c6 3F4F      		sbci r19,hi8(-(2))
 216               	.LM31:
 217 00c8 80E0      		ldi r24,hi8(USIPSValues+8)
 218 00ca E030      		cpi r30,lo8(USIPSValues+8)
 219 00cc F807      		cpc r31,r24
 220 00ce 01F4      		brne .L14
 221 00d0 0895      		ret
 222               	.LBE7:
 223               	/* epilogue: frame size=0 */
 224               	/* epilogue: noreturn */
 225               	/* epilogue end (size=0) */
 226               	/* function USI_SPISetSpeed size 38 (38) */
 227               	.LFE20:
 229               	.global	USI_SPIInitMaster
 231               	USI_SPIInitMaster:
 232               	.LFB15:
 233               	.LM32:
 234               	/* prologue: frame size=0 */
 235               	/* prologue end (size=0) */
 236               	.LM33:
 237 00d2 8DB1      		in r24,45-0x20
 238 00d4 8065      		ori r24,lo8(80)
 239 00d6 8DB9      		out 45-0x20,r24
 240               	.LM34:
 241 00d8 6D98      		cbi 45-0x20,5
 242               	.LM35:
 243 00da 759A      		sbi 46-0x20,5
 244               	.LM36:
 245 00dc 7698      		cbi 46-0x20,6
 246               	.LM37:
 247 00de 8AE5      		ldi r24,lo8(90)
 248 00e0 8093 B800 		sts 184,r24
 249               	.LM38:
 250 00e4 0E94 0000 		call USI_SPISetSpeed
 251               	.LM39:
 252 00e8 1092 0000 		sts TransferComplete,__zero_reg__
 253               	.LM40:
 254 00ec 1092 0000 		sts StoredUSIDR,__zero_reg__
 255               	/* epilogue: frame size=0 */
 256 00f0 0895      		ret
 257               	/* epilogue end (size=1) */
 258               	/* function USI_SPIInitMaster size 16 (15) */
 259               	.LFE15:
 261               	.global	USI_SPIToggleClock
 263               	USI_SPIToggleClock:
 264               	.LFB19:
 265               	.LM41:
 266               	/* prologue: frame size=0 */
 267 00f2 0F93      		push r16
 268 00f4 1F93      		push r17
 269               	/* prologue end (size=2) */
 270               	.LM42:
 271 00f6 81E0      		ldi r24,lo8(1)
 272 00f8 0E94 0000 		call MAIN_Delay1MS
 273               	.LM43:
 274 00fc 08EB      		ldi r16,lo8(184)
 275 00fe 10E0      		ldi r17,hi8(184)
 276 0100 F801      		movw r30,r16
 277 0102 8081      		ld r24,Z
 278 0104 8160      		ori r24,lo8(1)
 279 0106 8083      		st Z,r24
 280               	.LM44:
 281 0108 81E0      		ldi r24,lo8(1)
 282 010a 0E94 0000 		call MAIN_Delay1MS
 283               	.LM45:
 284 010e F801      		movw r30,r16
 285 0110 8081      		ld r24,Z
 286 0112 8160      		ori r24,lo8(1)
 287 0114 8083      		st Z,r24
 288               	.LM46:
 289 0116 81E0      		ldi r24,lo8(1)
 290 0118 0E94 0000 		call MAIN_Delay1MS
 291               	/* epilogue: frame size=0 */
 292 011c 1F91      		pop r17
 293 011e 0F91      		pop r16
 294 0120 0895      		ret
 295               	/* epilogue end (size=3) */
 296               	/* function USI_SPIToggleClock size 24 (19) */
 297               	.LFE19:
 299               	.global	StoredUSIDR
 300               	.global	StoredUSIDR
 301               		.section .bss
 304               	StoredUSIDR:
 305 0000 00        		.skip 1,0
 306               	.global	TransferComplete
 307               	.global	TransferComplete
 310               	TransferComplete:
 311 0001 00        		.skip 1,0
 312               	.global	USIPSValues
 313               		.section	.progmem.data,"a",@progbits
 316               	USIPSValues:
 317 0000 03        		.byte	3
 318 0001 80        		.byte	-128
 319 0002 02        		.byte	2
 320 0003 54        		.byte	84
 321 0004 01        		.byte	1
 322 0005 40        		.byte	64
 323 0006 00        		.byte	0
 324 0007 22        		.byte	34
 389               	.Letext0:
DEFINED SYMBOLS
                            *ABS*:00000000 USI.c
C:\DOCUME~1\Dean\LOCALS~1\Temp/ccwBaaaa.s:3      *ABS*:0000003f __SREG__
C:\DOCUME~1\Dean\LOCALS~1\Temp/ccwBaaaa.s:4      *ABS*:0000003e __SP_H__
C:\DOCUME~1\Dean\LOCALS~1\Temp/ccwBaaaa.s:5      *ABS*:0000003d __SP_L__
C:\DOCUME~1\Dean\LOCALS~1\Temp/ccwBaaaa.s:6      *ABS*:00000000 __tmp_reg__
C:\DOCUME~1\Dean\LOCALS~1\Temp/ccwBaaaa.s:7      *ABS*:00000001 __zero_reg__
C:\DOCUME~1\Dean\LOCALS~1\Temp/ccwBaaaa.s:20     .text:00000000 __vector_17
C:\DOCUME~1\Dean\LOCALS~1\Temp/ccwBaaaa.s:310    .bss:00000001 TransferComplete
C:\DOCUME~1\Dean\LOCALS~1\Temp/ccwBaaaa.s:304    .bss:00000000 StoredUSIDR
C:\DOCUME~1\Dean\LOCALS~1\Temp/ccwBaaaa.s:63     .text:0000003e USI_SPIOff
C:\DOCUME~1\Dean\LOCALS~1\Temp/ccwBaaaa.s:90     .text:00000052 USI_SPITransmit
C:\DOCUME~1\Dean\LOCALS~1\Temp/ccwBaaaa.s:126    .text:00000078 USI_SPITransmitWord
C:\DOCUME~1\Dean\LOCALS~1\Temp/ccwBaaaa.s:155    .text:00000094 USI_SPISetSpeed
C:\DOCUME~1\Dean\LOCALS~1\Temp/ccwBaaaa.s:316    .progmem.data:00000000 USIPSValues
C:\DOCUME~1\Dean\LOCALS~1\Temp/ccwBaaaa.s:231    .text:000000d2 USI_SPIInitMaster
C:\DOCUME~1\Dean\LOCALS~1\Temp/ccwBaaaa.s:263    .text:000000f2 USI_SPIToggleClock

UNDEFINED SYMBOLS
__do_copy_data
__do_clear_bss
EEPROMVars
__eeprom_read_byte_1F2021
MAIN_Delay1MS
